LIBRARY  CELLCORE.DLL
EXPORTS
?IsAlwaysOnConnection@@YAHPBGH@Z @190 NONAME
?IsSuspendResumeConnection@@YAHPBGH@Z @191 NONAME
?SimGetIMSI@@YAJPAXPAGPAK@Z @21 NONAME
?SimReadRILMessage@@YAJPAXKKPAUrilmessageinfo_tag@@@Z @20 NONAME
?XMLHChangeTagName@@YAJPAUIXMLDOMElement@@PBGPAPAUIXMLDOMNode@@@Z @177 NONAME
?XMLHChangeTagNameEx@@YAJPAUIXMLDOMElement@@PBGPAPAUIXMLDOMNode@@PAPAU1@@Z @189 NONAME
?XMLHCreateChildElement@@YAJPAUIXMLDOMNode@@PBGPAUIXMLDOMDocument@@PAPAUIXMLDOMElement@@@Z @184 NONAME
?XMLHDeleteAttributesWithExclusions@@YAJPAUIXMLDOMNode@@IZZ @180 NONAME
?XMLHDeleteNodeFromDoc@@YAJPAUIXMLDOMNode@@@Z @179 NONAME
?XMLHDeleteNodeListFromDoc@@YAJPAUIXMLDOMNodeList@@@Z @178 NONAME
?XMLHGetBooleanAttributeVal@@YAJPAUIXMLDOMNode@@PBGHPAH@Z @167 NONAME
?XMLHGetBstrVarFromAttr@@YAJPAUIXMLDOMNode@@PBGPAUtagVARIANT@@@Z @164 NONAME
?XMLHGetCLSIDAttributeVal@@YAJPAUIXMLDOMNode@@PBGPAU_GUID@@@Z @175 NONAME
?XMLHGetCOLORREFAttributeVal@@YAJPAUIXMLDOMNode@@PBGKPAKHPAH@Z @171 NONAME
?XMLHGetCommaSeperatedIntAttributeVal@@YAJPAUIXMLDOMNode@@PBGHZZ @169 NONAME
?XMLHGetElementText@@YAJPAUIXMLDOMNode@@PBGPAGI@Z @172 NONAME
?XMLHGetIDValueList@@YAJPAUIXMLDOMNodeList@@QBUNameIDMapElem@@HP6AJPAUIXMLDOMNode@@PAX@ZPAPAH5PAH@Z @176 NONAME
?XMLHGetIntAttributeVal@@YAJPAUIXMLDOMNode@@PBGHPAH@Z @166 NONAME
?XMLHGetOwnerDoc@@YAJPAUIXMLDOMNode@@PAPAUIXMLDOMDocument@@@Z @183 NONAME
?XMLHGetParentPosition@@YAJPAUIXMLDOMNode@@PAJ@Z @187 NONAME
?XMLHGetRectAttributeVal@@YAJPAUIXMLDOMNode@@PBGPBUtagRECT@@PAU2@@Z @170 NONAME
?XMLHGetSearchElementText@@YAJPAUIXMLDOMNode@@PBG1PAGI@Z @173 NONAME
?XMLHGetStringAttributeVal@@YAJPAUIXMLDOMNode@@PBG1PAGI@Z @165 NONAME
?XMLHGetTranslatedAttributeVal@@YAJPAUIXMLDOMNode@@PBGKPAKZZ @168 NONAME
?XMLHInsertChildNodeByPosition@@YAJPAUIXMLDOMNode@@0JPAPAU1@@Z @186 NONAME
?XMLHPrintNode@@YAJPAUIXMLDOMNode@@H@Z @188 NONAME
?XMLHSetTextAttribute@@YAJPAUIXMLDOMElement@@PBG1@Z @185 NONAME
?XMLHSkipXMLProlog@@YAJPAGPAPAG@Z @174 NONAME
CfgUtilCreateCharacteristic @162 NONAME
CfgUtilCreateParm @163 NONAME
ConnMgrApiReadyEvent @129 NONAME
ConnMgrConnectionStatus @121 NONAME
ConnMgrEnumDestinations @125 NONAME
ConnMgrEstablishConnection @120 NONAME
ConnMgrEstablishConnectionSync @130 NONAME
ConnMgrMapConRef @133 NONAME
ConnMgrMapURL @128 NONAME
ConnMgrProviderMessage @124 NONAME
ConnMgrQueryDetailedStatus @131 NONAME
ConnMgrRegisterForStatusChangeNotification @132 NONAME
ConnMgrRegisterScheduledConnection @126 NONAME
ConnMgrReleaseConnection @122 NONAME
ConnMgrSetConnectionPriority @123 NONAME
ConnMgrUnregisterScheduledConnection @127 NONAME
ExecuteDialString @160 NONAME
SetRadioState @150 NONAME
SimChangeLockingPassword @12 NONAME
SimDeinitialize @2 NONAME
SimDeleteMessage @16 NONAME
SimDeletePhonebookEntry @7 NONAME
SimGetDevCaps @3 NONAME
SimGetLockingStatus @10 NONAME
SimGetPhoneLockedState @8 NONAME
SimGetPhonebookStatus @5 NONAME
SimGetRecordInfo @19 NONAME
SimGetSmsStorageStatus @13 NONAME
SimInitialize @1 NONAME
SimReadMessage @14 NONAME
SimReadPhonebookEntry @4 NONAME
SimReadRecord @17 NONAME
SimSetLockingStatus @11 NONAME
SimUnlockPhone @9 NONAME
SimWriteMessage @15 NONAME
SimWritePhonebookEntry @6 NONAME
SimWriteRecord @18 NONAME
ValidateAPIPermission @161 NONAME
lineGetCallBarringCaps @40 NONAME
lineGetCallBarringState @41 NONAME
lineGetCallWaitingCaps @42 NONAME
lineGetCallWaitingState @43 NONAME
lineGetCurrentAddressID @70 NONAME
lineGetCurrentHSCSDStatus @44 NONAME
lineGetCurrentOperator @45 NONAME
lineGetCurrentSystemType @75 NONAME
lineGetEquipmentState @46 NONAME
lineGetGPRSClass @48 NONAME
lineGetGeneralInfo @47 NONAME
lineGetHSCSDCaps @49 NONAME
lineGetHSCSDState @50 NONAME
lineGetMuteState @51 NONAME
lineGetNumberCalls @52 NONAME
lineGetOperatorStatus @53 NONAME
lineGetRadioPresence @54 NONAME
lineGetRegisterStatus @55 NONAME
lineGetSendCallerIDState @56 NONAME
lineGetUSSD @57 NONAME
lineManageCalls @100 NONAME
lineRegister @58 NONAME
lineSendUSSD @59 NONAME
lineSetCallBarringPassword @60 NONAME
lineSetCallBarringState @61 NONAME
lineSetCallWaitingState @62 NONAME
lineSetCurrentAddressID @71 NONAME
lineSetEquipmentState @63 NONAME
lineSetGPRSClass @64 NONAME
lineSetHSCSDState @65 NONAME
lineSetMuteState @66 NONAME
lineSetPreferredOperator @67 NONAME
lineSetSendCallerIDState @68 NONAME
lineUnregister @69 NONAME
tapiRequestMakeCallW @110 NONAME
