LIBRARY  PIMSTORE.DLL
EXPORTS
?AddCustomProperty@@YAJPAUIPOutlookApp2@@PBGHHPAH@Z @93 NONAME
?CheckPropertyExists@@YAJPAUIPOutlookApp2@@PBGPAH@Z @92 NONAME
?GetBulkRead@@YAJPAUIPOutlookApp2@@PAUIDispatch@@PAPAXPAK2G@Z @100 NONAME
?GetCustomProperty@@YAJPAUIPOutlookApp2@@PAUIDispatch@@KPAPAX2@Z @99 NONAME
?GetItemType@@YA_NPAUIDispatch@@PAH@Z @42 NONAME
?GetOidFromRef@@YAJPBUItemRef@@PAK@Z @5 NONAME
?GetTypedItem@@YA_NPAUIDispatch@@PAHPAPAU1@@Z @23 NONAME
?IAppointment_Cancel@@YAJPAUIAppointment@@@Z @43 NONAME
?IAppointment_ClearRecurrencePattern@@YAJPAUIAppointment@@@Z @44 NONAME
?IAppointment_GetRecurrencePattern@@YAJPAUIAppointment@@PAPAUIRecurrencePattern@@@Z @73 NONAME
?IAppointment_Send@@YAJPAUIAppointment@@@Z @75 NONAME
?IAppointment_get_Recipients@@YAJPAUIAppointment@@PAPAUIRecipients@@@Z @28 NONAME
?IContact_get_Picture@@YAJPAUIDispatch@@PAPADPAH@Z @54 NONAME
?IContact_put_Picture@@YAJPAUIDispatch@@PBDH@Z @55 NONAME
?IContact_release_Picture_buffer@@YAJPAPAD@Z @56 NONAME
?IFolder_get_Items@@YAJPAUIFolder@@PAPAUIPOutlookItemCollection@@@Z @60 NONAME
?IItem_Copy@@YAJPAUIDispatch@@PAPAUIItem@@@Z @50 NONAME
?IItem_Delete@@YAJPAUIDispatch@@@Z @51 NONAME
?IItem_Save@@YAJPAUIDispatch@@@Z @52 NONAME
?IItem_get_BoolPropertyFromPropId@@YAJPAUIPOutlookApp2@@PAUIDispatch@@KPAF@Z @48 NONAME
?IItem_get_DatePropertyFromPropId@@YAJPAUIPOutlookApp2@@PAUIDispatch@@KPAK2@Z @35 NONAME
?IItem_get_Int4PropertyFromPropId@@YAJPAUIPOutlookApp2@@PAUIDispatch@@KPAJ@Z @46 NONAME
?IItem_get_Oid@@YAJPAUIDispatch@@PAJ@Z @53 NONAME
?IItem_get_StringPropertyFromPropId@@YAJPAUIPOutlookApp2@@PAUIDispatch@@KPAPAXPAPAG@Z @39 NONAME
?IItem_put_BlobPropertyFromPropId@@YAJPAUIPOutlookApp2@@PAUIDispatch@@KHPAE@Z @98 NONAME
?IItem_put_BoolPropertyFromPropId@@YAJPAUIPOutlookApp2@@PAUIDispatch@@KF@Z @49 NONAME
?IItem_put_DatePropertyFromPropId@@YAJPAUIPOutlookApp2@@PAUIDispatch@@KKK@Z @36 NONAME
?IItem_put_DoublePropertyFromPropId@@YAJPAUIPOutlookApp2@@PAUIDispatch@@KPAN@Z @97 NONAME
?IItem_put_Int16PropertyFromPropId@@YAJPAUIPOutlookApp2@@PAUIDispatch@@KF@Z @94 NONAME
?IItem_put_Int4PropertyFromPropId@@YAJPAUIPOutlookApp2@@PAUIDispatch@@KJ@Z @47 NONAME
?IItem_put_StringPropertyFromPropId@@YAJPAUIPOutlookApp2@@PAUIDispatch@@KPBG@Z @41 NONAME
?IItem_put_UInt16PropertyFromPropId@@YAJPAUIPOutlookApp2@@PAUIDispatch@@KG@Z @96 NONAME
?IItem_put_UInt32PropertyFromPropId@@YAJPAUIPOutlookApp2@@PAUIDispatch@@KK@Z @95 NONAME
?IItem_show_Dialog@@YAJPAUIDispatch@@@Z @33 NONAME
?IPOutlookApp_Create@@YAJPAPAUIPOutlookApp@@@Z @78 NONAME
?IPOutlookApp_CreateAppointment@@YAJPAUIPOutlookApp@@PAPAUIAppointment@@@Z @72 NONAME
?IPOutlookApp_CreateContact@@YAJPAUIPOutlookApp@@PAPAUIContact@@@Z @79 NONAME
?IPOutlookApp_CreateTask@@YAJPAUIPOutlookApp@@PAPAUITask@@@Z @80 NONAME
?IPOutlookApp_GetDefaultFolder@@YAJPAUIPOutlookApp@@HPAPAUIFolder@@@Z @81 NONAME
?IPOutlookApp_GetItemFromOid@@YAJPAUIPOutlookApp@@JPAPAUIDispatch@@@Z @82 NONAME
?IPOutlookApp_HeapFree@@YAHPAU_CEPROPVAL@@@Z @83 NONAME
?IPOutlookApp_Logoff@@YAJPAUIPOutlookApp@@@Z @84 NONAME
?IPOutlookApp_Logon@@YAJPAUIPOutlookApp@@J@Z @85 NONAME
?IPOutlookApp_SysFreeString@@YAJPAUIPOutlookApp@@PAG@Z @62 NONAME
?IPOutlookItemCollection_Add@@YAJPAUIPOutlookItemCollection@@PAPAUIDispatch@@@Z @63 NONAME
?IPOutlookItemCollection_Find@@YAJPAUIPOutlookItemCollection@@PBGPAPAUIDispatch@@@Z @64 NONAME
?IPOutlookItemCollection_FindNext@@YAJPAUIPOutlookItemCollection@@PAPAUIDispatch@@@Z @65 NONAME
?IPOutlookItemCollection_GetIndexFromOid@@YAJPAUIPOutlookItemCollection@@KPAK@Z @40 NONAME
?IPOutlookItemCollection_Item@@YAJPAUIPOutlookItemCollection@@HPAPAUIDispatch@@@Z @66 NONAME
?IPOutlookItemCollection_Remove@@YAJPAUIPOutlookItemCollection@@H@Z @67 NONAME
?IPOutlookItemCollection_Restrict@@YAJPAUIPOutlookItemCollection@@PBGPAPAU1@@Z @68 NONAME
?IPOutlookItemCollection_Sort@@YAJPAUIPOutlookItemCollection@@PBGF@Z @69 NONAME
?IPOutlookItemCollection_get_Count@@YAJPAUIPOutlookItemCollection@@PAH@Z @70 NONAME
?IRecipient_get_Address@@YAJPAUIRecipient@@PAPAG@Z @29 NONAME
?IRecipient_get_Name@@YAJPAUIRecipient@@PAPAG@Z @30 NONAME
?IRecipient_put_Address@@YAJPAUIRecipient@@PBG@Z @31 NONAME
?IRecipients_Add@@YAJPAUIRecipients@@PBGPAPAUIRecipient@@@Z @32 NONAME
?IRecipients_Item@@YAJPAUIRecipients@@HPAPAUIRecipient@@@Z @86 NONAME
?IRecipients_Remove@@YAJPAUIRecipients@@H@Z @87 NONAME
?IRecipients_get_Count@@YAJPAUIRecipients@@PAH@Z @88 NONAME
?IRecurrencePattern_GetOccurrence@@YAJPAUIRecurrencePattern@@PANPAPAUIAppointment@@@Z @61 NONAME
?ITask_ClearRecurrencePattern@@YAJPAUITask@@@Z @91 NONAME
?ITask_GetRecurrencePattern@@YAJPAUITask@@PAPAUIRecurrencePattern@@@Z @26 NONAME
?ITask_SkipRecurrence@@YAJPAUITask@@@Z @89 NONAME
?PocketOutlook_IsFailure@@YAHJ@Z @37 NONAME
?PocketOutlook_ReleaseCOMPtr@@YAKPAUIUnknown@@@Z @38 NONAME
ChooseContact @12 NONAME
FindMatchingContact @10 NONAME
GetItemIndexFromOid @11 NONAME
PIMStoreFreeModules @57 NONAME
