; 
; Exports of file MSDART.DLL
;
; Autogenerated by gen_exportdef
; Written by Kai Tietz, 2007
;
LIBRARY MSDART.DLL
EXPORTS
; public: __thiscall CCritSec::CCritSec(void)
??0CCritSec@@QAE@XZ
; public: __thiscall CDoubleList::CDoubleList(void)
??0CDoubleList@@QAE@XZ
; public: __thiscall CEXAutoBackupFile::CEXAutoBackupFile(unsigned short const *)
??0CEXAutoBackupFile@@QAE@PBG@Z
; public: __thiscall CEXAutoBackupFile::CEXAutoBackupFile(void)
??0CEXAutoBackupFile@@QAE@XZ
; public: __thiscall CExFileOperation::CExFileOperation(void)
??0CExFileOperation@@QAE@XZ
; public: __thiscall CFakeLock::CFakeLock(void)
??0CFakeLock@@QAE@XZ
; private: __thiscall CLKRHashTable::CLKRHashTable(class CLKRHashTable const &)
??0CLKRHashTable@@AAE@ABV0@@Z
; public: __thiscall CLKRHashTable::CLKRHashTable(char const *,unsigned long const  (__stdcall*)(void const *),unsigned long (__stdcall*)(unsigned long),bool (__stdcall*)(unsigned long,unsigned long),void (__stdcall*)(void const *,int),double,unsigned long,unsigned long)
??0CLKRHashTable@@QAE@PBDP6G?BKPBX@ZP6GKK@ZP6G_NKK@ZP6GX1H@ZNKK@Z
; public: __thiscall CLKRHashTableStats::CLKRHashTableStats(void)
??0CLKRHashTableStats@@QAE@XZ
; private: __thiscall CLKRLinearHashTable::CLKRLinearHashTable(class CLKRLinearHashTable const &)
??0CLKRLinearHashTable@@AAE@ABV0@@Z
; private: __thiscall CLKRLinearHashTable::CLKRLinearHashTable(char const *,unsigned long const  (__stdcall*)(void const *),unsigned long (__stdcall*)(unsigned long),bool (__stdcall*)(unsigned long,unsigned long),void (__stdcall*)(void const *,int),double,unsigned long,class CLKRHashTable *)
??0CLKRLinearHashTable@@AAE@PBDP6G?BKPBX@ZP6GKK@ZP6G_NKK@ZP6GX1H@ZNKPAVCLKRHashTable@@@Z
; public: __thiscall CLKRLinearHashTable::CLKRLinearHashTable(char const *,unsigned long const  (__stdcall*)(void const *),unsigned long (__stdcall*)(unsigned long),bool (__stdcall*)(unsigned long,unsigned long),void (__stdcall*)(void const *,int),double,unsigned long,unsigned long)
??0CLKRLinearHashTable@@QAE@PBDP6G?BKPBX@ZP6GKK@ZP6G_NKK@ZP6GX1H@ZNKK@Z
; public: __thiscall CLockedDoubleList::CLockedDoubleList(void)
??0CLockedDoubleList@@QAE@XZ
; public: __thiscall CLockedSingleList::CLockedSingleList(void)
??0CLockedSingleList@@QAE@XZ
; public: __thiscall CReaderWriterLock2::CReaderWriterLock2(void)
??0CReaderWriterLock2@@QAE@XZ
; public: __thiscall CReaderWriterLock3::CReaderWriterLock3(void)
??0CReaderWriterLock3@@QAE@XZ
; public: __thiscall CReaderWriterLock::CReaderWriterLock(void)
??0CReaderWriterLock@@QAE@XZ
; public: __thiscall CSingleList::CSingleList(void)
??0CSingleList@@QAE@XZ
; public: __thiscall CSmallSpinLock::CSmallSpinLock(void)
??0CSmallSpinLock@@QAE@XZ
; public: __thiscall CSpinLock::CSpinLock(void)
??0CSpinLock@@QAE@XZ
; public: __thiscall CCritSec::~CCritSec(void)
??1CCritSec@@QAE@XZ
; public: __thiscall CDoubleList::~CDoubleList(void)
??1CDoubleList@@QAE@XZ
; public: __thiscall CEXAutoBackupFile::~CEXAutoBackupFile(void)
??1CEXAutoBackupFile@@QAE@XZ
; public: __thiscall CExFileOperation::~CExFileOperation(void)
??1CExFileOperation@@QAE@XZ
; public: __thiscall CFakeLock::~CFakeLock(void)
??1CFakeLock@@QAE@XZ
; public: __thiscall CLKRHashTable::~CLKRHashTable(void)
??1CLKRHashTable@@QAE@XZ
; public: __thiscall CLKRLinearHashTable::~CLKRLinearHashTable(void)
??1CLKRLinearHashTable@@QAE@XZ
; public: __thiscall CLockedDoubleList::~CLockedDoubleList(void)
??1CLockedDoubleList@@QAE@XZ
; public: __thiscall CLockedSingleList::~CLockedSingleList(void)
??1CLockedSingleList@@QAE@XZ
; public: __thiscall CReaderWriterLock2::~CReaderWriterLock2(void)
??1CReaderWriterLock2@@QAE@XZ
; public: __thiscall CReaderWriterLock3::~CReaderWriterLock3(void)
??1CReaderWriterLock3@@QAE@XZ
; public: __thiscall CReaderWriterLock::~CReaderWriterLock(void)
??1CReaderWriterLock@@QAE@XZ
; public: __thiscall CSingleList::~CSingleList(void)
??1CSingleList@@QAE@XZ
; public: __thiscall CSmallSpinLock::~CSmallSpinLock(void)
??1CSmallSpinLock@@QAE@XZ
; public: __thiscall CSpinLock::~CSpinLock(void)
??1CSpinLock@@QAE@XZ
; public: class CLockBase<1,1,3,1,3,2> & __thiscall CLockBase<1,1,3,1,3,2>::operator=(class CLockBase<1,1,3,1,3,2> const &)
??4?$CLockBase@$00$00$02$00$02$01@@QAEAAV0@ABV0@@Z
; public: class CLockBase<2,1,1,1,3,2> & __thiscall CLockBase<2,1,1,1,3,2>::operator=(class CLockBase<2,1,1,1,3,2> const &)
??4?$CLockBase@$01$00$00$00$02$01@@QAEAAV0@ABV0@@Z
; public: class CLockBase<3,1,1,1,1,1> & __thiscall CLockBase<3,1,1,1,1,1>::operator=(class CLockBase<3,1,1,1,1,1> const &)
??4?$CLockBase@$02$00$00$00$00$00@@QAEAAV0@ABV0@@Z
; public: class CLockBase<4,1,1,2,3,3> & __thiscall CLockBase<4,1,1,2,3,3>::operator=(class CLockBase<4,1,1,2,3,3> const &)
??4?$CLockBase@$03$00$00$01$02$02@@QAEAAV0@ABV0@@Z
; public: class CLockBase<5,2,2,1,3,2> & __thiscall CLockBase<5,2,2,1,3,2>::operator=(class CLockBase<5,2,2,1,3,2> const &)
??4?$CLockBase@$04$01$01$00$02$01@@QAEAAV0@ABV0@@Z
; public: class CLockBase<6,2,2,1,3,2> & __thiscall CLockBase<6,2,2,1,3,2>::operator=(class CLockBase<6,2,2,1,3,2> const &)
??4?$CLockBase@$05$01$01$00$02$01@@QAEAAV0@ABV0@@Z
; public: class CLockBase<7,2,1,1,3,2> & __thiscall CLockBase<7,2,1,1,3,2>::operator=(class CLockBase<7,2,1,1,3,2> const &)
??4?$CLockBase@$06$01$00$00$02$01@@QAEAAV0@ABV0@@Z
; public: class CCritSec & __thiscall CCritSec::operator=(class CCritSec const &)
??4CCritSec@@QAEAAV0@ABV0@@Z
; public: class CDoubleList & __thiscall CDoubleList::operator=(class CDoubleList const &)
??4CDoubleList@@QAEAAV0@ABV0@@Z
; public: class CEXAutoBackupFile & __thiscall CEXAutoBackupFile::operator=(class CEXAutoBackupFile const &)
??4CEXAutoBackupFile@@QAEAAV0@ABV0@@Z
; public: class CExFileOperation & __thiscall CExFileOperation::operator=(class CExFileOperation const &)
??4CExFileOperation@@QAEAAV0@ABV0@@Z
; public: class CFakeLock & __thiscall CFakeLock::operator=(class CFakeLock const &)
??4CFakeLock@@QAEAAV0@ABV0@@Z
; private: class CLKRHashTable & __thiscall CLKRHashTable::operator=(class CLKRHashTable const &)
??4CLKRHashTable@@AAEAAV0@ABV0@@Z
; public: class CLKRHashTableStats & __thiscall CLKRHashTableStats::operator=(class CLKRHashTableStats const &)
??4CLKRHashTableStats@@QAEAAV0@ABV0@@Z
; private: class CLKRLinearHashTable & __thiscall CLKRLinearHashTable::operator=(class CLKRLinearHashTable const &)
??4CLKRLinearHashTable@@AAEAAV0@ABV0@@Z
; public: class CLockedDoubleList & __thiscall CLockedDoubleList::operator=(class CLockedDoubleList const &)
??4CLockedDoubleList@@QAEAAV0@ABV0@@Z
; public: class CLockedSingleList & __thiscall CLockedSingleList::operator=(class CLockedSingleList const &)
??4CLockedSingleList@@QAEAAV0@ABV0@@Z
; public: class CMdVersionInfo & __thiscall CMdVersionInfo::operator=(class CMdVersionInfo const &)
??4CMdVersionInfo@@QAEAAV0@ABV0@@Z
; public: class CReaderWriterLock2 & __thiscall CReaderWriterLock2::operator=(class CReaderWriterLock2 const &)
??4CReaderWriterLock2@@QAEAAV0@ABV0@@Z
; public: class CReaderWriterLock3 & __thiscall CReaderWriterLock3::operator=(class CReaderWriterLock3 const &)
??4CReaderWriterLock3@@QAEAAV0@ABV0@@Z
; public: class CReaderWriterLock & __thiscall CReaderWriterLock::operator=(class CReaderWriterLock const &)
??4CReaderWriterLock@@QAEAAV0@ABV0@@Z
; public: class CSingleList & __thiscall CSingleList::operator=(class CSingleList const &)
??4CSingleList@@QAEAAV0@ABV0@@Z
; public: class CSmallSpinLock & __thiscall CSmallSpinLock::operator=(class CSmallSpinLock const &)
??4CSmallSpinLock@@QAEAAV0@ABV0@@Z
; public: class CSpinLock & __thiscall CSpinLock::operator=(class CSpinLock const &)
??4CSpinLock@@QAEAAV0@ABV0@@Z
; public: unsigned long __thiscall CLKRHashTable::Apply(enum LK_ACTION  (__stdcall*)(void const *,void *),void *,enum LK_LOCKTYPE)
?Apply@CLKRHashTable@@QAEKP6G?AW4LK_ACTION@@PBXPAX@Z1W4LK_LOCKTYPE@@@Z
; public: unsigned long __thiscall CLKRLinearHashTable::Apply(enum LK_ACTION  (__stdcall*)(void const *,void *),void *,enum LK_LOCKTYPE)
?Apply@CLKRLinearHashTable@@QAEKP6G?AW4LK_ACTION@@PBXPAX@Z1W4LK_LOCKTYPE@@@Z
; public: unsigned long __thiscall CLKRHashTable::ApplyIf(enum LK_PREDICATE  (__stdcall*)(void const *,void *),enum LK_ACTION  (__stdcall*)(void const *,void *),void *,enum LK_LOCKTYPE)
?ApplyIf@CLKRHashTable@@QAEKP6G?AW4LK_PREDICATE@@PBXPAX@ZP6G?AW4LK_ACTION@@01@Z1W4LK_LOCKTYPE@@@Z
; public: unsigned long __thiscall CLKRLinearHashTable::ApplyIf(enum LK_PREDICATE  (__stdcall*)(void const *,void *),enum LK_ACTION  (__stdcall*)(void const *,void *),void *,enum LK_LOCKTYPE)
?ApplyIf@CLKRLinearHashTable@@QAEKP6G?AW4LK_PREDICATE@@PBXPAX@ZP6G?AW4LK_ACTION@@01@Z1W4LK_LOCKTYPE@@@Z
; public: long __thiscall CEXAutoBackupFile::BackupFile(unsigned short const *)
?BackupFile@CEXAutoBackupFile@@QAEJPBG@Z
; public: static long __stdcall CLKRHashTableStats::BucketIndex(long)
?BucketIndex@CLKRHashTableStats@@SGJJ@Z
; public: static long __stdcall CLKRHashTableStats::BucketSize(long)
?BucketSize@CLKRHashTableStats@@SGJJ@Z
; public: static long const * __stdcall CLKRHashTableStats::BucketSizes(void)
?BucketSizes@CLKRHashTableStats@@SGPBJXZ
; public: int __thiscall CLKRHashTable::CheckTable(void)const 
?CheckTable@CLKRHashTable@@QBEHXZ
; public: int __thiscall CLKRLinearHashTable::CheckTable(void)const 
?CheckTable@CLKRLinearHashTable@@QBEHXZ
; public: static char const * __stdcall CCritSec::ClassName(void)
?ClassName@CCritSec@@SGPBDXZ
; public: static char const * __stdcall CFakeLock::ClassName(void)
?ClassName@CFakeLock@@SGPBDXZ
; public: static char const * __stdcall CLKRHashTable::ClassName(void)
?ClassName@CLKRHashTable@@SGPBDXZ
; public: static char const * __stdcall CLKRLinearHashTable::ClassName(void)
?ClassName@CLKRLinearHashTable@@SGPBDXZ
; public: static char const * __stdcall CReaderWriterLock2::ClassName(void)
?ClassName@CReaderWriterLock2@@SGPBDXZ
; public: static char const * __stdcall CReaderWriterLock3::ClassName(void)
?ClassName@CReaderWriterLock3@@SGPBDXZ
; public: static char const * __stdcall CReaderWriterLock::ClassName(void)
?ClassName@CReaderWriterLock@@SGPBDXZ
; public: static char const * __stdcall CSmallSpinLock::ClassName(void)
?ClassName@CSmallSpinLock@@SGPBDXZ
; public: static char const * __stdcall CSpinLock::ClassName(void)
?ClassName@CSpinLock@@SGPBDXZ
; public: void __thiscall CLKRHashTable::Clear(void)
?Clear@CLKRHashTable@@QAEXXZ
; public: void __thiscall CLKRLinearHashTable::Clear(void)
?Clear@CLKRLinearHashTable@@QAEXXZ
; public: enum LK_RETCODE  __thiscall CLKRHashTable::CloseIterator(class CLKRHashTable::CIterator *)
?CloseIterator@CLKRHashTable@@QAE?AW4LK_RETCODE@@PAVCIterator@1@@Z
; public: enum LK_RETCODE  __thiscall CLKRHashTable::CloseIterator(class CLKRHashTable::CConstIterator *)const 
?CloseIterator@CLKRHashTable@@QBE?AW4LK_RETCODE@@PAVCConstIterator@1@@Z
; public: enum LK_RETCODE  __thiscall CLKRLinearHashTable::CloseIterator(class CLKRLinearHashTable::CIterator *)
?CloseIterator@CLKRLinearHashTable@@QAE?AW4LK_RETCODE@@PAVCIterator@1@@Z
; public: enum LK_RETCODE  __thiscall CLKRLinearHashTable::CloseIterator(class CLKRLinearHashTable::CConstIterator *)const 
?CloseIterator@CLKRLinearHashTable@@QBE?AW4LK_RETCODE@@PAVCConstIterator@1@@Z
; public: void __thiscall CCritSec::ConvertExclusiveToShared(void)
?ConvertExclusiveToShared@CCritSec@@QAEXXZ
; public: void __thiscall CFakeLock::ConvertExclusiveToShared(void)
?ConvertExclusiveToShared@CFakeLock@@QAEXXZ
; public: void __thiscall CLKRHashTable::ConvertExclusiveToShared(void)const 
?ConvertExclusiveToShared@CLKRHashTable@@QBEXXZ
; public: void __thiscall CLKRLinearHashTable::ConvertExclusiveToShared(void)const 
?ConvertExclusiveToShared@CLKRLinearHashTable@@QBEXXZ
; public: void __thiscall CReaderWriterLock2::ConvertExclusiveToShared(void)
?ConvertExclusiveToShared@CReaderWriterLock2@@QAEXXZ
; public: void __thiscall CReaderWriterLock3::ConvertExclusiveToShared(void)
?ConvertExclusiveToShared@CReaderWriterLock3@@QAEXXZ
; public: void __thiscall CReaderWriterLock::ConvertExclusiveToShared(void)
?ConvertExclusiveToShared@CReaderWriterLock@@QAEXXZ
; public: void __thiscall CSmallSpinLock::ConvertExclusiveToShared(void)
?ConvertExclusiveToShared@CSmallSpinLock@@QAEXXZ
; public: void __thiscall CSpinLock::ConvertExclusiveToShared(void)
?ConvertExclusiveToShared@CSpinLock@@QAEXXZ
; public: void __thiscall CCritSec::ConvertSharedToExclusive(void)
?ConvertSharedToExclusive@CCritSec@@QAEXXZ
; public: void __thiscall CFakeLock::ConvertSharedToExclusive(void)
?ConvertSharedToExclusive@CFakeLock@@QAEXXZ
; public: void __thiscall CLKRHashTable::ConvertSharedToExclusive(void)const 
?ConvertSharedToExclusive@CLKRHashTable@@QBEXXZ
; public: void __thiscall CLKRLinearHashTable::ConvertSharedToExclusive(void)const 
?ConvertSharedToExclusive@CLKRLinearHashTable@@QBEXXZ
; public: void __thiscall CReaderWriterLock2::ConvertSharedToExclusive(void)
?ConvertSharedToExclusive@CReaderWriterLock2@@QAEXXZ
; public: void __thiscall CReaderWriterLock3::ConvertSharedToExclusive(void)
?ConvertSharedToExclusive@CReaderWriterLock3@@QAEXXZ
; public: void __thiscall CReaderWriterLock::ConvertSharedToExclusive(void)
?ConvertSharedToExclusive@CReaderWriterLock@@QAEXXZ
; public: void __thiscall CSmallSpinLock::ConvertSharedToExclusive(void)
?ConvertSharedToExclusive@CSmallSpinLock@@QAEXXZ
; public: void __thiscall CSpinLock::ConvertSharedToExclusive(void)
?ConvertSharedToExclusive@CSpinLock@@QAEXXZ
; long __stdcall CreateHolder(struct IGPDispenser *,int,unsigned int,struct IGPHolder * *)
?CreateHolder@@YGJPAUIGPDispenser@@HIPAPAUIGPHolder@@@Z
; public: unsigned long __thiscall CLKRHashTable::DeleteIf(enum LK_PREDICATE  (__stdcall*)(void const *,void *),void *)
?DeleteIf@CLKRHashTable@@QAEKP6G?AW4LK_PREDICATE@@PBXPAX@Z1@Z
; public: unsigned long __thiscall CLKRLinearHashTable::DeleteIf(enum LK_PREDICATE  (__stdcall*)(void const *,void *),void *)
?DeleteIf@CLKRLinearHashTable@@QAEKP6G?AW4LK_PREDICATE@@PBXPAX@Z1@Z
; public: enum LK_RETCODE  __thiscall CLKRHashTable::DeleteKey(unsigned long)
?DeleteKey@CLKRHashTable@@QAE?AW4LK_RETCODE@@K@Z
; public: enum LK_RETCODE  __thiscall CLKRLinearHashTable::DeleteKey(unsigned long)
?DeleteKey@CLKRLinearHashTable@@QAE?AW4LK_RETCODE@@K@Z
; public: enum LK_RETCODE  __thiscall CLKRHashTable::DeleteRecord(void const *)
?DeleteRecord@CLKRHashTable@@QAE?AW4LK_RETCODE@@PBX@Z
; public: enum LK_RETCODE  __thiscall CLKRLinearHashTable::DeleteRecord(void const *)
?DeleteRecord@CLKRLinearHashTable@@QAE?AW4LK_RETCODE@@PBX@Z
; public: long __thiscall CExFileOperation::FOCopyFile(unsigned short const *,unsigned short const *,int)
?FOCopyFile@CExFileOperation@@QAEJPBG0H@Z
; public: long __thiscall CExFileOperation::FOCopyFileDACLS(unsigned short const *,unsigned short const *)
?FOCopyFileDACLS@CExFileOperation@@QAEJPBG0@Z
; public: long __thiscall CExFileOperation::FODeleteFile(unsigned short const *)
?FODeleteFile@CExFileOperation@@QAEJPBG@Z
; public: long __thiscall CExFileOperation::FOMoveFile(unsigned short const *,unsigned short const *)
?FOMoveFile@CExFileOperation@@QAEJPBG0@Z
; public: long __thiscall CExFileOperation::FOReplaceFile(unsigned short const *,unsigned short const *)
?FOReplaceFile@CExFileOperation@@QAEJPBG0@Z
; public: enum LK_RETCODE  __thiscall CLKRHashTable::FindKey(unsigned long,void const * *)const 
?FindKey@CLKRHashTable@@QBE?AW4LK_RETCODE@@KPAPBX@Z
; public: enum LK_RETCODE  __thiscall CLKRLinearHashTable::FindKey(unsigned long,void const * *)const 
?FindKey@CLKRLinearHashTable@@QBE?AW4LK_RETCODE@@KPAPBX@Z
; public: enum LK_RETCODE  __thiscall CLKRHashTable::FindRecord(void const *)const 
?FindRecord@CLKRHashTable@@QBE?AW4LK_RETCODE@@PBX@Z
; public: enum LK_RETCODE  __thiscall CLKRLinearHashTable::FindRecord(void const *)const 
?FindRecord@CLKRLinearHashTable@@QBE?AW4LK_RETCODE@@PBX@Z
; public: class CListEntry * __thiscall CDoubleList::First(void)const 
?First@CDoubleList@@QBEQAVCListEntry@@XZ
; public: class CListEntry * __thiscall CLockedDoubleList::First(void)
?First@CLockedDoubleList@@QAEQAVCListEntry@@XZ
; public: int __thiscall CEXAutoBackupFile::GetBackupFile(unsigned short * *)
?GetBackupFile@CEXAutoBackupFile@@QAEHPAPAG@Z
; public: unsigned short __thiscall CLKRHashTable::GetBucketLockSpinCount(void)
?GetBucketLockSpinCount@CLKRHashTable@@QAEGXZ
; public: unsigned short __thiscall CLKRLinearHashTable::GetBucketLockSpinCount(void)
?GetBucketLockSpinCount@CLKRLinearHashTable@@QAEGXZ
; public: static double __stdcall CCritSec::GetDefaultSpinAdjustmentFactor(void)
?GetDefaultSpinAdjustmentFactor@CCritSec@@SGNXZ
; public: static double __stdcall CFakeLock::GetDefaultSpinAdjustmentFactor(void)
?GetDefaultSpinAdjustmentFactor@CFakeLock@@SGNXZ
; public: static double __stdcall CReaderWriterLock2::GetDefaultSpinAdjustmentFactor(void)
?GetDefaultSpinAdjustmentFactor@CReaderWriterLock2@@SGNXZ
; public: static double __stdcall CReaderWriterLock3::GetDefaultSpinAdjustmentFactor(void)
?GetDefaultSpinAdjustmentFactor@CReaderWriterLock3@@SGNXZ
; public: static double __stdcall CReaderWriterLock::GetDefaultSpinAdjustmentFactor(void)
?GetDefaultSpinAdjustmentFactor@CReaderWriterLock@@SGNXZ
; public: static double __stdcall CSmallSpinLock::GetDefaultSpinAdjustmentFactor(void)
?GetDefaultSpinAdjustmentFactor@CSmallSpinLock@@SGNXZ
; public: static double __stdcall CSpinLock::GetDefaultSpinAdjustmentFactor(void)
?GetDefaultSpinAdjustmentFactor@CSpinLock@@SGNXZ
; public: static unsigned short __stdcall CCritSec::GetDefaultSpinCount(void)
?GetDefaultSpinCount@CCritSec@@SGGXZ
; public: static unsigned short __stdcall CFakeLock::GetDefaultSpinCount(void)
?GetDefaultSpinCount@CFakeLock@@SGGXZ
; public: static unsigned short __stdcall CReaderWriterLock2::GetDefaultSpinCount(void)
?GetDefaultSpinCount@CReaderWriterLock2@@SGGXZ
; public: static unsigned short __stdcall CReaderWriterLock3::GetDefaultSpinCount(void)
?GetDefaultSpinCount@CReaderWriterLock3@@SGGXZ
; public: static unsigned short __stdcall CReaderWriterLock::GetDefaultSpinCount(void)
?GetDefaultSpinCount@CReaderWriterLock@@SGGXZ
; public: static unsigned short __stdcall CSmallSpinLock::GetDefaultSpinCount(void)
?GetDefaultSpinCount@CSmallSpinLock@@SGGXZ
; public: static unsigned short __stdcall CSpinLock::GetDefaultSpinCount(void)
?GetDefaultSpinCount@CSpinLock@@SGGXZ
; public: unsigned short __thiscall CCritSec::GetSpinCount(void)const 
?GetSpinCount@CCritSec@@QBEGXZ
; public: unsigned short __thiscall CFakeLock::GetSpinCount(void)const 
?GetSpinCount@CFakeLock@@QBEGXZ
; public: unsigned short __thiscall CReaderWriterLock2::GetSpinCount(void)const 
?GetSpinCount@CReaderWriterLock2@@QBEGXZ
; public: unsigned short __thiscall CReaderWriterLock3::GetSpinCount(void)const 
?GetSpinCount@CReaderWriterLock3@@QBEGXZ
; public: unsigned short __thiscall CReaderWriterLock::GetSpinCount(void)const 
?GetSpinCount@CReaderWriterLock@@QBEGXZ
; public: unsigned short __thiscall CSmallSpinLock::GetSpinCount(void)const 
?GetSpinCount@CSmallSpinLock@@QBEGXZ
; public: unsigned short __thiscall CSpinLock::GetSpinCount(void)const 
?GetSpinCount@CSpinLock@@QBEGXZ
; public: class CLKRHashTableStats  __thiscall CLKRHashTable::GetStatistics(void)const 
?GetStatistics@CLKRHashTable@@QBE?AVCLKRHashTableStats@@XZ
; public: class CLKRHashTableStats  __thiscall CLKRLinearHashTable::GetStatistics(void)const 
?GetStatistics@CLKRLinearHashTable@@QBE?AVCLKRHashTableStats@@XZ
; public: unsigned short __thiscall CLKRHashTable::GetTableLockSpinCount(void)
?GetTableLockSpinCount@CLKRHashTable@@QAEGXZ
; public: unsigned short __thiscall CLKRLinearHashTable::GetTableLockSpinCount(void)
?GetTableLockSpinCount@CLKRLinearHashTable@@QAEGXZ
; public: static int __cdecl CMdVersionInfo::GetVersionExW(struct _OSVERSIONINFOW *)
?GetVersionExW@CMdVersionInfo@@SAHPAU_OSVERSIONINFOW@@@Z
; public: class CListEntry const * __thiscall CDoubleList::HeadNode(void)const 
?HeadNode@CDoubleList@@QBEQBVCListEntry@@XZ
; public: class CListEntry const * __thiscall CLockedDoubleList::HeadNode(void)const 
?HeadNode@CLockedDoubleList@@QBEQBVCListEntry@@XZ
; public: enum LK_RETCODE  __thiscall CLKRHashTable::IncrementIterator(class CLKRHashTable::CIterator *)
?IncrementIterator@CLKRHashTable@@QAE?AW4LK_RETCODE@@PAVCIterator@1@@Z
; public: enum LK_RETCODE  __thiscall CLKRHashTable::IncrementIterator(class CLKRHashTable::CConstIterator *)const 
?IncrementIterator@CLKRHashTable@@QBE?AW4LK_RETCODE@@PAVCConstIterator@1@@Z
; public: enum LK_RETCODE  __thiscall CLKRLinearHashTable::IncrementIterator(class CLKRLinearHashTable::CIterator *)
?IncrementIterator@CLKRLinearHashTable@@QAE?AW4LK_RETCODE@@PAVCIterator@1@@Z
; public: enum LK_RETCODE  __thiscall CLKRLinearHashTable::IncrementIterator(class CLKRLinearHashTable::CConstIterator *)const 
?IncrementIterator@CLKRLinearHashTable@@QBE?AW4LK_RETCODE@@PAVCConstIterator@1@@Z
; public: enum LK_RETCODE  __thiscall CLKRHashTable::InitializeIterator(class CLKRHashTable::CIterator *)
?InitializeIterator@CLKRHashTable@@QAE?AW4LK_RETCODE@@PAVCIterator@1@@Z
; public: enum LK_RETCODE  __thiscall CLKRHashTable::InitializeIterator(class CLKRHashTable::CConstIterator *)const 
?InitializeIterator@CLKRHashTable@@QBE?AW4LK_RETCODE@@PAVCConstIterator@1@@Z
; public: enum LK_RETCODE  __thiscall CLKRLinearHashTable::InitializeIterator(class CLKRLinearHashTable::CIterator *)
?InitializeIterator@CLKRLinearHashTable@@QAE?AW4LK_RETCODE@@PAVCIterator@1@@Z
; public: enum LK_RETCODE  __thiscall CLKRLinearHashTable::InitializeIterator(class CLKRLinearHashTable::CConstIterator *)const 
?InitializeIterator@CLKRLinearHashTable@@QBE?AW4LK_RETCODE@@PAVCConstIterator@1@@Z
; private: static int __cdecl CMdVersionInfo::InitializeVersionInfo(void)
?InitializeVersionInfo@CMdVersionInfo@@CAHXZ
; public: void __thiscall CDoubleList::InsertHead(class CListEntry * const)
?InsertHead@CDoubleList@@QAEXQAVCListEntry@@@Z
; public: void __thiscall CLockedDoubleList::InsertHead(class CListEntry * const)
?InsertHead@CLockedDoubleList@@QAEXQAVCListEntry@@@Z
; public: enum LK_RETCODE  __thiscall CLKRHashTable::InsertRecord(void const *,bool)
?InsertRecord@CLKRHashTable@@QAE?AW4LK_RETCODE@@PBX_N@Z
; public: enum LK_RETCODE  __thiscall CLKRLinearHashTable::InsertRecord(void const *,bool)
?InsertRecord@CLKRLinearHashTable@@QAE?AW4LK_RETCODE@@PBX_N@Z
; public: void __thiscall CDoubleList::InsertTail(class CListEntry * const)
?InsertTail@CDoubleList@@QAEXQAVCListEntry@@@Z
; public: void __thiscall CLockedDoubleList::InsertTail(class CListEntry * const)
?InsertTail@CLockedDoubleList@@QAEXQAVCListEntry@@@Z
; public: bool __thiscall CDoubleList::IsEmpty(void)const 
?IsEmpty@CDoubleList@@QBE_NXZ
; public: bool __thiscall CLockedDoubleList::IsEmpty(void)const 
?IsEmpty@CLockedDoubleList@@QBE_NXZ
; public: bool __thiscall CLockedSingleList::IsEmpty(void)const 
?IsEmpty@CLockedSingleList@@QBE_NXZ
; public: bool __thiscall CSingleList::IsEmpty(void)const 
?IsEmpty@CSingleList@@QBE_NXZ
; public: bool __thiscall CLockedDoubleList::IsLocked(void)const 
?IsLocked@CLockedDoubleList@@QBE_NXZ
; public: bool __thiscall CLockedSingleList::IsLocked(void)const 
?IsLocked@CLockedSingleList@@QBE_NXZ
; public: static int __cdecl CMdVersionInfo::IsMillnm(void)
?IsMillnm@CMdVersionInfo@@SAHXZ
; public: bool __thiscall CCritSec::IsReadLocked(void)const 
?IsReadLocked@CCritSec@@QBE_NXZ
; public: bool __thiscall CFakeLock::IsReadLocked(void)const 
?IsReadLocked@CFakeLock@@QBE_NXZ
; public: bool __thiscall CLKRHashTable::IsReadLocked(void)const 
?IsReadLocked@CLKRHashTable@@QBE_NXZ
; public: bool __thiscall CLKRLinearHashTable::IsReadLocked(void)const 
?IsReadLocked@CLKRLinearHashTable@@QBE_NXZ
; public: bool __thiscall CReaderWriterLock2::IsReadLocked(void)const 
?IsReadLocked@CReaderWriterLock2@@QBE_NXZ
; public: bool __thiscall CReaderWriterLock3::IsReadLocked(void)const 
?IsReadLocked@CReaderWriterLock3@@QBE_NXZ
; public: bool __thiscall CReaderWriterLock::IsReadLocked(void)const 
?IsReadLocked@CReaderWriterLock@@QBE_NXZ
; public: bool __thiscall CSmallSpinLock::IsReadLocked(void)const 
?IsReadLocked@CSmallSpinLock@@QBE_NXZ
; public: bool __thiscall CSpinLock::IsReadLocked(void)const 
?IsReadLocked@CSpinLock@@QBE_NXZ
; public: bool __thiscall CCritSec::IsReadUnlocked(void)const 
?IsReadUnlocked@CCritSec@@QBE_NXZ
; public: bool __thiscall CFakeLock::IsReadUnlocked(void)const 
?IsReadUnlocked@CFakeLock@@QBE_NXZ
; public: bool __thiscall CLKRHashTable::IsReadUnlocked(void)const 
?IsReadUnlocked@CLKRHashTable@@QBE_NXZ
; public: bool __thiscall CLKRLinearHashTable::IsReadUnlocked(void)const 
?IsReadUnlocked@CLKRLinearHashTable@@QBE_NXZ
; public: bool __thiscall CReaderWriterLock2::IsReadUnlocked(void)const 
?IsReadUnlocked@CReaderWriterLock2@@QBE_NXZ
; public: bool __thiscall CReaderWriterLock3::IsReadUnlocked(void)const 
?IsReadUnlocked@CReaderWriterLock3@@QBE_NXZ
; public: bool __thiscall CReaderWriterLock::IsReadUnlocked(void)const 
?IsReadUnlocked@CReaderWriterLock@@QBE_NXZ
; public: bool __thiscall CSmallSpinLock::IsReadUnlocked(void)const 
?IsReadUnlocked@CSmallSpinLock@@QBE_NXZ
; public: bool __thiscall CSpinLock::IsReadUnlocked(void)const 
?IsReadUnlocked@CSpinLock@@QBE_NXZ
; public: bool __thiscall CLockedDoubleList::IsUnlocked(void)const 
?IsUnlocked@CLockedDoubleList@@QBE_NXZ
; public: bool __thiscall CLockedSingleList::IsUnlocked(void)const 
?IsUnlocked@CLockedSingleList@@QBE_NXZ
; public: bool __thiscall CLKRHashTable::IsUsable(void)const 
?IsUsable@CLKRHashTable@@QBE_NXZ
; public: bool __thiscall CLKRLinearHashTable::IsUsable(void)const 
?IsUsable@CLKRLinearHashTable@@QBE_NXZ
; public: bool __thiscall CLKRHashTable::IsValid(void)const 
?IsValid@CLKRHashTable@@QBE_NXZ
; public: bool __thiscall CLKRLinearHashTable::IsValid(void)const 
?IsValid@CLKRLinearHashTable@@QBE_NXZ
; public: static int __cdecl CMdVersionInfo::IsWin2k(void)
?IsWin2k@CMdVersionInfo@@SAHXZ
; public: static int __cdecl CMdVersionInfo::IsWin2korLater(void)
?IsWin2korLater@CMdVersionInfo@@SAHXZ
; public: static int __cdecl CMdVersionInfo::IsWin95(void)
?IsWin95@CMdVersionInfo@@SAHXZ
; public: static int __cdecl CMdVersionInfo::IsWin98(void)
?IsWin98@CMdVersionInfo@@SAHXZ
; public: static int __cdecl CMdVersionInfo::IsWin98orLater(void)
?IsWin98orLater@CMdVersionInfo@@SAHXZ
; public: static int __cdecl CMdVersionInfo::IsWin9x(void)
?IsWin9x@CMdVersionInfo@@SAHXZ
; public: static int __cdecl CMdVersionInfo::IsWinNT4(void)
?IsWinNT4@CMdVersionInfo@@SAHXZ
; public: static int __cdecl CMdVersionInfo::IsWinNT(void)
?IsWinNT@CMdVersionInfo@@SAHXZ
; public: static int __cdecl CMdVersionInfo::IsWinNt4orLater(void)
?IsWinNt4orLater@CMdVersionInfo@@SAHXZ
; public: bool __thiscall CCritSec::IsWriteLocked(void)const 
?IsWriteLocked@CCritSec@@QBE_NXZ
; public: bool __thiscall CFakeLock::IsWriteLocked(void)const 
?IsWriteLocked@CFakeLock@@QBE_NXZ
; public: bool __thiscall CLKRHashTable::IsWriteLocked(void)const 
?IsWriteLocked@CLKRHashTable@@QBE_NXZ
; public: bool __thiscall CLKRLinearHashTable::IsWriteLocked(void)const 
?IsWriteLocked@CLKRLinearHashTable@@QBE_NXZ
; public: bool __thiscall CReaderWriterLock2::IsWriteLocked(void)const 
?IsWriteLocked@CReaderWriterLock2@@QBE_NXZ
; public: bool __thiscall CReaderWriterLock3::IsWriteLocked(void)const 
?IsWriteLocked@CReaderWriterLock3@@QBE_NXZ
; public: bool __thiscall CReaderWriterLock::IsWriteLocked(void)const 
?IsWriteLocked@CReaderWriterLock@@QBE_NXZ
; public: bool __thiscall CSmallSpinLock::IsWriteLocked(void)const 
?IsWriteLocked@CSmallSpinLock@@QBE_NXZ
; public: bool __thiscall CSpinLock::IsWriteLocked(void)const 
?IsWriteLocked@CSpinLock@@QBE_NXZ
; public: bool __thiscall CCritSec::IsWriteUnlocked(void)const 
?IsWriteUnlocked@CCritSec@@QBE_NXZ
; public: bool __thiscall CFakeLock::IsWriteUnlocked(void)const 
?IsWriteUnlocked@CFakeLock@@QBE_NXZ
; public: bool __thiscall CLKRHashTable::IsWriteUnlocked(void)const 
?IsWriteUnlocked@CLKRHashTable@@QBE_NXZ
; public: bool __thiscall CLKRLinearHashTable::IsWriteUnlocked(void)const 
?IsWriteUnlocked@CLKRLinearHashTable@@QBE_NXZ
; public: bool __thiscall CReaderWriterLock2::IsWriteUnlocked(void)const 
?IsWriteUnlocked@CReaderWriterLock2@@QBE_NXZ
; public: bool __thiscall CReaderWriterLock3::IsWriteUnlocked(void)const 
?IsWriteUnlocked@CReaderWriterLock3@@QBE_NXZ
; public: bool __thiscall CReaderWriterLock::IsWriteUnlocked(void)const 
?IsWriteUnlocked@CReaderWriterLock@@QBE_NXZ
; public: bool __thiscall CSmallSpinLock::IsWriteUnlocked(void)const 
?IsWriteUnlocked@CSmallSpinLock@@QBE_NXZ
; public: bool __thiscall CSpinLock::IsWriteUnlocked(void)const 
?IsWriteUnlocked@CSpinLock@@QBE_NXZ
; public: class CListEntry * __thiscall CDoubleList::Last(void)const 
?Last@CDoubleList@@QBEQAVCListEntry@@XZ
; public: class CListEntry * __thiscall CLockedDoubleList::Last(void)
?Last@CLockedDoubleList@@QAEQAVCListEntry@@XZ
; public: void __thiscall CLockedDoubleList::Lock(void)
?Lock@CLockedDoubleList@@QAEXXZ
; public: void __thiscall CLockedSingleList::Lock(void)
?Lock@CLockedSingleList@@QAEXXZ
; public: static enum LOCK_LOCKTYPE  __stdcall CLockBase<1,1,3,1,3,2>::LockType(void)
?LockType@?$CLockBase@$00$00$02$00$02$01@@SG?AW4LOCK_LOCKTYPE@@XZ
; public: static enum LOCK_LOCKTYPE  __stdcall CLockBase<2,1,1,1,3,2>::LockType(void)
?LockType@?$CLockBase@$01$00$00$00$02$01@@SG?AW4LOCK_LOCKTYPE@@XZ
; public: static enum LOCK_LOCKTYPE  __stdcall CLockBase<3,1,1,1,1,1>::LockType(void)
?LockType@?$CLockBase@$02$00$00$00$00$00@@SG?AW4LOCK_LOCKTYPE@@XZ
; public: static enum LOCK_LOCKTYPE  __stdcall CLockBase<4,1,1,2,3,3>::LockType(void)
?LockType@?$CLockBase@$03$00$00$01$02$02@@SG?AW4LOCK_LOCKTYPE@@XZ
; public: static enum LOCK_LOCKTYPE  __stdcall CLockBase<5,2,2,1,3,2>::LockType(void)
?LockType@?$CLockBase@$04$01$01$00$02$01@@SG?AW4LOCK_LOCKTYPE@@XZ
; public: static enum LOCK_LOCKTYPE  __stdcall CLockBase<6,2,2,1,3,2>::LockType(void)
?LockType@?$CLockBase@$05$01$01$00$02$01@@SG?AW4LOCK_LOCKTYPE@@XZ
; public: static enum LOCK_LOCKTYPE  __stdcall CLockBase<7,2,1,1,3,2>::LockType(void)
?LockType@?$CLockBase@$06$01$00$00$02$01@@SG?AW4LOCK_LOCKTYPE@@XZ
; public: unsigned long __thiscall CLKRHashTable::MaxSize(void)const 
?MaxSize@CLKRHashTable@@QBEKXZ
; public: unsigned long __thiscall CLKRLinearHashTable::MaxSize(void)const 
?MaxSize@CLKRLinearHashTable@@QBEKXZ
; unsigned long __cdecl MpHeapCompact(void *)
?MpHeapCompact@@YAKPAX@Z
; public: static enum LOCK_RW_MUTEX  __stdcall CLockBase<1,1,3,1,3,2>::MutexType(void)
?MutexType@?$CLockBase@$00$00$02$00$02$01@@SG?AW4LOCK_RW_MUTEX@@XZ
; public: static enum LOCK_RW_MUTEX  __stdcall CLockBase<2,1,1,1,3,2>::MutexType(void)
?MutexType@?$CLockBase@$01$00$00$00$02$01@@SG?AW4LOCK_RW_MUTEX@@XZ
; public: static enum LOCK_RW_MUTEX  __stdcall CLockBase<3,1,1,1,1,1>::MutexType(void)
?MutexType@?$CLockBase@$02$00$00$00$00$00@@SG?AW4LOCK_RW_MUTEX@@XZ
; public: static enum LOCK_RW_MUTEX  __stdcall CLockBase<4,1,1,2,3,3>::MutexType(void)
?MutexType@?$CLockBase@$03$00$00$01$02$02@@SG?AW4LOCK_RW_MUTEX@@XZ
; public: static enum LOCK_RW_MUTEX  __stdcall CLockBase<5,2,2,1,3,2>::MutexType(void)
?MutexType@?$CLockBase@$04$01$01$00$02$01@@SG?AW4LOCK_RW_MUTEX@@XZ
; public: static enum LOCK_RW_MUTEX  __stdcall CLockBase<6,2,2,1,3,2>::MutexType(void)
?MutexType@?$CLockBase@$05$01$01$00$02$01@@SG?AW4LOCK_RW_MUTEX@@XZ
; public: static enum LOCK_RW_MUTEX  __stdcall CLockBase<7,2,1,1,3,2>::MutexType(void)
?MutexType@?$CLockBase@$06$01$00$00$02$01@@SG?AW4LOCK_RW_MUTEX@@XZ
; public: int __thiscall CLKRHashTable::NumSubTables(void)const 
?NumSubTables@CLKRHashTable@@QBEHXZ
; public: static enum LK_TABLESIZE  __stdcall CLKRHashTable::NumSubTables(unsigned long &,unsigned long &)
?NumSubTables@CLKRHashTable@@SG?AW4LK_TABLESIZE@@AAK0@Z
; public: int __thiscall CLKRLinearHashTable::NumSubTables(void)const 
?NumSubTables@CLKRLinearHashTable@@QBEHXZ
; public: static enum LK_TABLESIZE  __stdcall CLKRLinearHashTable::NumSubTables(unsigned long &,unsigned long &)
?NumSubTables@CLKRLinearHashTable@@SG?AW4LK_TABLESIZE@@AAK0@Z
; int __stdcall OnUnicodeSystem(void)
?OnUnicodeSystem@@YGHXZ
; public: static enum LOCK_PERLOCK_SPIN  __stdcall CLockBase<1,1,3,1,3,2>::PerLockSpin(void)
?PerLockSpin@?$CLockBase@$00$00$02$00$02$01@@SG?AW4LOCK_PERLOCK_SPIN@@XZ
; public: static enum LOCK_PERLOCK_SPIN  __stdcall CLockBase<2,1,1,1,3,2>::PerLockSpin(void)
?PerLockSpin@?$CLockBase@$01$00$00$00$02$01@@SG?AW4LOCK_PERLOCK_SPIN@@XZ
; public: static enum LOCK_PERLOCK_SPIN  __stdcall CLockBase<3,1,1,1,1,1>::PerLockSpin(void)
?PerLockSpin@?$CLockBase@$02$00$00$00$00$00@@SG?AW4LOCK_PERLOCK_SPIN@@XZ
; public: static enum LOCK_PERLOCK_SPIN  __stdcall CLockBase<4,1,1,2,3,3>::PerLockSpin(void)
?PerLockSpin@?$CLockBase@$03$00$00$01$02$02@@SG?AW4LOCK_PERLOCK_SPIN@@XZ
; public: static enum LOCK_PERLOCK_SPIN  __stdcall CLockBase<5,2,2,1,3,2>::PerLockSpin(void)
?PerLockSpin@?$CLockBase@$04$01$01$00$02$01@@SG?AW4LOCK_PERLOCK_SPIN@@XZ
; public: static enum LOCK_PERLOCK_SPIN  __stdcall CLockBase<6,2,2,1,3,2>::PerLockSpin(void)
?PerLockSpin@?$CLockBase@$05$01$01$00$02$01@@SG?AW4LOCK_PERLOCK_SPIN@@XZ
; public: static enum LOCK_PERLOCK_SPIN  __stdcall CLockBase<7,2,1,1,3,2>::PerLockSpin(void)
?PerLockSpin@?$CLockBase@$06$01$00$00$02$01@@SG?AW4LOCK_PERLOCK_SPIN@@XZ
; public: class CSingleListEntry * __thiscall CLockedSingleList::Pop(void)
?Pop@CLockedSingleList@@QAEQAVCSingleListEntry@@XZ
; public: class CSingleListEntry * __thiscall CSingleList::Pop(void)
?Pop@CSingleList@@QAEQAVCSingleListEntry@@XZ
; public: void __thiscall CLKRHashTable::Print(void)const 
?Print@CLKRHashTable@@QBEXXZ
; public: void __thiscall CLKRLinearHashTable::Print(void)const 
?Print@CLKRLinearHashTable@@QBEXXZ
; public: void __thiscall CLockedSingleList::Push(class CSingleListEntry * const)
?Push@CLockedSingleList@@QAEXQAVCSingleListEntry@@@Z
; public: void __thiscall CSingleList::Push(class CSingleListEntry * const)
?Push@CSingleList@@QAEXQAVCSingleListEntry@@@Z
; public: static enum LOCK_QUEUE_TYPE  __stdcall CLockBase<1,1,3,1,3,2>::QueueType(void)
?QueueType@?$CLockBase@$00$00$02$00$02$01@@SG?AW4LOCK_QUEUE_TYPE@@XZ
; public: static enum LOCK_QUEUE_TYPE  __stdcall CLockBase<2,1,1,1,3,2>::QueueType(void)
?QueueType@?$CLockBase@$01$00$00$00$02$01@@SG?AW4LOCK_QUEUE_TYPE@@XZ
; public: static enum LOCK_QUEUE_TYPE  __stdcall CLockBase<3,1,1,1,1,1>::QueueType(void)
?QueueType@?$CLockBase@$02$00$00$00$00$00@@SG?AW4LOCK_QUEUE_TYPE@@XZ
; public: static enum LOCK_QUEUE_TYPE  __stdcall CLockBase<4,1,1,2,3,3>::QueueType(void)
?QueueType@?$CLockBase@$03$00$00$01$02$02@@SG?AW4LOCK_QUEUE_TYPE@@XZ
; public: static enum LOCK_QUEUE_TYPE  __stdcall CLockBase<5,2,2,1,3,2>::QueueType(void)
?QueueType@?$CLockBase@$04$01$01$00$02$01@@SG?AW4LOCK_QUEUE_TYPE@@XZ
; public: static enum LOCK_QUEUE_TYPE  __stdcall CLockBase<6,2,2,1,3,2>::QueueType(void)
?QueueType@?$CLockBase@$05$01$01$00$02$01@@SG?AW4LOCK_QUEUE_TYPE@@XZ
; public: static enum LOCK_QUEUE_TYPE  __stdcall CLockBase<7,2,1,1,3,2>::QueueType(void)
?QueueType@?$CLockBase@$06$01$00$00$02$01@@SG?AW4LOCK_QUEUE_TYPE@@XZ
; public: void __thiscall CCritSec::ReadLock(void)
?ReadLock@CCritSec@@QAEXXZ
; public: void __thiscall CFakeLock::ReadLock(void)
?ReadLock@CFakeLock@@QAEXXZ
; public: void __thiscall CLKRHashTable::ReadLock(void)const 
?ReadLock@CLKRHashTable@@QBEXXZ
; public: void __thiscall CLKRLinearHashTable::ReadLock(void)const 
?ReadLock@CLKRLinearHashTable@@QBEXXZ
; public: void __thiscall CReaderWriterLock2::ReadLock(void)
?ReadLock@CReaderWriterLock2@@QAEXXZ
; public: void __thiscall CReaderWriterLock3::ReadLock(void)
?ReadLock@CReaderWriterLock3@@QAEXXZ
; public: void __thiscall CReaderWriterLock::ReadLock(void)
?ReadLock@CReaderWriterLock@@QAEXXZ
; public: void __thiscall CSmallSpinLock::ReadLock(void)
?ReadLock@CSmallSpinLock@@QAEXXZ
; public: void __thiscall CSpinLock::ReadLock(void)
?ReadLock@CSpinLock@@QAEXXZ
; public: bool __thiscall CCritSec::ReadOrWriteLock(void)
?ReadOrWriteLock@CCritSec@@QAE_NXZ
; public: bool __thiscall CFakeLock::ReadOrWriteLock(void)
?ReadOrWriteLock@CFakeLock@@QAE_NXZ
; public: bool __thiscall CReaderWriterLock3::ReadOrWriteLock(void)
?ReadOrWriteLock@CReaderWriterLock3@@QAE_NXZ
; public: bool __thiscall CSpinLock::ReadOrWriteLock(void)
?ReadOrWriteLock@CSpinLock@@QAE_NXZ
; public: void __thiscall CCritSec::ReadOrWriteUnlock(bool)
?ReadOrWriteUnlock@CCritSec@@QAEX_N@Z
; public: void __thiscall CFakeLock::ReadOrWriteUnlock(bool)
?ReadOrWriteUnlock@CFakeLock@@QAEX_N@Z
; public: void __thiscall CReaderWriterLock3::ReadOrWriteUnlock(bool)
?ReadOrWriteUnlock@CReaderWriterLock3@@QAEX_N@Z
; public: void __thiscall CSpinLock::ReadOrWriteUnlock(bool)
?ReadOrWriteUnlock@CSpinLock@@QAEX_N@Z
; public: void __thiscall CCritSec::ReadUnlock(void)
?ReadUnlock@CCritSec@@QAEXXZ
; public: void __thiscall CFakeLock::ReadUnlock(void)
?ReadUnlock@CFakeLock@@QAEXXZ
; public: void __thiscall CLKRHashTable::ReadUnlock(void)const 
?ReadUnlock@CLKRHashTable@@QBEXXZ
; public: void __thiscall CLKRLinearHashTable::ReadUnlock(void)const 
?ReadUnlock@CLKRLinearHashTable@@QBEXXZ
; public: void __thiscall CReaderWriterLock2::ReadUnlock(void)
?ReadUnlock@CReaderWriterLock2@@QAEXXZ
; public: void __thiscall CReaderWriterLock3::ReadUnlock(void)
?ReadUnlock@CReaderWriterLock3@@QAEXXZ
; public: void __thiscall CReaderWriterLock::ReadUnlock(void)
?ReadUnlock@CReaderWriterLock@@QAEXXZ
; public: void __thiscall CSmallSpinLock::ReadUnlock(void)
?ReadUnlock@CSmallSpinLock@@QAEXXZ
; public: void __thiscall CSpinLock::ReadUnlock(void)
?ReadUnlock@CSpinLock@@QAEXXZ
; public: static enum LOCK_RECURSION  __stdcall CLockBase<1,1,3,1,3,2>::Recursion(void)
?Recursion@?$CLockBase@$00$00$02$00$02$01@@SG?AW4LOCK_RECURSION@@XZ
; public: static enum LOCK_RECURSION  __stdcall CLockBase<2,1,1,1,3,2>::Recursion(void)
?Recursion@?$CLockBase@$01$00$00$00$02$01@@SG?AW4LOCK_RECURSION@@XZ
; public: static enum LOCK_RECURSION  __stdcall CLockBase<3,1,1,1,1,1>::Recursion(void)
?Recursion@?$CLockBase@$02$00$00$00$00$00@@SG?AW4LOCK_RECURSION@@XZ
; public: static enum LOCK_RECURSION  __stdcall CLockBase<4,1,1,2,3,3>::Recursion(void)
?Recursion@?$CLockBase@$03$00$00$01$02$02@@SG?AW4LOCK_RECURSION@@XZ
; public: static enum LOCK_RECURSION  __stdcall CLockBase<5,2,2,1,3,2>::Recursion(void)
?Recursion@?$CLockBase@$04$01$01$00$02$01@@SG?AW4LOCK_RECURSION@@XZ
; public: static enum LOCK_RECURSION  __stdcall CLockBase<6,2,2,1,3,2>::Recursion(void)
?Recursion@?$CLockBase@$05$01$01$00$02$01@@SG?AW4LOCK_RECURSION@@XZ
; public: static enum LOCK_RECURSION  __stdcall CLockBase<7,2,1,1,3,2>::Recursion(void)
?Recursion@?$CLockBase@$06$01$00$00$02$01@@SG?AW4LOCK_RECURSION@@XZ
; public: static void __cdecl CMdVersionInfo::ReleaseVersionInfo(void)
?ReleaseVersionInfo@CMdVersionInfo@@SAXXZ
; public: static void __stdcall CDoubleList::RemoveEntry(class CListEntry * const)
?RemoveEntry@CDoubleList@@SGXQAVCListEntry@@@Z
; public: void __thiscall CLockedDoubleList::RemoveEntry(class CListEntry * const)
?RemoveEntry@CLockedDoubleList@@QAEXQAVCListEntry@@@Z
; public: class CListEntry * __thiscall CDoubleList::RemoveHead(void)
?RemoveHead@CDoubleList@@QAEQAVCListEntry@@XZ
; public: class CListEntry * __thiscall CLockedDoubleList::RemoveHead(void)
?RemoveHead@CLockedDoubleList@@QAEQAVCListEntry@@XZ
; public: class CListEntry * __thiscall CDoubleList::RemoveTail(void)
?RemoveTail@CDoubleList@@QAEQAVCListEntry@@XZ
; public: class CListEntry * __thiscall CLockedDoubleList::RemoveTail(void)
?RemoveTail@CLockedDoubleList@@QAEQAVCListEntry@@XZ
; public: long __thiscall CEXAutoBackupFile::RestoreFile(void)
?RestoreFile@CEXAutoBackupFile@@QAEJXZ
; public: void __thiscall CLKRHashTable::SetBucketLockSpinCount(unsigned short)
?SetBucketLockSpinCount@CLKRHashTable@@QAEXG@Z
; public: void __thiscall CLKRLinearHashTable::SetBucketLockSpinCount(unsigned short)
?SetBucketLockSpinCount@CLKRLinearHashTable@@QAEXG@Z
; public: static void __stdcall CCritSec::SetDefaultSpinAdjustmentFactor(double)
?SetDefaultSpinAdjustmentFactor@CCritSec@@SGXN@Z
; public: static void __stdcall CFakeLock::SetDefaultSpinAdjustmentFactor(double)
?SetDefaultSpinAdjustmentFactor@CFakeLock@@SGXN@Z
; public: static void __stdcall CReaderWriterLock2::SetDefaultSpinAdjustmentFactor(double)
?SetDefaultSpinAdjustmentFactor@CReaderWriterLock2@@SGXN@Z
; public: static void __stdcall CReaderWriterLock3::SetDefaultSpinAdjustmentFactor(double)
?SetDefaultSpinAdjustmentFactor@CReaderWriterLock3@@SGXN@Z
; public: static void __stdcall CReaderWriterLock::SetDefaultSpinAdjustmentFactor(double)
?SetDefaultSpinAdjustmentFactor@CReaderWriterLock@@SGXN@Z
; public: static void __stdcall CSmallSpinLock::SetDefaultSpinAdjustmentFactor(double)
?SetDefaultSpinAdjustmentFactor@CSmallSpinLock@@SGXN@Z
; public: static void __stdcall CSpinLock::SetDefaultSpinAdjustmentFactor(double)
?SetDefaultSpinAdjustmentFactor@CSpinLock@@SGXN@Z
; public: static void __stdcall CCritSec::SetDefaultSpinCount(unsigned short)
?SetDefaultSpinCount@CCritSec@@SGXG@Z
; public: static void __stdcall CFakeLock::SetDefaultSpinCount(unsigned short)
?SetDefaultSpinCount@CFakeLock@@SGXG@Z
; public: static void __stdcall CReaderWriterLock2::SetDefaultSpinCount(unsigned short)
?SetDefaultSpinCount@CReaderWriterLock2@@SGXG@Z
; public: static void __stdcall CReaderWriterLock3::SetDefaultSpinCount(unsigned short)
?SetDefaultSpinCount@CReaderWriterLock3@@SGXG@Z
; public: static void __stdcall CReaderWriterLock::SetDefaultSpinCount(unsigned short)
?SetDefaultSpinCount@CReaderWriterLock@@SGXG@Z
; public: static void __stdcall CSmallSpinLock::SetDefaultSpinCount(unsigned short)
?SetDefaultSpinCount@CSmallSpinLock@@SGXG@Z
; public: static void __stdcall CSpinLock::SetDefaultSpinCount(unsigned short)
?SetDefaultSpinCount@CSpinLock@@SGXG@Z
; public: bool __thiscall CCritSec::SetSpinCount(unsigned short)
?SetSpinCount@CCritSec@@QAE_NG@Z
; public: static unsigned long __stdcall CCritSec::SetSpinCount(class CCriticalSection * *,unsigned long)
?SetSpinCount@CCritSec@@SGKPAPAVCCriticalSection@@K@Z
; public: bool __thiscall CFakeLock::SetSpinCount(unsigned short)
?SetSpinCount@CFakeLock@@QAE_NG@Z
; public: bool __thiscall CReaderWriterLock2::SetSpinCount(unsigned short)
?SetSpinCount@CReaderWriterLock2@@QAE_NG@Z
; public: bool __thiscall CReaderWriterLock3::SetSpinCount(unsigned short)
?SetSpinCount@CReaderWriterLock3@@QAE_NG@Z
; public: bool __thiscall CReaderWriterLock::SetSpinCount(unsigned short)
?SetSpinCount@CReaderWriterLock@@QAE_NG@Z
; public: bool __thiscall CSmallSpinLock::SetSpinCount(unsigned short)
?SetSpinCount@CSmallSpinLock@@QAE_NG@Z
; public: bool __thiscall CSpinLock::SetSpinCount(unsigned short)
?SetSpinCount@CSpinLock@@QAE_NG@Z
; public: void __thiscall CLKRHashTable::SetTableLockSpinCount(unsigned short)
?SetTableLockSpinCount@CLKRHashTable@@QAEXG@Z
; public: void __thiscall CLKRLinearHashTable::SetTableLockSpinCount(unsigned short)
?SetTableLockSpinCount@CLKRLinearHashTable@@QAEXG@Z
; public: unsigned long __thiscall CLKRHashTable::Size(void)const 
?Size@CLKRHashTable@@QBEKXZ
; public: unsigned long __thiscall CLKRLinearHashTable::Size(void)const 
?Size@CLKRLinearHashTable@@QBEKXZ
; public: bool __thiscall CCritSec::TryReadLock(void)
?TryReadLock@CCritSec@@QAE_NXZ
; public: bool __thiscall CFakeLock::TryReadLock(void)
?TryReadLock@CFakeLock@@QAE_NXZ
; public: bool __thiscall CReaderWriterLock2::TryReadLock(void)
?TryReadLock@CReaderWriterLock2@@QAE_NXZ
; public: bool __thiscall CReaderWriterLock3::TryReadLock(void)
?TryReadLock@CReaderWriterLock3@@QAE_NXZ
; public: bool __thiscall CReaderWriterLock::TryReadLock(void)
?TryReadLock@CReaderWriterLock@@QAE_NXZ
; public: bool __thiscall CSmallSpinLock::TryReadLock(void)
?TryReadLock@CSmallSpinLock@@QAE_NXZ
; public: bool __thiscall CSpinLock::TryReadLock(void)
?TryReadLock@CSpinLock@@QAE_NXZ
; public: bool __thiscall CCritSec::TryWriteLock(void)
?TryWriteLock@CCritSec@@QAE_NXZ
; public: bool __thiscall CFakeLock::TryWriteLock(void)
?TryWriteLock@CFakeLock@@QAE_NXZ
; public: bool __thiscall CReaderWriterLock2::TryWriteLock(void)
?TryWriteLock@CReaderWriterLock2@@QAE_NXZ
; public: bool __thiscall CReaderWriterLock3::TryWriteLock(void)
?TryWriteLock@CReaderWriterLock3@@QAE_NXZ
; public: bool __thiscall CReaderWriterLock::TryWriteLock(void)
?TryWriteLock@CReaderWriterLock@@QAE_NXZ
; public: bool __thiscall CSmallSpinLock::TryWriteLock(void)
?TryWriteLock@CSmallSpinLock@@QAE_NXZ
; public: bool __thiscall CSpinLock::TryWriteLock(void)
?TryWriteLock@CSpinLock@@QAE_NXZ
; public: long __thiscall CEXAutoBackupFile::UndoBackup(void)
?UndoBackup@CEXAutoBackupFile@@QAEJXZ
; public: void __thiscall CLockedDoubleList::Unlock(void)
?Unlock@CLockedDoubleList@@QAEXXZ
; public: void __thiscall CLockedSingleList::Unlock(void)
?Unlock@CLockedSingleList@@QAEXXZ
; public: bool __thiscall CLKRHashTable::ValidSignature(void)const 
?ValidSignature@CLKRHashTable@@QBE_NXZ
; public: bool __thiscall CLKRLinearHashTable::ValidSignature(void)const 
?ValidSignature@CLKRLinearHashTable@@QBE_NXZ
; public: static enum LOCK_WAIT_TYPE  __stdcall CLockBase<1,1,3,1,3,2>::WaitType(void)
?WaitType@?$CLockBase@$00$00$02$00$02$01@@SG?AW4LOCK_WAIT_TYPE@@XZ
; public: static enum LOCK_WAIT_TYPE  __stdcall CLockBase<2,1,1,1,3,2>::WaitType(void)
?WaitType@?$CLockBase@$01$00$00$00$02$01@@SG?AW4LOCK_WAIT_TYPE@@XZ
; public: static enum LOCK_WAIT_TYPE  __stdcall CLockBase<3,1,1,1,1,1>::WaitType(void)
?WaitType@?$CLockBase@$02$00$00$00$00$00@@SG?AW4LOCK_WAIT_TYPE@@XZ
; public: static enum LOCK_WAIT_TYPE  __stdcall CLockBase<4,1,1,2,3,3>::WaitType(void)
?WaitType@?$CLockBase@$03$00$00$01$02$02@@SG?AW4LOCK_WAIT_TYPE@@XZ
; public: static enum LOCK_WAIT_TYPE  __stdcall CLockBase<5,2,2,1,3,2>::WaitType(void)
?WaitType@?$CLockBase@$04$01$01$00$02$01@@SG?AW4LOCK_WAIT_TYPE@@XZ
; public: static enum LOCK_WAIT_TYPE  __stdcall CLockBase<6,2,2,1,3,2>::WaitType(void)
?WaitType@?$CLockBase@$05$01$01$00$02$01@@SG?AW4LOCK_WAIT_TYPE@@XZ
; public: static enum LOCK_WAIT_TYPE  __stdcall CLockBase<7,2,1,1,3,2>::WaitType(void)
?WaitType@?$CLockBase@$06$01$00$00$02$01@@SG?AW4LOCK_WAIT_TYPE@@XZ
; public: void __thiscall CCritSec::WriteLock(void)
?WriteLock@CCritSec@@QAEXXZ
; public: void __thiscall CFakeLock::WriteLock(void)
?WriteLock@CFakeLock@@QAEXXZ
; public: void __thiscall CLKRHashTable::WriteLock(void)
?WriteLock@CLKRHashTable@@QAEXXZ
; public: void __thiscall CLKRLinearHashTable::WriteLock(void)
?WriteLock@CLKRLinearHashTable@@QAEXXZ
; public: void __thiscall CReaderWriterLock2::WriteLock(void)
?WriteLock@CReaderWriterLock2@@QAEXXZ
; public: void __thiscall CReaderWriterLock3::WriteLock(void)
?WriteLock@CReaderWriterLock3@@QAEXXZ
; public: void __thiscall CReaderWriterLock::WriteLock(void)
?WriteLock@CReaderWriterLock@@QAEXXZ
; public: void __thiscall CSmallSpinLock::WriteLock(void)
?WriteLock@CSmallSpinLock@@QAEXXZ
; public: void __thiscall CSpinLock::WriteLock(void)
?WriteLock@CSpinLock@@QAEXXZ
; public: void __thiscall CCritSec::WriteUnlock(void)
?WriteUnlock@CCritSec@@QAEXXZ
; public: void __thiscall CFakeLock::WriteUnlock(void)
?WriteUnlock@CFakeLock@@QAEXXZ
; public: void __thiscall CLKRHashTable::WriteUnlock(void)const 
?WriteUnlock@CLKRHashTable@@QBEXXZ
; public: void __thiscall CLKRLinearHashTable::WriteUnlock(void)const 
?WriteUnlock@CLKRLinearHashTable@@QBEXXZ
; public: void __thiscall CReaderWriterLock2::WriteUnlock(void)
?WriteUnlock@CReaderWriterLock2@@QAEXXZ
; public: void __thiscall CReaderWriterLock3::WriteUnlock(void)
?WriteUnlock@CReaderWriterLock3@@QAEXXZ
; public: void __thiscall CReaderWriterLock::WriteUnlock(void)
?WriteUnlock@CReaderWriterLock@@QAEXXZ
; public: void __thiscall CSmallSpinLock::WriteUnlock(void)
?WriteUnlock@CSmallSpinLock@@QAEXXZ
; public: void __thiscall CSpinLock::WriteUnlock(void)
?WriteUnlock@CSpinLock@@QAEXXZ
; private: void __thiscall CLKRLinearHashTable::_AddRefRecord(void const *,int)const 
?_AddRefRecord@CLKRLinearHashTable@@ABEXPBXH@Z
; private: static class CLKRLinearHashTable::CNodeClump * __stdcall CLKRLinearHashTable::_AllocateNodeClump(void)
?_AllocateNodeClump@CLKRLinearHashTable@@CGQAVCNodeClump@1@XZ
; private: class CLKRLinearHashTable::CSegment * __thiscall CLKRLinearHashTable::_AllocateSegment(void)const 
?_AllocateSegment@CLKRLinearHashTable@@ABEQAVCSegment@1@XZ
; private: static class CLKRLinearHashTable::CDirEntry * __stdcall CLKRLinearHashTable::_AllocateSegmentDirectory(unsigned int)
?_AllocateSegmentDirectory@CLKRLinearHashTable@@CGQAVCDirEntry@1@I@Z
; private: static class CLKRLinearHashTable * __stdcall CLKRHashTable::_AllocateSubTable(char const *,unsigned long const  (__stdcall*)(void const *),unsigned long (__stdcall*)(unsigned long),bool (__stdcall*)(unsigned long,unsigned long),void (__stdcall*)(void const *,int),double,unsigned long,class CLKRHashTable *)
?_AllocateSubTable@CLKRHashTable@@CGQAVCLKRLinearHashTable@@PBDP6G?BKPBX@ZP6GKK@ZP6G_NKK@ZP6GX1H@ZNKPAV1@@Z
; private: static class CLKRLinearHashTable * * __stdcall CLKRHashTable::_AllocateSubTableArray(unsigned int)
?_AllocateSubTableArray@CLKRHashTable@@CGQAPAVCLKRLinearHashTable@@I@Z
; private: unsigned long __thiscall CLKRLinearHashTable::_Apply(enum LK_ACTION  (__stdcall*)(void const *,void *),void *,enum LK_LOCKTYPE,enum LK_PREDICATE &)
?_Apply@CLKRLinearHashTable@@AAEKP6G?AW4LK_ACTION@@PBXPAX@Z1W4LK_LOCKTYPE@@AAW4LK_PREDICATE@@@Z
; private: unsigned long __thiscall CLKRLinearHashTable::_ApplyIf(enum LK_PREDICATE  (__stdcall*)(void const *,void *),enum LK_ACTION  (__stdcall*)(void const *,void *),void *,enum LK_LOCKTYPE,enum LK_PREDICATE &)
?_ApplyIf@CLKRLinearHashTable@@AAEKP6G?AW4LK_PREDICATE@@PBXPAX@ZP6G?AW4LK_ACTION@@01@Z1W4LK_LOCKTYPE@@AAW42@@Z
; private: class CLKRLinearHashTable::CBucket * __thiscall CLKRLinearHashTable::_Bucket(unsigned long)const 
?_Bucket@CLKRLinearHashTable@@ABEPAVCBucket@1@K@Z
; private: unsigned long __thiscall CLKRLinearHashTable::_BucketAddress(unsigned long)const 
?_BucketAddress@CLKRLinearHashTable@@ABEKK@Z
; private: unsigned long __thiscall CLKRHashTable::_CalcKeyHash(unsigned long)const 
?_CalcKeyHash@CLKRHashTable@@ABEKK@Z
; private: unsigned long __thiscall CLKRLinearHashTable::_CalcKeyHash(unsigned long)const 
?_CalcKeyHash@CLKRLinearHashTable@@ABEKK@Z
; private: void __thiscall CLKRLinearHashTable::_Clear(bool)
?_Clear@CLKRLinearHashTable@@AAEX_N@Z
; private: enum LK_RETCODE  __thiscall CLKRLinearHashTable::_CloseIterator(class CLKRLinearHashTable::CIterator *)
?_CloseIterator@CLKRLinearHashTable@@AAE?AW4LK_RETCODE@@PAVCIterator@1@@Z
; private: bool __thiscall CReaderWriterLock2::_CmpExch(long,long)
?_CmpExch@CReaderWriterLock2@@AAE_NJJ@Z
; private: bool __thiscall CReaderWriterLock3::_CmpExch(long,long)
?_CmpExch@CReaderWriterLock3@@AAE_NJJ@Z
; private: bool __thiscall CReaderWriterLock::_CmpExch(long,long)
?_CmpExch@CReaderWriterLock@@AAE_NJJ@Z
; private: enum LK_RETCODE  __thiscall CLKRLinearHashTable::_Contract(void)
?_Contract@CLKRLinearHashTable@@AAE?AW4LK_RETCODE@@XZ
; private: static long __stdcall CReaderWriterLock3::_CurrentThreadId(void)
?_CurrentThreadId@CReaderWriterLock3@@CGJXZ
; private: static long __stdcall CSmallSpinLock::_CurrentThreadId(void)
?_CurrentThreadId@CSmallSpinLock@@CGJXZ
; private: static long __stdcall CSpinLock::_CurrentThreadId(void)
?_CurrentThreadId@CSpinLock@@CGJXZ
; private: unsigned long __thiscall CLKRLinearHashTable::_DeleteIf(enum LK_PREDICATE  (__stdcall*)(void const *,void *),void *,enum LK_PREDICATE &)
?_DeleteIf@CLKRLinearHashTable@@AAEKP6G?AW4LK_PREDICATE@@PBXPAX@Z1AAW42@@Z
; private: enum LK_RETCODE  __thiscall CLKRLinearHashTable::_DeleteKey(unsigned long,unsigned long)
?_DeleteKey@CLKRLinearHashTable@@AAE?AW4LK_RETCODE@@KK@Z
; private: bool __thiscall CLKRLinearHashTable::_DeleteNode(class CLKRLinearHashTable::CBucket *,class CLKRLinearHashTable::CNodeClump * &,class CLKRLinearHashTable::CNodeClump * &,int &)
?_DeleteNode@CLKRLinearHashTable@@AAE_NPAVCBucket@1@AAPAVCNodeClump@1@1AAH@Z
; private: enum LK_RETCODE  __thiscall CLKRLinearHashTable::_DeleteRecord(void const *,unsigned long)
?_DeleteRecord@CLKRLinearHashTable@@AAE?AW4LK_RETCODE@@PBXK@Z
; private: bool __thiscall CLKRLinearHashTable::_EqualKeys(unsigned long,unsigned long)const 
?_EqualKeys@CLKRLinearHashTable@@ABE_NKK@Z
; private: enum LK_RETCODE  __thiscall CLKRLinearHashTable::_Expand(void)
?_Expand@CLKRLinearHashTable@@AAE?AW4LK_RETCODE@@XZ
; private: unsigned long const  __thiscall CLKRHashTable::_ExtractKey(void const *)const 
?_ExtractKey@CLKRHashTable@@ABE?BKPBX@Z
; private: unsigned long const  __thiscall CLKRLinearHashTable::_ExtractKey(void const *)const 
?_ExtractKey@CLKRLinearHashTable@@ABE?BKPBX@Z
; private: class CLKRLinearHashTable::CBucket * __thiscall CLKRLinearHashTable::_FindBucket(unsigned long,bool)const 
?_FindBucket@CLKRLinearHashTable@@ABEPAVCBucket@1@K_N@Z
; private: enum LK_RETCODE  __thiscall CLKRLinearHashTable::_FindKey(unsigned long,unsigned long,void const * *)const 
?_FindKey@CLKRLinearHashTable@@ABE?AW4LK_RETCODE@@KKPAPBX@Z
; private: enum LK_RETCODE  __thiscall CLKRLinearHashTable::_FindRecord(void const *,unsigned long)const 
?_FindRecord@CLKRLinearHashTable@@ABE?AW4LK_RETCODE@@PBXK@Z
; private: static bool __stdcall CLKRLinearHashTable::_FreeNodeClump(class CLKRLinearHashTable::CNodeClump *)
?_FreeNodeClump@CLKRLinearHashTable@@CG_NPAVCNodeClump@1@@Z
; private: bool __thiscall CLKRLinearHashTable::_FreeSegment(class CLKRLinearHashTable::CSegment *)const 
?_FreeSegment@CLKRLinearHashTable@@ABE_NPAVCSegment@1@@Z
; private: static bool __stdcall CLKRLinearHashTable::_FreeSegmentDirectory(class CLKRLinearHashTable::CDirEntry *)
?_FreeSegmentDirectory@CLKRLinearHashTable@@CG_NPAVCDirEntry@1@@Z
; private: static bool __stdcall CLKRHashTable::_FreeSubTable(class CLKRLinearHashTable *)
?_FreeSubTable@CLKRHashTable@@CG_NPAVCLKRLinearHashTable@@@Z
; private: static bool __stdcall CLKRHashTable::_FreeSubTableArray(class CLKRLinearHashTable * *)
?_FreeSubTableArray@CLKRHashTable@@CG_NPAPAVCLKRLinearHashTable@@@Z
; private: unsigned long __thiscall CLKRLinearHashTable::_H0(unsigned long)const 
?_H0@CLKRLinearHashTable@@ABEKK@Z
; private: static unsigned long __stdcall CLKRLinearHashTable::_H0(unsigned long,unsigned long)
?_H0@CLKRLinearHashTable@@CGKKK@Z
; private: unsigned long __thiscall CLKRLinearHashTable::_H1(unsigned long)const 
?_H1@CLKRLinearHashTable@@ABEKK@Z
; private: static unsigned long __stdcall CLKRLinearHashTable::_H1(unsigned long,unsigned long)
?_H1@CLKRLinearHashTable@@CGKKK@Z
; private: enum LK_RETCODE  __thiscall CLKRLinearHashTable::_Initialize(unsigned long const  (__stdcall*)(void const *),unsigned long (__stdcall*)(unsigned long),bool (__stdcall*)(unsigned long,unsigned long),void (__stdcall*)(void const *,int),char const *,double,unsigned long)
?_Initialize@CLKRLinearHashTable@@AAE?AW4LK_RETCODE@@P6G?BKPBX@ZP6GKK@ZP6G_NKK@ZP6GX0H@ZPBDNK@Z
; private: enum LK_RETCODE  __thiscall CLKRLinearHashTable::_InitializeIterator(class CLKRLinearHashTable::CIterator *)
?_InitializeIterator@CLKRLinearHashTable@@AAE?AW4LK_RETCODE@@PAVCIterator@1@@Z
; private: enum LK_RETCODE  __thiscall CLKRLinearHashTable::_InsertRecord(void const *,unsigned long,bool)
?_InsertRecord@CLKRLinearHashTable@@AAE?AW4LK_RETCODE@@PBXK_N@Z
; private: void __thiscall CLKRHashTable::_InsertThisIntoGlobalList(void)
?_InsertThisIntoGlobalList@CLKRHashTable@@AAEXXZ
; private: void __thiscall CLKRLinearHashTable::_InsertThisIntoGlobalList(void)
?_InsertThisIntoGlobalList@CLKRLinearHashTable@@AAEXXZ
; private: bool __thiscall CSpinLock::_IsLocked(void)const 
?_IsLocked@CSpinLock@@ABE_NXZ
; private: int __thiscall CLKRLinearHashTable::_IsNodeCompact(class CLKRLinearHashTable::CBucket * const)const 
?_IsNodeCompact@CLKRLinearHashTable@@ABEHQAVCBucket@1@@Z
; private: void __thiscall CSpinLock::_Lock(void)
?_Lock@CSpinLock@@AAEXXZ
; private: void __thiscall CReaderWriterLock2::_LockSpin(bool)
?_LockSpin@CReaderWriterLock2@@AAEX_N@Z
; private: void __thiscall CReaderWriterLock3::_LockSpin(enum CReaderWriterLock3::SPIN_TYPE)
?_LockSpin@CReaderWriterLock3@@AAEXW4SPIN_TYPE@1@@Z
; private: void __thiscall CReaderWriterLock::_LockSpin(bool)
?_LockSpin@CReaderWriterLock@@AAEX_N@Z
; private: void __thiscall CSmallSpinLock::_LockSpin(void)
?_LockSpin@CSmallSpinLock@@AAEXXZ
; private: void __thiscall CSpinLock::_LockSpin(void)
?_LockSpin@CSpinLock@@AAEXXZ
; private: enum LK_RETCODE  __thiscall CLKRLinearHashTable::_MergeRecordSets(class CLKRLinearHashTable::CBucket *,class CLKRLinearHashTable::CNodeClump *,class CLKRLinearHashTable::CNodeClump *)
?_MergeRecordSets@CLKRLinearHashTable@@AAE?AW4LK_RETCODE@@PAVCBucket@1@PAVCNodeClump@1@1@Z
; private: static enum LK_PREDICATE  __stdcall CLKRLinearHashTable::_PredTrue(void const *,void *)
?_PredTrue@CLKRLinearHashTable@@CG?AW4LK_PREDICATE@@PBXPAX@Z
; private: void __thiscall CReaderWriterLock2::_ReadLockSpin(void)
?_ReadLockSpin@CReaderWriterLock2@@AAEXXZ
; private: void __thiscall CReaderWriterLock3::_ReadLockSpin(enum CReaderWriterLock3::SPIN_TYPE)
?_ReadLockSpin@CReaderWriterLock3@@AAEXW4SPIN_TYPE@1@@Z
; private: void __thiscall CReaderWriterLock::_ReadLockSpin(void)
?_ReadLockSpin@CReaderWriterLock@@AAEXXZ
; private: bool __thiscall CLKRLinearHashTable::_ReadOrWriteLock(void)const 
?_ReadOrWriteLock@CLKRLinearHashTable@@ABE_NXZ
; private: void __thiscall CLKRLinearHashTable::_ReadOrWriteUnlock(bool)const 
?_ReadOrWriteUnlock@CLKRLinearHashTable@@ABEX_N@Z
; private: void __thiscall CLKRHashTable::_RemoveThisFromGlobalList(void)
?_RemoveThisFromGlobalList@CLKRHashTable@@AAEXXZ
; private: void __thiscall CLKRLinearHashTable::_RemoveThisFromGlobalList(void)
?_RemoveThisFromGlobalList@CLKRLinearHashTable@@AAEXXZ
; private: unsigned long __thiscall CLKRLinearHashTable::_SegIndex(unsigned long)const 
?_SegIndex@CLKRLinearHashTable@@ABEKK@Z
; private: class CLKRLinearHashTable::CSegment * & __thiscall CLKRLinearHashTable::_Segment(unsigned long)const 
?_Segment@CLKRLinearHashTable@@ABEAAPAVCSegment@1@K@Z
; private: void __thiscall CLKRLinearHashTable::_SetSegVars(enum LK_TABLESIZE)
?_SetSegVars@CLKRLinearHashTable@@AAEXW4LK_TABLESIZE@@@Z
; private: enum LK_RETCODE  __thiscall CLKRLinearHashTable::_SplitRecordSet(class CLKRLinearHashTable::CNodeClump *,class CLKRLinearHashTable::CNodeClump *,unsigned long,unsigned long,unsigned long,class CLKRLinearHashTable::CNodeClump *)
?_SplitRecordSet@CLKRLinearHashTable@@AAE?AW4LK_RETCODE@@PAVCNodeClump@1@0KKK0@Z
; private: class CLKRLinearHashTable * __thiscall CLKRHashTable::_SubTable(unsigned long)const 
?_SubTable@CLKRHashTable@@ABEPAVCLKRLinearHashTable@@K@Z
; private: bool __thiscall CSmallSpinLock::_TryLock(void)
?_TryLock@CSmallSpinLock@@AAE_NXZ
; private: bool __thiscall CSpinLock::_TryLock(void)
?_TryLock@CSpinLock@@AAE_NXZ
; private: bool __thiscall CReaderWriterLock2::_TryReadLock(void)
?_TryReadLock@CReaderWriterLock2@@AAE_NXZ
; private: bool __thiscall CReaderWriterLock3::_TryReadLock(void)
?_TryReadLock@CReaderWriterLock3@@AAE_NXZ
; private: bool __thiscall CReaderWriterLock::_TryReadLock(void)
?_TryReadLock@CReaderWriterLock@@AAE_NXZ
; private: bool __thiscall CReaderWriterLock3::_TryReadLockRecursive(void)
?_TryReadLockRecursive@CReaderWriterLock3@@AAE_NXZ
; private: bool __thiscall CReaderWriterLock3::_TryWriteLock2(void)
?_TryWriteLock2@CReaderWriterLock3@@AAE_NXZ
; private: bool __thiscall CReaderWriterLock2::_TryWriteLock(long)
?_TryWriteLock@CReaderWriterLock2@@AAE_NJ@Z
; private: bool __thiscall CReaderWriterLock3::_TryWriteLock(long)
?_TryWriteLock@CReaderWriterLock3@@AAE_NJ@Z
; private: bool __thiscall CReaderWriterLock::_TryWriteLock(void)
?_TryWriteLock@CReaderWriterLock@@AAE_NXZ
; private: void __thiscall CSpinLock::_Unlock(void)
?_Unlock@CSpinLock@@AAEXXZ
; private: void __thiscall CReaderWriterLock2::_WriteLockSpin(void)
?_WriteLockSpin@CReaderWriterLock2@@AAEXXZ
; private: void __thiscall CReaderWriterLock3::_WriteLockSpin(void)
?_WriteLockSpin@CReaderWriterLock3@@AAEXXZ
; private: void __thiscall CReaderWriterLock::_WriteLockSpin(void)
?_WriteLockSpin@CReaderWriterLock@@AAEXXZ
; private: long __thiscall CExFileOperation::_getFileSecurity(unsigned short const *)
?_getFileSecurity@CExFileOperation@@AAEJPBG@Z
; private: long __thiscall CExFileOperation::_setFileSecurity(unsigned short const *)
?_setFileSecurity@CExFileOperation@@AAEJPBG@Z
; public: int __thiscall CEXAutoBackupFile::fHaveBackup(void)
?fHaveBackup@CEXAutoBackupFile@@QAEHXZ
; long const * const  `public: static long const * __stdcall CLKRHashTableStats::BucketSizes(void)'::`2'::s_aBucketSizes
?s_aBucketSizes@?1??BucketSizes@CLKRHashTableStats@@SGPBJXZ@4QBJB
; protected: static double  CCritSec::sm_dblDfltSpinAdjFctr
?sm_dblDfltSpinAdjFctr@CCritSec@@1NA DATA
; protected: static double  CFakeLock::sm_dblDfltSpinAdjFctr
?sm_dblDfltSpinAdjFctr@CFakeLock@@1NA DATA
; protected: static double  CReaderWriterLock2::sm_dblDfltSpinAdjFctr
?sm_dblDfltSpinAdjFctr@CReaderWriterLock2@@1NA DATA
; protected: static double  CReaderWriterLock3::sm_dblDfltSpinAdjFctr
?sm_dblDfltSpinAdjFctr@CReaderWriterLock3@@1NA DATA
; protected: static double  CReaderWriterLock::sm_dblDfltSpinAdjFctr
?sm_dblDfltSpinAdjFctr@CReaderWriterLock@@1NA DATA
; protected: static double  CSmallSpinLock::sm_dblDfltSpinAdjFctr
?sm_dblDfltSpinAdjFctr@CSmallSpinLock@@1NA DATA
; protected: static double  CSpinLock::sm_dblDfltSpinAdjFctr
?sm_dblDfltSpinAdjFctr@CSpinLock@@1NA DATA
; private: static class CLockedDoubleList  CLKRHashTable::sm_llGlobalList
?sm_llGlobalList@CLKRHashTable@@0VCLockedDoubleList@@A DATA
; private: static class CLockedDoubleList  CLKRLinearHashTable::sm_llGlobalList
?sm_llGlobalList@CLKRLinearHashTable@@0VCLockedDoubleList@@A DATA
; private: static struct _OSVERSIONINFOW *  CMdVersionInfo::sm_lpOSVERSIONINFO
?sm_lpOSVERSIONINFO@CMdVersionInfo@@0PAU_OSVERSIONINFOW@@A DATA
; private: static unsigned long (__stdcall* CCriticalSection::sm_pfnSetCriticalSectionSpinCount)(struct _RTL_CRITICAL_SECTION *,unsigned long)
?sm_pfnSetCriticalSectionSpinCount@CCriticalSection@@0P6GKPAU_RTL_CRITICAL_SECTION@@K@ZA DATA
; private: static int (__stdcall* CCriticalSection::sm_pfnTryEnterCriticalSection)(struct _RTL_CRITICAL_SECTION *)
?sm_pfnTryEnterCriticalSection@CCriticalSection@@0P6GHPAU_RTL_CRITICAL_SECTION@@@ZA DATA
; protected: static unsigned short  CCritSec::sm_wDefaultSpinCount
?sm_wDefaultSpinCount@CCritSec@@1GA DATA
; protected: static unsigned short  CFakeLock::sm_wDefaultSpinCount
?sm_wDefaultSpinCount@CFakeLock@@1GA DATA
; protected: static unsigned short  CReaderWriterLock2::sm_wDefaultSpinCount
?sm_wDefaultSpinCount@CReaderWriterLock2@@1GA DATA
; protected: static unsigned short  CReaderWriterLock3::sm_wDefaultSpinCount
?sm_wDefaultSpinCount@CReaderWriterLock3@@1GA DATA
; protected: static unsigned short  CReaderWriterLock::sm_wDefaultSpinCount
?sm_wDefaultSpinCount@CReaderWriterLock@@1GA DATA
; protected: static unsigned short  CSmallSpinLock::sm_wDefaultSpinCount
?sm_wDefaultSpinCount@CSmallSpinLock@@1GA DATA
; protected: static unsigned short  CSpinLock::sm_wDefaultSpinCount
?sm_wDefaultSpinCount@CSpinLock@@1GA DATA
DllBidEntryPoint
_DllMain@12
FXMemAttach
FXMemDetach
GetIUMS
IrtlTrace
_IsValidAddress@12
_IsValidString@8
_LoadVersionedResourceEx@16
MPCSInitialize
MPCSUninitialize
MPDeleteCriticalSection
MPInitializeCriticalSection
MPInitializeCriticalSectionAndSpinCount
MpGetHeapHandle
MpHeapAlloc
MpHeapCreate
MpHeapDestroy
MpHeapFree
MpHeapReAlloc
MpHeapSize
MpHeapValidate
SetIUMS
SetMemHook
UMSEnterCSWraper
mpCalloc
mpFree
mpMalloc
mpRealloc
