; 
; Exports of file msvcp60.dll
;
; Autogenerated by gen_exportdef
; Written by Kai Tietz, 2007
;
LIBRARY msvcp60.dll
EXPORTS
; D@std::?$?5DU?$char_traits(@std@@YAAEAV?$basic_istream@DU?$char_traits@D@std@@@0@AEAV10@AEAC@Z)
??$?5DU?$char_traits@D@std@@@std@@YAAEAV?$basic_istream@DU?$char_traits@D@std@@@0@AEAV10@AEAC@Z
; D@std::?$?5DU?$char_traits(@std@@YAAEAV?$basic_istream@DU?$char_traits@D@std@@@0@AEAV10@AEAD@Z)
??$?5DU?$char_traits@D@std@@@std@@YAAEAV?$basic_istream@DU?$char_traits@D@std@@@0@AEAV10@AEAD@Z
; D@std::?$?5DU?$char_traits(@std@@YAAEAV?$basic_istream@DU?$char_traits@D@std@@@0@AEAV10@AEAE@Z)
??$?5DU?$char_traits@D@std@@@std@@YAAEAV?$basic_istream@DU?$char_traits@D@std@@@0@AEAV10@AEAE@Z
; D@std::?$?5DU?$char_traits(@std@@YAAEAV?$basic_istream@DU?$char_traits@D@std@@@0@AEAV10@PEAC@Z)
??$?5DU?$char_traits@D@std@@@std@@YAAEAV?$basic_istream@DU?$char_traits@D@std@@@0@AEAV10@PEAC@Z
; D@std::?$?5DU?$char_traits(@std@@YAAEAV?$basic_istream@DU?$char_traits@D@std@@@0@AEAV10@PEAD@Z)
??$?5DU?$char_traits@D@std@@@std@@YAAEAV?$basic_istream@DU?$char_traits@D@std@@@0@AEAV10@PEAD@Z
; D@std::?$?5DU?$char_traits(@std@@YAAEAV?$basic_istream@DU?$char_traits@D@std@@@0@AEAV10@PEAE@Z)
??$?5DU?$char_traits@D@std@@@std@@YAAEAV?$basic_istream@DU?$char_traits@D@std@@@0@AEAV10@PEAE@Z
; D@std::?$?5DU?$char_traits(M@std@@YAAEAV?$basic_istream@DU?$char_traits@D@std@@@0@AEAV10@AEAV?$complex@M@0@@Z)
??$?5DU?$char_traits@D@std@@M@std@@YAAEAV?$basic_istream@DU?$char_traits@D@std@@@0@AEAV10@AEAV?$complex@M@0@@Z
; D@std::?$?5DU?$char_traits(N@std@@YAAEAV?$basic_istream@DU?$char_traits@D@std@@@0@AEAV10@AEAV?$complex@N@0@@Z)
??$?5DU?$char_traits@D@std@@N@std@@YAAEAV?$basic_istream@DU?$char_traits@D@std@@@0@AEAV10@AEAV?$complex@N@0@@Z
; D@std::?$?5DU?$char_traits(O@std@@YAAEAV?$basic_istream@DU?$char_traits@D@std@@@0@AEAV10@AEAV?$complex@O@0@@Z)
??$?5DU?$char_traits@D@std@@O@std@@YAAEAV?$basic_istream@DU?$char_traits@D@std@@@0@AEAV10@AEAV?$complex@O@0@@Z
; D@std::?$?5DU?$char_traits(V?$allocator@D@1@@std@@YAAEAV?$basic_istream@DU?$char_traits@D@std@@@0@AEAV10@AEAV?$basic_string@DU?$char_traits@D@std@@V?$allocator@D@2@@0@@Z)
??$?5DU?$char_traits@D@std@@V?$allocator@D@1@@std@@YAAEAV?$basic_istream@DU?$char_traits@D@std@@@0@AEAV10@AEAV?$basic_string@DU?$char_traits@D@std@@V?$allocator@D@2@@0@@Z
; G@std::?$?5GU?$char_traits(@std@@YAAEAV?$basic_istream@GU?$char_traits@G@std@@@0@AEAV10@AEAG@Z)
??$?5GU?$char_traits@G@std@@@std@@YAAEAV?$basic_istream@GU?$char_traits@G@std@@@0@AEAV10@AEAG@Z
; G@std::?$?5GU?$char_traits(@std@@YAAEAV?$basic_istream@GU?$char_traits@G@std@@@0@AEAV10@PEAF@Z)
??$?5GU?$char_traits@G@std@@@std@@YAAEAV?$basic_istream@GU?$char_traits@G@std@@@0@AEAV10@PEAF@Z
; G@std::?$?5GU?$char_traits(@std@@YAAEAV?$basic_istream@GU?$char_traits@G@std@@@0@AEAV10@PEAG@Z)
??$?5GU?$char_traits@G@std@@@std@@YAAEAV?$basic_istream@GU?$char_traits@G@std@@@0@AEAV10@PEAG@Z
; G@std::?$?5GU?$char_traits(M@std@@YAAEAV?$basic_istream@GU?$char_traits@G@std@@@0@AEAV10@AEAV?$complex@M@0@@Z)
??$?5GU?$char_traits@G@std@@M@std@@YAAEAV?$basic_istream@GU?$char_traits@G@std@@@0@AEAV10@AEAV?$complex@M@0@@Z
; G@std::?$?5GU?$char_traits(N@std@@YAAEAV?$basic_istream@GU?$char_traits@G@std@@@0@AEAV10@AEAV?$complex@N@0@@Z)
??$?5GU?$char_traits@G@std@@N@std@@YAAEAV?$basic_istream@GU?$char_traits@G@std@@@0@AEAV10@AEAV?$complex@N@0@@Z
; G@std::?$?5GU?$char_traits(O@std@@YAAEAV?$basic_istream@GU?$char_traits@G@std@@@0@AEAV10@AEAV?$complex@O@0@@Z)
??$?5GU?$char_traits@G@std@@O@std@@YAAEAV?$basic_istream@GU?$char_traits@G@std@@@0@AEAV10@AEAV?$complex@O@0@@Z
; G@std::?$?5GU?$char_traits(V?$allocator@G@1@@std@@YAAEAV?$basic_istream@GU?$char_traits@G@std@@@0@AEAV10@AEAV?$basic_string@GU?$char_traits@G@std@@V?$allocator@G@2@@0@@Z)
??$?5GU?$char_traits@G@std@@V?$allocator@G@1@@std@@YAAEAV?$basic_istream@GU?$char_traits@G@std@@@0@AEAV10@AEAV?$basic_string@GU?$char_traits@G@std@@V?$allocator@G@2@@0@@Z
; D@std::?$?6DU?$char_traits(@std@@YAAEAV?$basic_ostream@DU?$char_traits@D@std@@@0@AEAV10@C@Z)
??$?6DU?$char_traits@D@std@@@std@@YAAEAV?$basic_ostream@DU?$char_traits@D@std@@@0@AEAV10@C@Z
; D@std::?$?6DU?$char_traits(@std@@YAAEAV?$basic_ostream@DU?$char_traits@D@std@@@0@AEAV10@D@Z)
??$?6DU?$char_traits@D@std@@@std@@YAAEAV?$basic_ostream@DU?$char_traits@D@std@@@0@AEAV10@D@Z
; D@std::?$?6DU?$char_traits(@std@@YAAEAV?$basic_ostream@DU?$char_traits@D@std@@@0@AEAV10@E@Z)
??$?6DU?$char_traits@D@std@@@std@@YAAEAV?$basic_ostream@DU?$char_traits@D@std@@@0@AEAV10@E@Z
; D@std::?$?6DU?$char_traits(@std@@YAAEAV?$basic_ostream@DU?$char_traits@D@std@@@0@AEAV10@PEBC@Z)
??$?6DU?$char_traits@D@std@@@std@@YAAEAV?$basic_ostream@DU?$char_traits@D@std@@@0@AEAV10@PEBC@Z
; D@std::?$?6DU?$char_traits(@std@@YAAEAV?$basic_ostream@DU?$char_traits@D@std@@@0@AEAV10@PEBD@Z)
??$?6DU?$char_traits@D@std@@@std@@YAAEAV?$basic_ostream@DU?$char_traits@D@std@@@0@AEAV10@PEBD@Z
; D@std::?$?6DU?$char_traits(@std@@YAAEAV?$basic_ostream@DU?$char_traits@D@std@@@0@AEAV10@PEBE@Z)
??$?6DU?$char_traits@D@std@@@std@@YAAEAV?$basic_ostream@DU?$char_traits@D@std@@@0@AEAV10@PEBE@Z
; D@std::?$?6DU?$char_traits(M@std@@YAAEAV?$basic_ostream@DU?$char_traits@D@std@@@0@AEAV10@AEBV?$complex@M@0@@Z)
??$?6DU?$char_traits@D@std@@M@std@@YAAEAV?$basic_ostream@DU?$char_traits@D@std@@@0@AEAV10@AEBV?$complex@M@0@@Z
; D@std::?$?6DU?$char_traits(N@std@@YAAEAV?$basic_ostream@DU?$char_traits@D@std@@@0@AEAV10@AEBV?$complex@N@0@@Z)
??$?6DU?$char_traits@D@std@@N@std@@YAAEAV?$basic_ostream@DU?$char_traits@D@std@@@0@AEAV10@AEBV?$complex@N@0@@Z
; D@std::?$?6DU?$char_traits(O@std@@YAAEAV?$basic_ostream@DU?$char_traits@D@std@@@0@AEAV10@AEBV?$complex@O@0@@Z)
??$?6DU?$char_traits@D@std@@O@std@@YAAEAV?$basic_ostream@DU?$char_traits@D@std@@@0@AEAV10@AEBV?$complex@O@0@@Z
; D@std::?$?6DU?$char_traits(V?$allocator@D@1@@std@@YAAEAV?$basic_ostream@DU?$char_traits@D@std@@@0@AEAV10@AEBV?$basic_string@DU?$char_traits@D@std@@V?$allocator@D@2@@0@@Z)
??$?6DU?$char_traits@D@std@@V?$allocator@D@1@@std@@YAAEAV?$basic_ostream@DU?$char_traits@D@std@@@0@AEAV10@AEBV?$basic_string@DU?$char_traits@D@std@@V?$allocator@D@2@@0@@Z
; G@std::?$?6GU?$char_traits(@std@@YAAEAV?$basic_ostream@GU?$char_traits@G@std@@@0@AEAV10@G@Z)
??$?6GU?$char_traits@G@std@@@std@@YAAEAV?$basic_ostream@GU?$char_traits@G@std@@@0@AEAV10@G@Z
; G@std::?$?6GU?$char_traits(@std@@YAAEAV?$basic_ostream@GU?$char_traits@G@std@@@0@AEAV10@PEBF@Z)
??$?6GU?$char_traits@G@std@@@std@@YAAEAV?$basic_ostream@GU?$char_traits@G@std@@@0@AEAV10@PEBF@Z
; G@std::?$?6GU?$char_traits(@std@@YAAEAV?$basic_ostream@GU?$char_traits@G@std@@@0@AEAV10@PEBG@Z)
??$?6GU?$char_traits@G@std@@@std@@YAAEAV?$basic_ostream@GU?$char_traits@G@std@@@0@AEAV10@PEBG@Z
; G@std::?$?6GU?$char_traits(M@std@@YAAEAV?$basic_ostream@GU?$char_traits@G@std@@@0@AEAV10@AEBV?$complex@M@0@@Z)
??$?6GU?$char_traits@G@std@@M@std@@YAAEAV?$basic_ostream@GU?$char_traits@G@std@@@0@AEAV10@AEBV?$complex@M@0@@Z
; G@std::?$?6GU?$char_traits(N@std@@YAAEAV?$basic_ostream@GU?$char_traits@G@std@@@0@AEAV10@AEBV?$complex@N@0@@Z)
??$?6GU?$char_traits@G@std@@N@std@@YAAEAV?$basic_ostream@GU?$char_traits@G@std@@@0@AEAV10@AEBV?$complex@N@0@@Z
; G@std::?$?6GU?$char_traits(O@std@@YAAEAV?$basic_ostream@GU?$char_traits@G@std@@@0@AEAV10@AEBV?$complex@O@0@@Z)
??$?6GU?$char_traits@G@std@@O@std@@YAAEAV?$basic_ostream@GU?$char_traits@G@std@@@0@AEAV10@AEBV?$complex@O@0@@Z
; G@std::?$?6GU?$char_traits(V?$allocator@G@1@@std@@YAAEAV?$basic_ostream@GU?$char_traits@G@std@@@0@AEAV10@AEBV?$basic_string@GU?$char_traits@G@std@@V?$allocator@G@2@@0@@Z)
??$?6GU?$char_traits@G@std@@V?$allocator@G@1@@std@@YAAEAV?$basic_ostream@GU?$char_traits@G@std@@@0@AEAV10@AEBV?$basic_string@GU?$char_traits@G@std@@V?$allocator@G@2@@0@@Z
; D@std::?$?8DU?$char_traits(V?$allocator@D@1@@std@@YA_NAEBV?$basic_string@DU?$char_traits@D@std@@V?$allocator@D@2@@0@0@Z)
??$?8DU?$char_traits@D@std@@V?$allocator@D@1@@std@@YA_NAEBV?$basic_string@DU?$char_traits@D@std@@V?$allocator@D@2@@0@0@Z
; D@std::?$?8DU?$char_traits(V?$allocator@D@1@@std@@YA_NAEBV?$basic_string@DU?$char_traits@D@std@@V?$allocator@D@2@@0@PEBD@Z)
??$?8DU?$char_traits@D@std@@V?$allocator@D@1@@std@@YA_NAEBV?$basic_string@DU?$char_traits@D@std@@V?$allocator@D@2@@0@PEBD@Z
; D@std::?$?8DU?$char_traits(V?$allocator@D@1@@std@@YA_NPEBDAEBV?$basic_string@DU?$char_traits@D@std@@V?$allocator@D@2@@0@@Z)
??$?8DU?$char_traits@D@std@@V?$allocator@D@1@@std@@YA_NPEBDAEBV?$basic_string@DU?$char_traits@D@std@@V?$allocator@D@2@@0@@Z
; G@std::?$?8GU?$char_traits(V?$allocator@G@1@@std@@YA_NAEBV?$basic_string@GU?$char_traits@G@std@@V?$allocator@G@2@@0@0@Z)
??$?8GU?$char_traits@G@std@@V?$allocator@G@1@@std@@YA_NAEBV?$basic_string@GU?$char_traits@G@std@@V?$allocator@G@2@@0@0@Z
; G@std::?$?8GU?$char_traits(V?$allocator@G@1@@std@@YA_NAEBV?$basic_string@GU?$char_traits@G@std@@V?$allocator@G@2@@0@PEBG@Z)
??$?8GU?$char_traits@G@std@@V?$allocator@G@1@@std@@YA_NAEBV?$basic_string@GU?$char_traits@G@std@@V?$allocator@G@2@@0@PEBG@Z
; G@std::?$?8GU?$char_traits(V?$allocator@G@1@@std@@YA_NPEBGAEBV?$basic_string@GU?$char_traits@G@std@@V?$allocator@G@2@@0@@Z)
??$?8GU?$char_traits@G@std@@V?$allocator@G@1@@std@@YA_NPEBGAEBV?$basic_string@GU?$char_traits@G@std@@V?$allocator@G@2@@0@@Z
; std::?$?8M(YA_NAEBMAEBV?$complex@M@0@@Z)
??$?8M@std@@YA_NAEBMAEBV?$complex@M@0@@Z
; std::?$?8M(YA_NAEBV?$complex@M@0@0@Z)
??$?8M@std@@YA_NAEBV?$complex@M@0@0@Z
; std::?$?8M(YA_NAEBV?$complex@M@0@AEBM@Z)
??$?8M@std@@YA_NAEBV?$complex@M@0@AEBM@Z
; std::?$?8N(YA_NAEBNAEBV?$complex@N@0@@Z)
??$?8N@std@@YA_NAEBNAEBV?$complex@N@0@@Z
; std::?$?8N(YA_NAEBV?$complex@N@0@0@Z)
??$?8N@std@@YA_NAEBV?$complex@N@0@0@Z
; std::?$?8N(YA_NAEBV?$complex@N@0@AEBN@Z)
??$?8N@std@@YA_NAEBV?$complex@N@0@AEBN@Z
; std::?$?8O(YA_NAEBOAEBV?$complex@O@0@@Z)
??$?8O@std@@YA_NAEBOAEBV?$complex@O@0@@Z
; std::?$?8O(YA_NAEBV?$complex@O@0@0@Z)
??$?8O@std@@YA_NAEBV?$complex@O@0@0@Z
; std::?$?8O(YA_NAEBV?$complex@O@0@AEBO@Z)
??$?8O@std@@YA_NAEBV?$complex@O@0@AEBO@Z
; D@std::?$?9DU?$char_traits(V?$allocator@D@1@@std@@YA_NAEBV?$basic_string@DU?$char_traits@D@std@@V?$allocator@D@2@@0@0@Z)
??$?9DU?$char_traits@D@std@@V?$allocator@D@1@@std@@YA_NAEBV?$basic_string@DU?$char_traits@D@std@@V?$allocator@D@2@@0@0@Z
; D@std::?$?9DU?$char_traits(V?$allocator@D@1@@std@@YA_NAEBV?$basic_string@DU?$char_traits@D@std@@V?$allocator@D@2@@0@PEBD@Z)
??$?9DU?$char_traits@D@std@@V?$allocator@D@1@@std@@YA_NAEBV?$basic_string@DU?$char_traits@D@std@@V?$allocator@D@2@@0@PEBD@Z
; D@std::?$?9DU?$char_traits(V?$allocator@D@1@@std@@YA_NPEBDAEBV?$basic_string@DU?$char_traits@D@std@@V?$allocator@D@2@@0@@Z)
??$?9DU?$char_traits@D@std@@V?$allocator@D@1@@std@@YA_NPEBDAEBV?$basic_string@DU?$char_traits@D@std@@V?$allocator@D@2@@0@@Z
; G@std::?$?9GU?$char_traits(V?$allocator@G@1@@std@@YA_NAEBV?$basic_string@GU?$char_traits@G@std@@V?$allocator@G@2@@0@0@Z)
??$?9GU?$char_traits@G@std@@V?$allocator@G@1@@std@@YA_NAEBV?$basic_string@GU?$char_traits@G@std@@V?$allocator@G@2@@0@0@Z
; G@std::?$?9GU?$char_traits(V?$allocator@G@1@@std@@YA_NAEBV?$basic_string@GU?$char_traits@G@std@@V?$allocator@G@2@@0@PEBG@Z)
??$?9GU?$char_traits@G@std@@V?$allocator@G@1@@std@@YA_NAEBV?$basic_string@GU?$char_traits@G@std@@V?$allocator@G@2@@0@PEBG@Z
; G@std::?$?9GU?$char_traits(V?$allocator@G@1@@std@@YA_NPEBGAEBV?$basic_string@GU?$char_traits@G@std@@V?$allocator@G@2@@0@@Z)
??$?9GU?$char_traits@G@std@@V?$allocator@G@1@@std@@YA_NPEBGAEBV?$basic_string@GU?$char_traits@G@std@@V?$allocator@G@2@@0@@Z
; std::?$?9M(YA_NAEBMAEBV?$complex@M@0@@Z)
??$?9M@std@@YA_NAEBMAEBV?$complex@M@0@@Z
; std::?$?9M(YA_NAEBV?$complex@M@0@0@Z)
??$?9M@std@@YA_NAEBV?$complex@M@0@0@Z
; std::?$?9M(YA_NAEBV?$complex@M@0@AEBM@Z)
??$?9M@std@@YA_NAEBV?$complex@M@0@AEBM@Z
; std::?$?9N(YA_NAEBNAEBV?$complex@N@0@@Z)
??$?9N@std@@YA_NAEBNAEBV?$complex@N@0@@Z
; std::?$?9N(YA_NAEBV?$complex@N@0@0@Z)
??$?9N@std@@YA_NAEBV?$complex@N@0@0@Z
; std::?$?9N(YA_NAEBV?$complex@N@0@AEBN@Z)
??$?9N@std@@YA_NAEBV?$complex@N@0@AEBN@Z
; std::?$?9O(YA_NAEBOAEBV?$complex@O@0@@Z)
??$?9O@std@@YA_NAEBOAEBV?$complex@O@0@@Z
; std::?$?9O(YA_NAEBV?$complex@O@0@0@Z)
??$?9O@std@@YA_NAEBV?$complex@O@0@0@Z
; std::?$?9O(YA_NAEBV?$complex@O@0@AEBO@Z)
??$?9O@std@@YA_NAEBV?$complex@O@0@AEBO@Z
; std::?$?DM(YA?AV?$complex@M@0@AEBMAEBV10@@Z)
??$?DM@std@@YA?AV?$complex@M@0@AEBMAEBV10@@Z
; std::?$?DM(YA?AV?$complex@M@0@AEBV10@0@Z)
??$?DM@std@@YA?AV?$complex@M@0@AEBV10@0@Z
; std::?$?DM(YA?AV?$complex@M@0@AEBV10@AEBM@Z)
??$?DM@std@@YA?AV?$complex@M@0@AEBV10@AEBM@Z
; std::?$?DN(YA?AV?$complex@N@0@AEBNAEBV10@@Z)
??$?DN@std@@YA?AV?$complex@N@0@AEBNAEBV10@@Z
; std::?$?DN(YA?AV?$complex@N@0@AEBV10@0@Z)
??$?DN@std@@YA?AV?$complex@N@0@AEBV10@0@Z
; std::?$?DN(YA?AV?$complex@N@0@AEBV10@AEBN@Z)
??$?DN@std@@YA?AV?$complex@N@0@AEBV10@AEBN@Z
; std::?$?DO(YA?AV?$complex@O@0@AEBOAEBV10@@Z)
??$?DO@std@@YA?AV?$complex@O@0@AEBOAEBV10@@Z
; std::?$?DO(YA?AV?$complex@O@0@AEBV10@0@Z)
??$?DO@std@@YA?AV?$complex@O@0@AEBV10@0@Z
; std::?$?DO(YA?AV?$complex@O@0@AEBV10@AEBO@Z)
??$?DO@std@@YA?AV?$complex@O@0@AEBV10@AEBO@Z
; std::?$?GM(YA?AV?$complex@M@0@AEBMAEBV10@@Z)
??$?GM@std@@YA?AV?$complex@M@0@AEBMAEBV10@@Z
; std::?$?GM(YA?AV?$complex@M@0@AEBV10@0@Z)
??$?GM@std@@YA?AV?$complex@M@0@AEBV10@0@Z
; std::?$?GM(YA?AV?$complex@M@0@AEBV10@@Z)
??$?GM@std@@YA?AV?$complex@M@0@AEBV10@@Z
; std::?$?GM(YA?AV?$complex@M@0@AEBV10@AEBM@Z)
??$?GM@std@@YA?AV?$complex@M@0@AEBV10@AEBM@Z
; std::?$?GN(YA?AV?$complex@N@0@AEBNAEBV10@@Z)
??$?GN@std@@YA?AV?$complex@N@0@AEBNAEBV10@@Z
; std::?$?GN(YA?AV?$complex@N@0@AEBV10@0@Z)
??$?GN@std@@YA?AV?$complex@N@0@AEBV10@0@Z
; std::?$?GN(YA?AV?$complex@N@0@AEBV10@@Z)
??$?GN@std@@YA?AV?$complex@N@0@AEBV10@@Z
; std::?$?GN(YA?AV?$complex@N@0@AEBV10@AEBN@Z)
??$?GN@std@@YA?AV?$complex@N@0@AEBV10@AEBN@Z
; std::?$?GO(YA?AV?$complex@O@0@AEBOAEBV10@@Z)
??$?GO@std@@YA?AV?$complex@O@0@AEBOAEBV10@@Z
; std::?$?GO(YA?AV?$complex@O@0@AEBV10@0@Z)
??$?GO@std@@YA?AV?$complex@O@0@AEBV10@0@Z
; std::?$?GO(YA?AV?$complex@O@0@AEBV10@@Z)
??$?GO@std@@YA?AV?$complex@O@0@AEBV10@@Z
; std::?$?GO(YA?AV?$complex@O@0@AEBV10@AEBO@Z)
??$?GO@std@@YA?AV?$complex@O@0@AEBV10@AEBO@Z
; D@std::?$?HDU?$char_traits(V?$allocator@D@1@@std@@YA?AV?$basic_string@DU?$char_traits@D@std@@V?$allocator@D@2@@0@AEBV10@0@Z)
??$?HDU?$char_traits@D@std@@V?$allocator@D@1@@std@@YA?AV?$basic_string@DU?$char_traits@D@std@@V?$allocator@D@2@@0@AEBV10@0@Z
; D@std::?$?HDU?$char_traits(V?$allocator@D@1@@std@@YA?AV?$basic_string@DU?$char_traits@D@std@@V?$allocator@D@2@@0@AEBV10@D@Z)
??$?HDU?$char_traits@D@std@@V?$allocator@D@1@@std@@YA?AV?$basic_string@DU?$char_traits@D@std@@V?$allocator@D@2@@0@AEBV10@D@Z
; D@std::?$?HDU?$char_traits(V?$allocator@D@1@@std@@YA?AV?$basic_string@DU?$char_traits@D@std@@V?$allocator@D@2@@0@AEBV10@PEBD@Z)
??$?HDU?$char_traits@D@std@@V?$allocator@D@1@@std@@YA?AV?$basic_string@DU?$char_traits@D@std@@V?$allocator@D@2@@0@AEBV10@PEBD@Z
; D@std::?$?HDU?$char_traits(V?$allocator@D@1@@std@@YA?AV?$basic_string@DU?$char_traits@D@std@@V?$allocator@D@2@@0@DAEBV10@@Z)
??$?HDU?$char_traits@D@std@@V?$allocator@D@1@@std@@YA?AV?$basic_string@DU?$char_traits@D@std@@V?$allocator@D@2@@0@DAEBV10@@Z
; D@std::?$?HDU?$char_traits(V?$allocator@D@1@@std@@YA?AV?$basic_string@DU?$char_traits@D@std@@V?$allocator@D@2@@0@PEBDAEBV10@@Z)
??$?HDU?$char_traits@D@std@@V?$allocator@D@1@@std@@YA?AV?$basic_string@DU?$char_traits@D@std@@V?$allocator@D@2@@0@PEBDAEBV10@@Z
; G@std::?$?HGU?$char_traits(V?$allocator@G@1@@std@@YA?AV?$basic_string@GU?$char_traits@G@std@@V?$allocator@G@2@@0@AEBV10@0@Z)
??$?HGU?$char_traits@G@std@@V?$allocator@G@1@@std@@YA?AV?$basic_string@GU?$char_traits@G@std@@V?$allocator@G@2@@0@AEBV10@0@Z
; G@std::?$?HGU?$char_traits(V?$allocator@G@1@@std@@YA?AV?$basic_string@GU?$char_traits@G@std@@V?$allocator@G@2@@0@AEBV10@G@Z)
??$?HGU?$char_traits@G@std@@V?$allocator@G@1@@std@@YA?AV?$basic_string@GU?$char_traits@G@std@@V?$allocator@G@2@@0@AEBV10@G@Z
; G@std::?$?HGU?$char_traits(V?$allocator@G@1@@std@@YA?AV?$basic_string@GU?$char_traits@G@std@@V?$allocator@G@2@@0@AEBV10@PEBG@Z)
??$?HGU?$char_traits@G@std@@V?$allocator@G@1@@std@@YA?AV?$basic_string@GU?$char_traits@G@std@@V?$allocator@G@2@@0@AEBV10@PEBG@Z
; G@std::?$?HGU?$char_traits(V?$allocator@G@1@@std@@YA?AV?$basic_string@GU?$char_traits@G@std@@V?$allocator@G@2@@0@GAEBV10@@Z)
??$?HGU?$char_traits@G@std@@V?$allocator@G@1@@std@@YA?AV?$basic_string@GU?$char_traits@G@std@@V?$allocator@G@2@@0@GAEBV10@@Z
; G@std::?$?HGU?$char_traits(V?$allocator@G@1@@std@@YA?AV?$basic_string@GU?$char_traits@G@std@@V?$allocator@G@2@@0@PEBGAEBV10@@Z)
??$?HGU?$char_traits@G@std@@V?$allocator@G@1@@std@@YA?AV?$basic_string@GU?$char_traits@G@std@@V?$allocator@G@2@@0@PEBGAEBV10@@Z
; std::?$?HM(YA?AV?$complex@M@0@AEBMAEBV10@@Z)
??$?HM@std@@YA?AV?$complex@M@0@AEBMAEBV10@@Z
; std::?$?HM(YA?AV?$complex@M@0@AEBV10@0@Z)
??$?HM@std@@YA?AV?$complex@M@0@AEBV10@0@Z
; std::?$?HM(YA?AV?$complex@M@0@AEBV10@@Z)
??$?HM@std@@YA?AV?$complex@M@0@AEBV10@@Z
; std::?$?HM(YA?AV?$complex@M@0@AEBV10@AEBM@Z)
??$?HM@std@@YA?AV?$complex@M@0@AEBV10@AEBM@Z
; std::?$?HN(YA?AV?$complex@N@0@AEBNAEBV10@@Z)
??$?HN@std@@YA?AV?$complex@N@0@AEBNAEBV10@@Z
; std::?$?HN(YA?AV?$complex@N@0@AEBV10@0@Z)
??$?HN@std@@YA?AV?$complex@N@0@AEBV10@0@Z
; std::?$?HN(YA?AV?$complex@N@0@AEBV10@@Z)
??$?HN@std@@YA?AV?$complex@N@0@AEBV10@@Z
; std::?$?HN(YA?AV?$complex@N@0@AEBV10@AEBN@Z)
??$?HN@std@@YA?AV?$complex@N@0@AEBV10@AEBN@Z
; std::?$?HO(YA?AV?$complex@O@0@AEBOAEBV10@@Z)
??$?HO@std@@YA?AV?$complex@O@0@AEBOAEBV10@@Z
; std::?$?HO(YA?AV?$complex@O@0@AEBV10@0@Z)
??$?HO@std@@YA?AV?$complex@O@0@AEBV10@0@Z
; std::?$?HO(YA?AV?$complex@O@0@AEBV10@@Z)
??$?HO@std@@YA?AV?$complex@O@0@AEBV10@@Z
; std::?$?HO(YA?AV?$complex@O@0@AEBV10@AEBO@Z)
??$?HO@std@@YA?AV?$complex@O@0@AEBV10@AEBO@Z
; std::?$?KM(YA?AV?$complex@M@0@AEBMAEBV10@@Z)
??$?KM@std@@YA?AV?$complex@M@0@AEBMAEBV10@@Z
; std::?$?KM(YA?AV?$complex@M@0@AEBV10@0@Z)
??$?KM@std@@YA?AV?$complex@M@0@AEBV10@0@Z
; std::?$?KM(YA?AV?$complex@M@0@AEBV10@AEBM@Z)
??$?KM@std@@YA?AV?$complex@M@0@AEBV10@AEBM@Z
; std::?$?KN(YA?AV?$complex@N@0@AEBNAEBV10@@Z)
??$?KN@std@@YA?AV?$complex@N@0@AEBNAEBV10@@Z
; std::?$?KN(YA?AV?$complex@N@0@AEBV10@0@Z)
??$?KN@std@@YA?AV?$complex@N@0@AEBV10@0@Z
; std::?$?KN(YA?AV?$complex@N@0@AEBV10@AEBN@Z)
??$?KN@std@@YA?AV?$complex@N@0@AEBV10@AEBN@Z
; std::?$?KO(YA?AV?$complex@O@0@AEBOAEBV10@@Z)
??$?KO@std@@YA?AV?$complex@O@0@AEBOAEBV10@@Z
; std::?$?KO(YA?AV?$complex@O@0@AEBV10@0@Z)
??$?KO@std@@YA?AV?$complex@O@0@AEBV10@0@Z
; std::?$?KO(YA?AV?$complex@O@0@AEBV10@AEBO@Z)
??$?KO@std@@YA?AV?$complex@O@0@AEBV10@AEBO@Z
; D@std::?$?MDU?$char_traits(V?$allocator@D@1@@std@@YA_NAEBV?$basic_string@DU?$char_traits@D@std@@V?$allocator@D@2@@0@0@Z)
??$?MDU?$char_traits@D@std@@V?$allocator@D@1@@std@@YA_NAEBV?$basic_string@DU?$char_traits@D@std@@V?$allocator@D@2@@0@0@Z
; D@std::?$?MDU?$char_traits(V?$allocator@D@1@@std@@YA_NAEBV?$basic_string@DU?$char_traits@D@std@@V?$allocator@D@2@@0@PEBD@Z)
??$?MDU?$char_traits@D@std@@V?$allocator@D@1@@std@@YA_NAEBV?$basic_string@DU?$char_traits@D@std@@V?$allocator@D@2@@0@PEBD@Z
; D@std::?$?MDU?$char_traits(V?$allocator@D@1@@std@@YA_NPEBDAEBV?$basic_string@DU?$char_traits@D@std@@V?$allocator@D@2@@0@@Z)
??$?MDU?$char_traits@D@std@@V?$allocator@D@1@@std@@YA_NPEBDAEBV?$basic_string@DU?$char_traits@D@std@@V?$allocator@D@2@@0@@Z
; G@std::?$?MGU?$char_traits(V?$allocator@G@1@@std@@YA_NAEBV?$basic_string@GU?$char_traits@G@std@@V?$allocator@G@2@@0@0@Z)
??$?MGU?$char_traits@G@std@@V?$allocator@G@1@@std@@YA_NAEBV?$basic_string@GU?$char_traits@G@std@@V?$allocator@G@2@@0@0@Z
; G@std::?$?MGU?$char_traits(V?$allocator@G@1@@std@@YA_NAEBV?$basic_string@GU?$char_traits@G@std@@V?$allocator@G@2@@0@PEBG@Z)
??$?MGU?$char_traits@G@std@@V?$allocator@G@1@@std@@YA_NAEBV?$basic_string@GU?$char_traits@G@std@@V?$allocator@G@2@@0@PEBG@Z
; G@std::?$?MGU?$char_traits(V?$allocator@G@1@@std@@YA_NPEBGAEBV?$basic_string@GU?$char_traits@G@std@@V?$allocator@G@2@@0@@Z)
??$?MGU?$char_traits@G@std@@V?$allocator@G@1@@std@@YA_NPEBGAEBV?$basic_string@GU?$char_traits@G@std@@V?$allocator@G@2@@0@@Z
; D@std::?$?NDU?$char_traits(V?$allocator@D@1@@std@@YA_NAEBV?$basic_string@DU?$char_traits@D@std@@V?$allocator@D@2@@0@0@Z)
??$?NDU?$char_traits@D@std@@V?$allocator@D@1@@std@@YA_NAEBV?$basic_string@DU?$char_traits@D@std@@V?$allocator@D@2@@0@0@Z
; D@std::?$?NDU?$char_traits(V?$allocator@D@1@@std@@YA_NAEBV?$basic_string@DU?$char_traits@D@std@@V?$allocator@D@2@@0@PEBD@Z)
??$?NDU?$char_traits@D@std@@V?$allocator@D@1@@std@@YA_NAEBV?$basic_string@DU?$char_traits@D@std@@V?$allocator@D@2@@0@PEBD@Z
; D@std::?$?NDU?$char_traits(V?$allocator@D@1@@std@@YA_NPEBDAEBV?$basic_string@DU?$char_traits@D@std@@V?$allocator@D@2@@0@@Z)
??$?NDU?$char_traits@D@std@@V?$allocator@D@1@@std@@YA_NPEBDAEBV?$basic_string@DU?$char_traits@D@std@@V?$allocator@D@2@@0@@Z
; G@std::?$?NGU?$char_traits(V?$allocator@G@1@@std@@YA_NAEBV?$basic_string@GU?$char_traits@G@std@@V?$allocator@G@2@@0@0@Z)
??$?NGU?$char_traits@G@std@@V?$allocator@G@1@@std@@YA_NAEBV?$basic_string@GU?$char_traits@G@std@@V?$allocator@G@2@@0@0@Z
; G@std::?$?NGU?$char_traits(V?$allocator@G@1@@std@@YA_NAEBV?$basic_string@GU?$char_traits@G@std@@V?$allocator@G@2@@0@PEBG@Z)
??$?NGU?$char_traits@G@std@@V?$allocator@G@1@@std@@YA_NAEBV?$basic_string@GU?$char_traits@G@std@@V?$allocator@G@2@@0@PEBG@Z
; G@std::?$?NGU?$char_traits(V?$allocator@G@1@@std@@YA_NPEBGAEBV?$basic_string@GU?$char_traits@G@std@@V?$allocator@G@2@@0@@Z)
??$?NGU?$char_traits@G@std@@V?$allocator@G@1@@std@@YA_NPEBGAEBV?$basic_string@GU?$char_traits@G@std@@V?$allocator@G@2@@0@@Z
; D@std::?$?ODU?$char_traits(V?$allocator@D@1@@std@@YA_NAEBV?$basic_string@DU?$char_traits@D@std@@V?$allocator@D@2@@0@0@Z)
??$?ODU?$char_traits@D@std@@V?$allocator@D@1@@std@@YA_NAEBV?$basic_string@DU?$char_traits@D@std@@V?$allocator@D@2@@0@0@Z
; D@std::?$?ODU?$char_traits(V?$allocator@D@1@@std@@YA_NAEBV?$basic_string@DU?$char_traits@D@std@@V?$allocator@D@2@@0@PEBD@Z)
??$?ODU?$char_traits@D@std@@V?$allocator@D@1@@std@@YA_NAEBV?$basic_string@DU?$char_traits@D@std@@V?$allocator@D@2@@0@PEBD@Z
; D@std::?$?ODU?$char_traits(V?$allocator@D@1@@std@@YA_NPEBDAEBV?$basic_string@DU?$char_traits@D@std@@V?$allocator@D@2@@0@@Z)
??$?ODU?$char_traits@D@std@@V?$allocator@D@1@@std@@YA_NPEBDAEBV?$basic_string@DU?$char_traits@D@std@@V?$allocator@D@2@@0@@Z
; G@std::?$?OGU?$char_traits(V?$allocator@G@1@@std@@YA_NAEBV?$basic_string@GU?$char_traits@G@std@@V?$allocator@G@2@@0@0@Z)
??$?OGU?$char_traits@G@std@@V?$allocator@G@1@@std@@YA_NAEBV?$basic_string@GU?$char_traits@G@std@@V?$allocator@G@2@@0@0@Z
; G@std::?$?OGU?$char_traits(V?$allocator@G@1@@std@@YA_NAEBV?$basic_string@GU?$char_traits@G@std@@V?$allocator@G@2@@0@PEBG@Z)
??$?OGU?$char_traits@G@std@@V?$allocator@G@1@@std@@YA_NAEBV?$basic_string@GU?$char_traits@G@std@@V?$allocator@G@2@@0@PEBG@Z
; G@std::?$?OGU?$char_traits(V?$allocator@G@1@@std@@YA_NPEBGAEBV?$basic_string@GU?$char_traits@G@std@@V?$allocator@G@2@@0@@Z)
??$?OGU?$char_traits@G@std@@V?$allocator@G@1@@std@@YA_NPEBGAEBV?$basic_string@GU?$char_traits@G@std@@V?$allocator@G@2@@0@@Z
; D@std::?$?PDU?$char_traits(V?$allocator@D@1@@std@@YA_NAEBV?$basic_string@DU?$char_traits@D@std@@V?$allocator@D@2@@0@0@Z)
??$?PDU?$char_traits@D@std@@V?$allocator@D@1@@std@@YA_NAEBV?$basic_string@DU?$char_traits@D@std@@V?$allocator@D@2@@0@0@Z
; D@std::?$?PDU?$char_traits(V?$allocator@D@1@@std@@YA_NAEBV?$basic_string@DU?$char_traits@D@std@@V?$allocator@D@2@@0@PEBD@Z)
??$?PDU?$char_traits@D@std@@V?$allocator@D@1@@std@@YA_NAEBV?$basic_string@DU?$char_traits@D@std@@V?$allocator@D@2@@0@PEBD@Z
; D@std::?$?PDU?$char_traits(V?$allocator@D@1@@std@@YA_NPEBDAEBV?$basic_string@DU?$char_traits@D@std@@V?$allocator@D@2@@0@@Z)
??$?PDU?$char_traits@D@std@@V?$allocator@D@1@@std@@YA_NPEBDAEBV?$basic_string@DU?$char_traits@D@std@@V?$allocator@D@2@@0@@Z
; G@std::?$?PGU?$char_traits(V?$allocator@G@1@@std@@YA_NAEBV?$basic_string@GU?$char_traits@G@std@@V?$allocator@G@2@@0@0@Z)
??$?PGU?$char_traits@G@std@@V?$allocator@G@1@@std@@YA_NAEBV?$basic_string@GU?$char_traits@G@std@@V?$allocator@G@2@@0@0@Z
; G@std::?$?PGU?$char_traits(V?$allocator@G@1@@std@@YA_NAEBV?$basic_string@GU?$char_traits@G@std@@V?$allocator@G@2@@0@PEBG@Z)
??$?PGU?$char_traits@G@std@@V?$allocator@G@1@@std@@YA_NAEBV?$basic_string@GU?$char_traits@G@std@@V?$allocator@G@2@@0@PEBG@Z
; G@std::?$?PGU?$char_traits(V?$allocator@G@1@@std@@YA_NPEBGAEBV?$basic_string@GU?$char_traits@G@std@@V?$allocator@G@2@@0@@Z)
??$?PGU?$char_traits@G@std@@V?$allocator@G@1@@std@@YA_NPEBGAEBV?$basic_string@GU?$char_traits@G@std@@V?$allocator@G@2@@0@@Z
; std::?$?XMM(YAAEAV?$complex@M@0@AEAV10@AEBV10@@Z)
??$?XMM@std@@YAAEAV?$complex@M@0@AEAV10@AEBV10@@Z
; std::?$?XNN(YAAEAV?$complex@N@0@AEAV10@AEBV10@@Z)
??$?XNN@std@@YAAEAV?$complex@N@0@AEAV10@AEBV10@@Z
; std::?$?XOO(YAAEAV?$complex@O@0@AEAV10@AEBV10@@Z)
??$?XOO@std@@YAAEAV?$complex@O@0@AEAV10@AEBV10@@Z
; std::?$?YMM(YAAEAV?$complex@M@0@AEAV10@AEBV10@@Z)
??$?YMM@std@@YAAEAV?$complex@M@0@AEAV10@AEBV10@@Z
; std::?$?YNN(YAAEAV?$complex@N@0@AEAV10@AEBV10@@Z)
??$?YNN@std@@YAAEAV?$complex@N@0@AEAV10@AEBV10@@Z
; std::?$?YOO(YAAEAV?$complex@O@0@AEAV10@AEBV10@@Z)
??$?YOO@std@@YAAEAV?$complex@O@0@AEAV10@AEBV10@@Z
; std::?$?ZMM(YAAEAV?$complex@M@0@AEAV10@AEBV10@@Z)
??$?ZMM@std@@YAAEAV?$complex@M@0@AEAV10@AEBV10@@Z
; std::?$?ZNN(YAAEAV?$complex@N@0@AEAV10@AEBV10@@Z)
??$?ZNN@std@@YAAEAV?$complex@N@0@AEAV10@AEBV10@@Z
; std::?$?ZOO(YAAEAV?$complex@O@0@AEAV10@AEBV10@@Z)
??$?ZOO@std@@YAAEAV?$complex@O@0@AEAV10@AEBV10@@Z
; std::?$?_0MM(YAAEAV?$complex@M@0@AEAV10@AEBV10@@Z)
??$?_0MM@std@@YAAEAV?$complex@M@0@AEAV10@AEBV10@@Z
; std::?$?_0NN(YAAEAV?$complex@N@0@AEAV10@AEBV10@@Z)
??$?_0NN@std@@YAAEAV?$complex@N@0@AEAV10@AEBV10@@Z
; std::?$?_0OO(YAAEAV?$complex@O@0@AEAV10@AEBV10@@Z)
??$?_0OO@std@@YAAEAV?$complex@O@0@AEAV10@AEBV10@@Z
; M@std::?$_Fabs(YAMAEBV?$complex@M@0@PEAH@Z)
??$_Fabs@M@std@@YAMAEBV?$complex@M@0@PEAH@Z
; M@std::?$_Fabs(YAMAEBV?$complex@M@1@PEAH@Z)
??$_Fabs@M@std@@YAMAEBV?$complex@M@1@PEAH@Z
; N@std::?$_Fabs(YANAEBV?$complex@N@0@PEAH@Z)
??$_Fabs@N@std@@YANAEBV?$complex@N@0@PEAH@Z
; N@std::?$_Fabs(YANAEBV?$complex@N@1@PEAH@Z)
??$_Fabs@N@std@@YANAEBV?$complex@N@1@PEAH@Z
; O@std::?$_Fabs(YAOAEBV?$complex@O@0@PEAH@Z)
??$_Fabs@O@std@@YAOAEBV?$complex@O@0@PEAH@Z
; O@std::?$_Fabs(YAOAEBV?$complex@O@1@PEAH@Z)
??$_Fabs@O@std@@YAOAEBV?$complex@O@1@PEAH@Z
; M@std::?$abs(YAMAEBV?$complex@M@0@@Z)
??$abs@M@std@@YAMAEBV?$complex@M@0@@Z
; M@std::?$abs(YAMAEBV?$complex@M@1@@Z)
??$abs@M@std@@YAMAEBV?$complex@M@1@@Z
; N@std::?$abs(YANAEBV?$complex@N@0@@Z)
??$abs@N@std@@YANAEBV?$complex@N@0@@Z
; N@std::?$abs(YANAEBV?$complex@N@1@@Z)
??$abs@N@std@@YANAEBV?$complex@N@1@@Z
; O@std::?$abs(YAOAEBV?$complex@O@0@@Z)
??$abs@O@std@@YAOAEBV?$complex@O@0@@Z
; O@std::?$abs(YAOAEBV?$complex@O@1@@Z)
??$abs@O@std@@YAOAEBV?$complex@O@1@@Z
; M@std::?$arg(YAMAEBV?$complex@M@0@@Z)
??$arg@M@std@@YAMAEBV?$complex@M@0@@Z
; M@std::?$arg(YAMAEBV?$complex@M@1@@Z)
??$arg@M@std@@YAMAEBV?$complex@M@1@@Z
; N@std::?$arg(YANAEBV?$complex@N@0@@Z)
??$arg@N@std@@YANAEBV?$complex@N@0@@Z
; N@std::?$arg(YANAEBV?$complex@N@1@@Z)
??$arg@N@std@@YANAEBV?$complex@N@1@@Z
; O@std::?$arg(YAOAEBV?$complex@O@0@@Z)
??$arg@O@std@@YAOAEBV?$complex@O@0@@Z
; O@std::?$arg(YAOAEBV?$complex@O@1@@Z)
??$arg@O@std@@YAOAEBV?$complex@O@1@@Z
; M@std::?$conj(YA?AV?$complex@M@0@AEBV10@@Z)
??$conj@M@std@@YA?AV?$complex@M@0@AEBV10@@Z
; M@std::?$conj(YA?AV?$complex@M@1@AEBV21@@Z)
??$conj@M@std@@YA?AV?$complex@M@1@AEBV21@@Z
; N@std::?$conj(YA?AV?$complex@N@0@AEBV10@@Z)
??$conj@N@std@@YA?AV?$complex@N@0@AEBV10@@Z
; N@std::?$conj(YA?AV?$complex@N@1@AEBV21@@Z)
??$conj@N@std@@YA?AV?$complex@N@1@AEBV21@@Z
; O@std::?$conj(YA?AV?$complex@O@0@AEBV10@@Z)
??$conj@O@std@@YA?AV?$complex@O@0@AEBV10@@Z
; O@std::?$conj(YA?AV?$complex@O@1@AEBV21@@Z)
??$conj@O@std@@YA?AV?$complex@O@1@AEBV21@@Z
; M@std::?$cos(YA?AV?$complex@M@0@AEBV10@@Z)
??$cos@M@std@@YA?AV?$complex@M@0@AEBV10@@Z
; M@std::?$cos(YA?AV?$complex@M@1@AEBV21@@Z)
??$cos@M@std@@YA?AV?$complex@M@1@AEBV21@@Z
; N@std::?$cos(YA?AV?$complex@N@0@AEBV10@@Z)
??$cos@N@std@@YA?AV?$complex@N@0@AEBV10@@Z
; N@std::?$cos(YA?AV?$complex@N@1@AEBV21@@Z)
??$cos@N@std@@YA?AV?$complex@N@1@AEBV21@@Z
; O@std::?$cos(YA?AV?$complex@O@0@AEBV10@@Z)
??$cos@O@std@@YA?AV?$complex@O@0@AEBV10@@Z
; O@std::?$cos(YA?AV?$complex@O@1@AEBV21@@Z)
??$cos@O@std@@YA?AV?$complex@O@1@AEBV21@@Z
; M@std::?$cosh(YA?AV?$complex@M@0@AEBV10@@Z)
??$cosh@M@std@@YA?AV?$complex@M@0@AEBV10@@Z
; M@std::?$cosh(YA?AV?$complex@M@1@AEBV21@@Z)
??$cosh@M@std@@YA?AV?$complex@M@1@AEBV21@@Z
; N@std::?$cosh(YA?AV?$complex@N@0@AEBV10@@Z)
??$cosh@N@std@@YA?AV?$complex@N@0@AEBV10@@Z
; N@std::?$cosh(YA?AV?$complex@N@1@AEBV21@@Z)
??$cosh@N@std@@YA?AV?$complex@N@1@AEBV21@@Z
; O@std::?$cosh(YA?AV?$complex@O@0@AEBV10@@Z)
??$cosh@O@std@@YA?AV?$complex@O@0@AEBV10@@Z
; O@std::?$cosh(YA?AV?$complex@O@1@AEBV21@@Z)
??$cosh@O@std@@YA?AV?$complex@O@1@AEBV21@@Z
; M@std::?$exp(YA?AV?$complex@M@0@AEBV10@@Z)
??$exp@M@std@@YA?AV?$complex@M@0@AEBV10@@Z
; M@std::?$exp(YA?AV?$complex@M@1@AEBV21@@Z)
??$exp@M@std@@YA?AV?$complex@M@1@AEBV21@@Z
; N@std::?$exp(YA?AV?$complex@N@0@AEBV10@@Z)
??$exp@N@std@@YA?AV?$complex@N@0@AEBV10@@Z
; N@std::?$exp(YA?AV?$complex@N@1@AEBV21@@Z)
??$exp@N@std@@YA?AV?$complex@N@1@AEBV21@@Z
; O@std::?$exp(YA?AV?$complex@O@0@AEBV10@@Z)
??$exp@O@std@@YA?AV?$complex@O@0@AEBV10@@Z
; O@std::?$exp(YA?AV?$complex@O@1@AEBV21@@Z)
??$exp@O@std@@YA?AV?$complex@O@1@AEBV21@@Z
; DU?$char_traits@D@std::?$getline(V?$allocator@D@2@@std@@YAAEAV?$basic_istream@DU?$char_traits@D@std@@@0@AEAV10@AEAV?$basic_string@DU?$char_traits@D@std@@V?$allocator@D@2@@0@@Z)
??$getline@DU?$char_traits@D@std@@V?$allocator@D@2@@std@@YAAEAV?$basic_istream@DU?$char_traits@D@std@@@0@AEAV10@AEAV?$basic_string@DU?$char_traits@D@std@@V?$allocator@D@2@@0@@Z
; DU?$char_traits@D@std::?$getline(V?$allocator@D@2@@std@@YAAEAV?$basic_istream@DU?$char_traits@D@std@@@0@AEAV10@AEAV?$basic_string@DU?$char_traits@D@std@@V?$allocator@D@2@@0@D@Z)
??$getline@DU?$char_traits@D@std@@V?$allocator@D@2@@std@@YAAEAV?$basic_istream@DU?$char_traits@D@std@@@0@AEAV10@AEAV?$basic_string@DU?$char_traits@D@std@@V?$allocator@D@2@@0@D@Z
; DU?$char_traits@D@std::?$getline(V?$allocator@D@2@@std@@YAAEAV?$basic_istream@DU?$char_traits@D@std@@@1@AEAV21@AEAV?$basic_string@DU?$char_traits@D@std@@V?$allocator@D@2@@1@@Z)
??$getline@DU?$char_traits@D@std@@V?$allocator@D@2@@std@@YAAEAV?$basic_istream@DU?$char_traits@D@std@@@1@AEAV21@AEAV?$basic_string@DU?$char_traits@D@std@@V?$allocator@D@2@@1@@Z
; DU?$char_traits@D@std::?$getline(V?$allocator@D@2@@std@@YAAEAV?$basic_istream@DU?$char_traits@D@std@@@1@AEAV21@AEAV?$basic_string@DU?$char_traits@D@std@@V?$allocator@D@2@@1@D@Z)
??$getline@DU?$char_traits@D@std@@V?$allocator@D@2@@std@@YAAEAV?$basic_istream@DU?$char_traits@D@std@@@1@AEAV21@AEAV?$basic_string@DU?$char_traits@D@std@@V?$allocator@D@2@@1@D@Z
; GU?$char_traits@G@std::?$getline(V?$allocator@G@2@@std@@YAAEAV?$basic_istream@GU?$char_traits@G@std@@@0@AEAV10@AEAV?$basic_string@GU?$char_traits@G@std@@V?$allocator@G@2@@0@@Z)
??$getline@GU?$char_traits@G@std@@V?$allocator@G@2@@std@@YAAEAV?$basic_istream@GU?$char_traits@G@std@@@0@AEAV10@AEAV?$basic_string@GU?$char_traits@G@std@@V?$allocator@G@2@@0@@Z
; GU?$char_traits@G@std::?$getline(V?$allocator@G@2@@std@@YAAEAV?$basic_istream@GU?$char_traits@G@std@@@0@AEAV10@AEAV?$basic_string@GU?$char_traits@G@std@@V?$allocator@G@2@@0@G@Z)
??$getline@GU?$char_traits@G@std@@V?$allocator@G@2@@std@@YAAEAV?$basic_istream@GU?$char_traits@G@std@@@0@AEAV10@AEAV?$basic_string@GU?$char_traits@G@std@@V?$allocator@G@2@@0@G@Z
; GU?$char_traits@G@std::?$getline(V?$allocator@G@2@@std@@YAAEAV?$basic_istream@GU?$char_traits@G@std@@@1@AEAV21@AEAV?$basic_string@GU?$char_traits@G@std@@V?$allocator@G@2@@1@@Z)
??$getline@GU?$char_traits@G@std@@V?$allocator@G@2@@std@@YAAEAV?$basic_istream@GU?$char_traits@G@std@@@1@AEAV21@AEAV?$basic_string@GU?$char_traits@G@std@@V?$allocator@G@2@@1@@Z
; GU?$char_traits@G@std::?$getline(V?$allocator@G@2@@std@@YAAEAV?$basic_istream@GU?$char_traits@G@std@@@1@AEAV21@AEAV?$basic_string@GU?$char_traits@G@std@@V?$allocator@G@2@@1@G@Z)
??$getline@GU?$char_traits@G@std@@V?$allocator@G@2@@std@@YAAEAV?$basic_istream@GU?$char_traits@G@std@@@1@AEAV21@AEAV?$basic_string@GU?$char_traits@G@std@@V?$allocator@G@2@@1@G@Z
; M@std::?$imag(YAMAEBV?$complex@M@0@@Z)
??$imag@M@std@@YAMAEBV?$complex@M@0@@Z
; M@std::?$imag(YAMAEBV?$complex@M@1@@Z)
??$imag@M@std@@YAMAEBV?$complex@M@1@@Z
; N@std::?$imag(YANAEBV?$complex@N@0@@Z)
??$imag@N@std@@YANAEBV?$complex@N@0@@Z
; N@std::?$imag(YANAEBV?$complex@N@1@@Z)
??$imag@N@std@@YANAEBV?$complex@N@1@@Z
; O@std::?$imag(YAOAEBV?$complex@O@0@@Z)
??$imag@O@std@@YAOAEBV?$complex@O@0@@Z
; O@std::?$imag(YAOAEBV?$complex@O@1@@Z)
??$imag@O@std@@YAOAEBV?$complex@O@1@@Z
; M@std::?$log10(YA?AV?$complex@M@0@AEBV10@@Z)
??$log10@M@std@@YA?AV?$complex@M@0@AEBV10@@Z
; M@std::?$log10(YA?AV?$complex@M@1@AEBV21@@Z)
??$log10@M@std@@YA?AV?$complex@M@1@AEBV21@@Z
; N@std::?$log10(YA?AV?$complex@N@0@AEBV10@@Z)
??$log10@N@std@@YA?AV?$complex@N@0@AEBV10@@Z
; N@std::?$log10(YA?AV?$complex@N@1@AEBV21@@Z)
??$log10@N@std@@YA?AV?$complex@N@1@AEBV21@@Z
; O@std::?$log10(YA?AV?$complex@O@0@AEBV10@@Z)
??$log10@O@std@@YA?AV?$complex@O@0@AEBV10@@Z
; O@std::?$log10(YA?AV?$complex@O@1@AEBV21@@Z)
??$log10@O@std@@YA?AV?$complex@O@1@AEBV21@@Z
; M@std::?$log(YA?AV?$complex@M@0@AEBV10@@Z)
??$log@M@std@@YA?AV?$complex@M@0@AEBV10@@Z
; M@std::?$log(YA?AV?$complex@M@1@AEBV21@@Z)
??$log@M@std@@YA?AV?$complex@M@1@AEBV21@@Z
; N@std::?$log(YA?AV?$complex@N@0@AEBV10@@Z)
??$log@N@std@@YA?AV?$complex@N@0@AEBV10@@Z
; N@std::?$log(YA?AV?$complex@N@1@AEBV21@@Z)
??$log@N@std@@YA?AV?$complex@N@1@AEBV21@@Z
; O@std::?$log(YA?AV?$complex@O@0@AEBV10@@Z)
??$log@O@std@@YA?AV?$complex@O@0@AEBV10@@Z
; O@std::?$log(YA?AV?$complex@O@1@AEBV21@@Z)
??$log@O@std@@YA?AV?$complex@O@1@AEBV21@@Z
; M@std::?$norm(YAMAEBV?$complex@M@0@@Z)
??$norm@M@std@@YAMAEBV?$complex@M@0@@Z
; M@std::?$norm(YAMAEBV?$complex@M@1@@Z)
??$norm@M@std@@YAMAEBV?$complex@M@1@@Z
; N@std::?$norm(YANAEBV?$complex@N@0@@Z)
??$norm@N@std@@YANAEBV?$complex@N@0@@Z
; N@std::?$norm(YANAEBV?$complex@N@1@@Z)
??$norm@N@std@@YANAEBV?$complex@N@1@@Z
; O@std::?$norm(YAOAEBV?$complex@O@0@@Z)
??$norm@O@std@@YAOAEBV?$complex@O@0@@Z
; O@std::?$norm(YAOAEBV?$complex@O@1@@Z)
??$norm@O@std@@YAOAEBV?$complex@O@1@@Z
; M@std::?$polar(YA?AV?$complex@M@0@AEBM0@Z)
??$polar@M@std@@YA?AV?$complex@M@0@AEBM0@Z
; M@std::?$polar(YA?AV?$complex@M@0@AEBM@Z)
??$polar@M@std@@YA?AV?$complex@M@0@AEBM@Z
; M@std::?$polar(YA?AV?$complex@M@1@AEBM0@Z)
??$polar@M@std@@YA?AV?$complex@M@1@AEBM0@Z
; M@std::?$polar(YA?AV?$complex@M@1@AEBM@Z)
??$polar@M@std@@YA?AV?$complex@M@1@AEBM@Z
; N@std::?$polar(YA?AV?$complex@N@0@AEBN0@Z)
??$polar@N@std@@YA?AV?$complex@N@0@AEBN0@Z
; N@std::?$polar(YA?AV?$complex@N@0@AEBN@Z)
??$polar@N@std@@YA?AV?$complex@N@0@AEBN@Z
; N@std::?$polar(YA?AV?$complex@N@1@AEBN0@Z)
??$polar@N@std@@YA?AV?$complex@N@1@AEBN0@Z
; N@std::?$polar(YA?AV?$complex@N@1@AEBN@Z)
??$polar@N@std@@YA?AV?$complex@N@1@AEBN@Z
; O@std::?$polar(YA?AV?$complex@O@0@AEBO0@Z)
??$polar@O@std@@YA?AV?$complex@O@0@AEBO0@Z
; O@std::?$polar(YA?AV?$complex@O@0@AEBO@Z)
??$polar@O@std@@YA?AV?$complex@O@0@AEBO@Z
; O@std::?$polar(YA?AV?$complex@O@1@AEBO0@Z)
??$polar@O@std@@YA?AV?$complex@O@1@AEBO0@Z
; O@std::?$polar(YA?AV?$complex@O@1@AEBO@Z)
??$polar@O@std@@YA?AV?$complex@O@1@AEBO@Z
; M@std::?$pow(YA?AV?$complex@M@0@AEBMAEBV10@@Z)
??$pow@M@std@@YA?AV?$complex@M@0@AEBMAEBV10@@Z
; M@std::?$pow(YA?AV?$complex@M@0@AEBV10@0@Z)
??$pow@M@std@@YA?AV?$complex@M@0@AEBV10@0@Z
; M@std::?$pow(YA?AV?$complex@M@0@AEBV10@AEBM@Z)
??$pow@M@std@@YA?AV?$complex@M@0@AEBV10@AEBM@Z
; M@std::?$pow(YA?AV?$complex@M@0@AEBV10@H@Z)
??$pow@M@std@@YA?AV?$complex@M@0@AEBV10@H@Z
; M@std::?$pow(YA?AV?$complex@M@1@AEBMAEBV21@@Z)
??$pow@M@std@@YA?AV?$complex@M@1@AEBMAEBV21@@Z
; M@std::?$pow(YA?AV?$complex@M@1@AEBV21@0@Z)
??$pow@M@std@@YA?AV?$complex@M@1@AEBV21@0@Z
; M@std::?$pow(YA?AV?$complex@M@1@AEBV21@AEBM@Z)
??$pow@M@std@@YA?AV?$complex@M@1@AEBV21@AEBM@Z
; M@std::?$pow(YA?AV?$complex@M@1@AEBV21@H@Z)
??$pow@M@std@@YA?AV?$complex@M@1@AEBV21@H@Z
; N@std::?$pow(YA?AV?$complex@N@0@AEBNAEBV10@@Z)
??$pow@N@std@@YA?AV?$complex@N@0@AEBNAEBV10@@Z
; N@std::?$pow(YA?AV?$complex@N@0@AEBV10@0@Z)
??$pow@N@std@@YA?AV?$complex@N@0@AEBV10@0@Z
; N@std::?$pow(YA?AV?$complex@N@0@AEBV10@AEBN@Z)
??$pow@N@std@@YA?AV?$complex@N@0@AEBV10@AEBN@Z
; N@std::?$pow(YA?AV?$complex@N@0@AEBV10@H@Z)
??$pow@N@std@@YA?AV?$complex@N@0@AEBV10@H@Z
; N@std::?$pow(YA?AV?$complex@N@1@AEBNAEBV21@@Z)
??$pow@N@std@@YA?AV?$complex@N@1@AEBNAEBV21@@Z
; N@std::?$pow(YA?AV?$complex@N@1@AEBV21@0@Z)
??$pow@N@std@@YA?AV?$complex@N@1@AEBV21@0@Z
; N@std::?$pow(YA?AV?$complex@N@1@AEBV21@AEBN@Z)
??$pow@N@std@@YA?AV?$complex@N@1@AEBV21@AEBN@Z
; N@std::?$pow(YA?AV?$complex@N@1@AEBV21@H@Z)
??$pow@N@std@@YA?AV?$complex@N@1@AEBV21@H@Z
; O@std::?$pow(YA?AV?$complex@O@0@AEBOAEBV10@@Z)
??$pow@O@std@@YA?AV?$complex@O@0@AEBOAEBV10@@Z
; O@std::?$pow(YA?AV?$complex@O@0@AEBV10@0@Z)
??$pow@O@std@@YA?AV?$complex@O@0@AEBV10@0@Z
; O@std::?$pow(YA?AV?$complex@O@0@AEBV10@AEBO@Z)
??$pow@O@std@@YA?AV?$complex@O@0@AEBV10@AEBO@Z
; O@std::?$pow(YA?AV?$complex@O@0@AEBV10@H@Z)
??$pow@O@std@@YA?AV?$complex@O@0@AEBV10@H@Z
; O@std::?$pow(YA?AV?$complex@O@1@AEBOAEBV21@@Z)
??$pow@O@std@@YA?AV?$complex@O@1@AEBOAEBV21@@Z
; O@std::?$pow(YA?AV?$complex@O@1@AEBV21@0@Z)
??$pow@O@std@@YA?AV?$complex@O@1@AEBV21@0@Z
; O@std::?$pow(YA?AV?$complex@O@1@AEBV21@AEBO@Z)
??$pow@O@std@@YA?AV?$complex@O@1@AEBV21@AEBO@Z
; O@std::?$pow(YA?AV?$complex@O@1@AEBV21@H@Z)
??$pow@O@std@@YA?AV?$complex@O@1@AEBV21@H@Z
; M@std::?$real(YAMAEBV?$complex@M@0@@Z)
??$real@M@std@@YAMAEBV?$complex@M@0@@Z
; M@std::?$real(YAMAEBV?$complex@M@1@@Z)
??$real@M@std@@YAMAEBV?$complex@M@1@@Z
; N@std::?$real(YANAEBV?$complex@N@0@@Z)
??$real@N@std@@YANAEBV?$complex@N@0@@Z
; N@std::?$real(YANAEBV?$complex@N@1@@Z)
??$real@N@std@@YANAEBV?$complex@N@1@@Z
; O@std::?$real(YAOAEBV?$complex@O@0@@Z)
??$real@O@std@@YAOAEBV?$complex@O@0@@Z
; O@std::?$real(YAOAEBV?$complex@O@1@@Z)
??$real@O@std@@YAOAEBV?$complex@O@1@@Z
; M@std::?$sin(YA?AV?$complex@M@0@AEBV10@@Z)
??$sin@M@std@@YA?AV?$complex@M@0@AEBV10@@Z
; M@std::?$sin(YA?AV?$complex@M@1@AEBV21@@Z)
??$sin@M@std@@YA?AV?$complex@M@1@AEBV21@@Z
; N@std::?$sin(YA?AV?$complex@N@0@AEBV10@@Z)
??$sin@N@std@@YA?AV?$complex@N@0@AEBV10@@Z
; N@std::?$sin(YA?AV?$complex@N@1@AEBV21@@Z)
??$sin@N@std@@YA?AV?$complex@N@1@AEBV21@@Z
; O@std::?$sin(YA?AV?$complex@O@0@AEBV10@@Z)
??$sin@O@std@@YA?AV?$complex@O@0@AEBV10@@Z
; O@std::?$sin(YA?AV?$complex@O@1@AEBV21@@Z)
??$sin@O@std@@YA?AV?$complex@O@1@AEBV21@@Z
; M@std::?$sinh(YA?AV?$complex@M@0@AEBV10@@Z)
??$sinh@M@std@@YA?AV?$complex@M@0@AEBV10@@Z
; M@std::?$sinh(YA?AV?$complex@M@1@AEBV21@@Z)
??$sinh@M@std@@YA?AV?$complex@M@1@AEBV21@@Z
; N@std::?$sinh(YA?AV?$complex@N@0@AEBV10@@Z)
??$sinh@N@std@@YA?AV?$complex@N@0@AEBV10@@Z
; N@std::?$sinh(YA?AV?$complex@N@1@AEBV21@@Z)
??$sinh@N@std@@YA?AV?$complex@N@1@AEBV21@@Z
; O@std::?$sinh(YA?AV?$complex@O@0@AEBV10@@Z)
??$sinh@O@std@@YA?AV?$complex@O@0@AEBV10@@Z
; O@std::?$sinh(YA?AV?$complex@O@1@AEBV21@@Z)
??$sinh@O@std@@YA?AV?$complex@O@1@AEBV21@@Z
; M@std::?$sqrt(YA?AV?$complex@M@0@AEBV10@@Z)
??$sqrt@M@std@@YA?AV?$complex@M@0@AEBV10@@Z
; M@std::?$sqrt(YA?AV?$complex@M@1@AEBV21@@Z)
??$sqrt@M@std@@YA?AV?$complex@M@1@AEBV21@@Z
; N@std::?$sqrt(YA?AV?$complex@N@0@AEBV10@@Z)
??$sqrt@N@std@@YA?AV?$complex@N@0@AEBV10@@Z
; N@std::?$sqrt(YA?AV?$complex@N@1@AEBV21@@Z)
??$sqrt@N@std@@YA?AV?$complex@N@1@AEBV21@@Z
; O@std::?$sqrt(YA?AV?$complex@O@0@AEBV10@@Z)
??$sqrt@O@std@@YA?AV?$complex@O@0@AEBV10@@Z
; O@std::?$sqrt(YA?AV?$complex@O@1@AEBV21@@Z)
??$sqrt@O@std@@YA?AV?$complex@O@1@AEBV21@@Z
; public: __cdecl std::_Complex_base<float>::_Complex_base<float>(float const & __ptr64,float const & __ptr64) __ptr64
??0?$_Complex_base@M@std@@QEAA@AEBM0@Z
; public: __cdecl std::_Complex_base<double>::_Complex_base<double>(double const & __ptr64,double const & __ptr64) __ptr64
??0?$_Complex_base@N@std@@QEAA@AEBN0@Z
; public: __cdecl std::_Complex_base<long double>::_Complex_base<long double>(long double const & __ptr64,long double const & __ptr64) __ptr64
??0?$_Complex_base@O@std@@QEAA@AEBO0@Z
; public: __cdecl std::_Mpunct<char>::_Mpunct<char>(class _Mpunct<char>::_Locinfo const & __ptr64,unsigned __int64,bool) __ptr64
??0?$_Mpunct@D@std@@QEAA@AEBV_Locinfo@1@_K_N@Z
; public: __cdecl std::_Mpunct<char>::_Mpunct<char>(unsigned __int64,bool) __ptr64
??0?$_Mpunct@D@std@@QEAA@_K_N@Z
; public: __cdecl std::_Mpunct<unsigned short>::_Mpunct<unsigned short>(class _Mpunct<unsigned short>::_Locinfo const & __ptr64,unsigned __int64,bool) __ptr64
??0?$_Mpunct@G@std@@QEAA@AEBV_Locinfo@1@_K_N@Z
; public: __cdecl std::_Mpunct<unsigned short>::_Mpunct<unsigned short>(unsigned __int64,bool) __ptr64
??0?$_Mpunct@G@std@@QEAA@_K_N@Z
; public: __cdecl std::basic_filebuf<char,struct std::char_traits<char> >::basic_filebuf<char,struct std::char_traits<char> >(class basic_filebuf<char,struct std::char_traits<char> >::basic_filebuf<char,struct std::char_traits<char> > const & __ptr64) __ptr64
??0?$basic_filebuf@DU?$char_traits@D@std@@@std@@QEAA@AEBV01@@Z
; public: __cdecl std::basic_filebuf<char,struct std::char_traits<char> >::basic_filebuf<char,struct std::char_traits<char> >(struct _iobuf * __ptr64) __ptr64
??0?$basic_filebuf@DU?$char_traits@D@std@@@std@@QEAA@PEAU_iobuf@@@Z
; public: __cdecl std::basic_filebuf<char,struct std::char_traits<char> >::basic_filebuf<char,struct std::char_traits<char> >(enum basic_filebuf<char,struct std::char_traits<char> >::_Uninitialized) __ptr64
??0?$basic_filebuf@DU?$char_traits@D@std@@@std@@QEAA@W4_Uninitialized@1@@Z
; public: __cdecl std::basic_filebuf<unsigned short,struct std::char_traits<unsigned short> >::basic_filebuf<unsigned short,struct std::char_traits<unsigned short> >(class basic_filebuf<unsigned short,struct std::char_traits<unsigned short> >::basic_filebuf<unsigned short,struct std::char_traits<unsigned short> > const & __ptr64) __ptr64
??0?$basic_filebuf@GU?$char_traits@G@std@@@std@@QEAA@AEBV01@@Z
; public: __cdecl std::basic_filebuf<unsigned short,struct std::char_traits<unsigned short> >::basic_filebuf<unsigned short,struct std::char_traits<unsigned short> >(struct _iobuf * __ptr64) __ptr64
??0?$basic_filebuf@GU?$char_traits@G@std@@@std@@QEAA@PEAU_iobuf@@@Z
; public: __cdecl std::basic_filebuf<unsigned short,struct std::char_traits<unsigned short> >::basic_filebuf<unsigned short,struct std::char_traits<unsigned short> >(enum basic_filebuf<unsigned short,struct std::char_traits<unsigned short> >::_Uninitialized) __ptr64
??0?$basic_filebuf@GU?$char_traits@G@std@@@std@@QEAA@W4_Uninitialized@1@@Z
; public: __cdecl std::basic_fstream<char,struct std::char_traits<char> >::basic_fstream<char,struct std::char_traits<char> >(class basic_fstream<char,struct std::char_traits<char> >::basic_fstream<char,struct std::char_traits<char> > const & __ptr64) __ptr64
??0?$basic_fstream@DU?$char_traits@D@std@@@std@@QEAA@AEBV01@@Z
; public: __cdecl std::basic_fstream<char,struct std::char_traits<char> >::basic_fstream<char,struct std::char_traits<char> >(char const * __ptr64,int) __ptr64
??0?$basic_fstream@DU?$char_traits@D@std@@@std@@QEAA@PEBDH@Z
; public: __cdecl std::basic_fstream<char,struct std::char_traits<char> >::basic_fstream<char,struct std::char_traits<char> >(void) __ptr64
??0?$basic_fstream@DU?$char_traits@D@std@@@std@@QEAA@XZ
; public: __cdecl std::basic_fstream<unsigned short,struct std::char_traits<unsigned short> >::basic_fstream<unsigned short,struct std::char_traits<unsigned short> >(class basic_fstream<unsigned short,struct std::char_traits<unsigned short> >::basic_fstream<unsigned short,struct std::char_traits<unsigned short> > const & __ptr64) __ptr64
??0?$basic_fstream@GU?$char_traits@G@std@@@std@@QEAA@AEBV01@@Z
; public: __cdecl std::basic_fstream<unsigned short,struct std::char_traits<unsigned short> >::basic_fstream<unsigned short,struct std::char_traits<unsigned short> >(char const * __ptr64,int) __ptr64
??0?$basic_fstream@GU?$char_traits@G@std@@@std@@QEAA@PEBDH@Z
; public: __cdecl std::basic_fstream<unsigned short,struct std::char_traits<unsigned short> >::basic_fstream<unsigned short,struct std::char_traits<unsigned short> >(void) __ptr64
??0?$basic_fstream@GU?$char_traits@G@std@@@std@@QEAA@XZ
; public: __cdecl std::basic_ifstream<char,struct std::char_traits<char> >::basic_ifstream<char,struct std::char_traits<char> >(class basic_ifstream<char,struct std::char_traits<char> >::basic_ifstream<char,struct std::char_traits<char> > const & __ptr64) __ptr64
??0?$basic_ifstream@DU?$char_traits@D@std@@@std@@QEAA@AEBV01@@Z
; public: __cdecl std::basic_ifstream<char,struct std::char_traits<char> >::basic_ifstream<char,struct std::char_traits<char> >(char const * __ptr64,int) __ptr64
??0?$basic_ifstream@DU?$char_traits@D@std@@@std@@QEAA@PEBDH@Z
; public: __cdecl std::basic_ifstream<char,struct std::char_traits<char> >::basic_ifstream<char,struct std::char_traits<char> >(void) __ptr64
??0?$basic_ifstream@DU?$char_traits@D@std@@@std@@QEAA@XZ
; public: __cdecl std::basic_ifstream<unsigned short,struct std::char_traits<unsigned short> >::basic_ifstream<unsigned short,struct std::char_traits<unsigned short> >(class basic_ifstream<unsigned short,struct std::char_traits<unsigned short> >::basic_ifstream<unsigned short,struct std::char_traits<unsigned short> > const & __ptr64) __ptr64
??0?$basic_ifstream@GU?$char_traits@G@std@@@std@@QEAA@AEBV01@@Z
; public: __cdecl std::basic_ifstream<unsigned short,struct std::char_traits<unsigned short> >::basic_ifstream<unsigned short,struct std::char_traits<unsigned short> >(char const * __ptr64,int) __ptr64
??0?$basic_ifstream@GU?$char_traits@G@std@@@std@@QEAA@PEBDH@Z
; public: __cdecl std::basic_ifstream<unsigned short,struct std::char_traits<unsigned short> >::basic_ifstream<unsigned short,struct std::char_traits<unsigned short> >(void) __ptr64
??0?$basic_ifstream@GU?$char_traits@G@std@@@std@@QEAA@XZ
; protected: __cdecl std::basic_ios<char,struct std::char_traits<char> >::basic_ios<char,struct std::char_traits<char> >(void) __ptr64
??0?$basic_ios@DU?$char_traits@D@std@@@std@@IEAA@XZ
; public: __cdecl std::basic_ios<char,struct std::char_traits<char> >::basic_ios<char,struct std::char_traits<char> >(class basic_ios<char,struct std::char_traits<char> >::basic_ios<char,struct std::char_traits<char> > const & __ptr64) __ptr64
??0?$basic_ios@DU?$char_traits@D@std@@@std@@QEAA@AEBV01@@Z
; public: __cdecl std::basic_ios<char,struct std::char_traits<char> >::basic_ios<char,struct std::char_traits<char> >(class basic_ios<char,struct std::char_traits<char> >::basic_streambuf<char,struct std::char_traits<char> > * __ptr64) __ptr64
??0?$basic_ios@DU?$char_traits@D@std@@@std@@QEAA@PEAV?$basic_streambuf@DU?$char_traits@D@std@@@1@@Z
; protected: __cdecl std::basic_ios<unsigned short,struct std::char_traits<unsigned short> >::basic_ios<unsigned short,struct std::char_traits<unsigned short> >(void) __ptr64
??0?$basic_ios@GU?$char_traits@G@std@@@std@@IEAA@XZ
; public: __cdecl std::basic_ios<unsigned short,struct std::char_traits<unsigned short> >::basic_ios<unsigned short,struct std::char_traits<unsigned short> >(class basic_ios<unsigned short,struct std::char_traits<unsigned short> >::basic_ios<unsigned short,struct std::char_traits<unsigned short> > const & __ptr64) __ptr64
??0?$basic_ios@GU?$char_traits@G@std@@@std@@QEAA@AEBV01@@Z
; public: __cdecl std::basic_ios<unsigned short,struct std::char_traits<unsigned short> >::basic_ios<unsigned short,struct std::char_traits<unsigned short> >(class basic_ios<unsigned short,struct std::char_traits<unsigned short> >::basic_streambuf<unsigned short,struct std::char_traits<unsigned short> > * __ptr64) __ptr64
??0?$basic_ios@GU?$char_traits@G@std@@@std@@QEAA@PEAV?$basic_streambuf@GU?$char_traits@G@std@@@1@@Z
; public: __cdecl std::basic_iostream<char,struct std::char_traits<char> >::basic_iostream<char,struct std::char_traits<char> >(class basic_iostream<char,struct std::char_traits<char> >::basic_iostream<char,struct std::char_traits<char> > const & __ptr64) __ptr64
??0?$basic_iostream@DU?$char_traits@D@std@@@std@@QEAA@AEBV01@@Z
; public: __cdecl std::basic_iostream<char,struct std::char_traits<char> >::basic_iostream<char,struct std::char_traits<char> >(class basic_iostream<char,struct std::char_traits<char> >::basic_streambuf<char,struct std::char_traits<char> > * __ptr64) __ptr64
??0?$basic_iostream@DU?$char_traits@D@std@@@std@@QEAA@PEAV?$basic_streambuf@DU?$char_traits@D@std@@@1@@Z
; public: __cdecl std::basic_iostream<unsigned short,struct std::char_traits<unsigned short> >::basic_iostream<unsigned short,struct std::char_traits<unsigned short> >(class basic_iostream<unsigned short,struct std::char_traits<unsigned short> >::basic_iostream<unsigned short,struct std::char_traits<unsigned short> > const & __ptr64) __ptr64
??0?$basic_iostream@GU?$char_traits@G@std@@@std@@QEAA@AEBV01@@Z
; public: __cdecl std::basic_iostream<unsigned short,struct std::char_traits<unsigned short> >::basic_iostream<unsigned short,struct std::char_traits<unsigned short> >(class basic_iostream<unsigned short,struct std::char_traits<unsigned short> >::basic_streambuf<unsigned short,struct std::char_traits<unsigned short> > * __ptr64) __ptr64
??0?$basic_iostream@GU?$char_traits@G@std@@@std@@QEAA@PEAV?$basic_streambuf@GU?$char_traits@G@std@@@1@@Z
; public: __cdecl std::basic_istream<char,struct std::char_traits<char> >::basic_istream<char,struct std::char_traits<char> >(class basic_istream<char,struct std::char_traits<char> >::basic_istream<char,struct std::char_traits<char> > const & __ptr64) __ptr64
??0?$basic_istream@DU?$char_traits@D@std@@@std@@QEAA@AEBV01@@Z
; public: __cdecl std::basic_istream<char,struct std::char_traits<char> >::basic_istream<char,struct std::char_traits<char> >(class basic_istream<char,struct std::char_traits<char> >::basic_streambuf<char,struct std::char_traits<char> > * __ptr64,bool) __ptr64
??0?$basic_istream@DU?$char_traits@D@std@@@std@@QEAA@PEAV?$basic_streambuf@DU?$char_traits@D@std@@@1@_N@Z
; public: __cdecl std::basic_istream<char,struct std::char_traits<char> >::basic_istream<char,struct std::char_traits<char> >(enum basic_istream<char,struct std::char_traits<char> >::_Uninitialized) __ptr64
??0?$basic_istream@DU?$char_traits@D@std@@@std@@QEAA@W4_Uninitialized@1@@Z
; public: __cdecl std::basic_istream<unsigned short,struct std::char_traits<unsigned short> >::basic_istream<unsigned short,struct std::char_traits<unsigned short> >(class basic_istream<unsigned short,struct std::char_traits<unsigned short> >::basic_istream<unsigned short,struct std::char_traits<unsigned short> > const & __ptr64) __ptr64
??0?$basic_istream@GU?$char_traits@G@std@@@std@@QEAA@AEBV01@@Z
; public: __cdecl std::basic_istream<unsigned short,struct std::char_traits<unsigned short> >::basic_istream<unsigned short,struct std::char_traits<unsigned short> >(class basic_istream<unsigned short,struct std::char_traits<unsigned short> >::basic_streambuf<unsigned short,struct std::char_traits<unsigned short> > * __ptr64,bool) __ptr64
??0?$basic_istream@GU?$char_traits@G@std@@@std@@QEAA@PEAV?$basic_streambuf@GU?$char_traits@G@std@@@1@_N@Z
; public: __cdecl std::basic_istream<unsigned short,struct std::char_traits<unsigned short> >::basic_istream<unsigned short,struct std::char_traits<unsigned short> >(enum basic_istream<unsigned short,struct std::char_traits<unsigned short> >::_Uninitialized) __ptr64
??0?$basic_istream@GU?$char_traits@G@std@@@std@@QEAA@W4_Uninitialized@1@@Z
; public: __cdecl std::basic_istringstream<char,struct std::char_traits<char>,class std::allocator<char> >::basic_istringstream<char,struct std::char_traits<char>,class std::allocator<char> >(class basic_istringstream<char,struct std::char_traits<char>,class std::allocator<char> >::basic_istringstream<char,struct std::char_traits<char>,class std::allocator<char> > const & __ptr64) __ptr64
??0?$basic_istringstream@DU?$char_traits@D@std@@V?$allocator@D@2@@std@@QEAA@AEBV01@@Z
; public: __cdecl std::basic_istringstream<char,struct std::char_traits<char>,class std::allocator<char> >::basic_istringstream<char,struct std::char_traits<char>,class std::allocator<char> >(class basic_istringstream<char,struct std::char_traits<char>,class std::allocator<char> >::basic_string<char,struct std::char_traits<char>,class std::allocator<char> > const & __ptr64,int) __ptr64
??0?$basic_istringstream@DU?$char_traits@D@std@@V?$allocator@D@2@@std@@QEAA@AEBV?$basic_string@DU?$char_traits@D@std@@V?$allocator@D@2@@1@H@Z
; public: __cdecl std::basic_istringstream<char,struct std::char_traits<char>,class std::allocator<char> >::basic_istringstream<char,struct std::char_traits<char>,class std::allocator<char> >(int) __ptr64
??0?$basic_istringstream@DU?$char_traits@D@std@@V?$allocator@D@2@@std@@QEAA@H@Z
; public: __cdecl std::basic_istringstream<unsigned short,struct std::char_traits<unsigned short>,class std::allocator<unsigned short> >::basic_istringstream<unsigned short,struct std::char_traits<unsigned short>,class std::allocator<unsigned short> >(class basic_istringstream<unsigned short,struct std::char_traits<unsigned short>,class std::allocator<unsigned short> >::basic_istringstream<unsigned short,struct std::char_traits<unsigned short>,class std::allocator<unsigned short> > const & __ptr64) __ptr64
??0?$basic_istringstream@GU?$char_traits@G@std@@V?$allocator@G@2@@std@@QEAA@AEBV01@@Z
; public: __cdecl std::basic_istringstream<unsigned short,struct std::char_traits<unsigned short>,class std::allocator<unsigned short> >::basic_istringstream<unsigned short,struct std::char_traits<unsigned short>,class std::allocator<unsigned short> >(class basic_istringstream<unsigned short,struct std::char_traits<unsigned short>,class std::allocator<unsigned short> >::basic_string<unsigned short,struct std::char_traits<unsigned short>,class std::allocator<unsigned short> > const & __ptr64,int) __ptr64
??0?$basic_istringstream@GU?$char_traits@G@std@@V?$allocator@G@2@@std@@QEAA@AEBV?$basic_string@GU?$char_traits@G@std@@V?$allocator@G@2@@1@H@Z
; public: __cdecl std::basic_istringstream<unsigned short,struct std::char_traits<unsigned short>,class std::allocator<unsigned short> >::basic_istringstream<unsigned short,struct std::char_traits<unsigned short>,class std::allocator<unsigned short> >(int) __ptr64
??0?$basic_istringstream@GU?$char_traits@G@std@@V?$allocator@G@2@@std@@QEAA@H@Z
; public: __cdecl std::basic_ofstream<char,struct std::char_traits<char> >::basic_ofstream<char,struct std::char_traits<char> >(class basic_ofstream<char,struct std::char_traits<char> >::basic_ofstream<char,struct std::char_traits<char> > const & __ptr64) __ptr64
??0?$basic_ofstream@DU?$char_traits@D@std@@@std@@QEAA@AEBV01@@Z
; public: __cdecl std::basic_ofstream<char,struct std::char_traits<char> >::basic_ofstream<char,struct std::char_traits<char> >(char const * __ptr64,int) __ptr64
??0?$basic_ofstream@DU?$char_traits@D@std@@@std@@QEAA@PEBDH@Z
; public: __cdecl std::basic_ofstream<char,struct std::char_traits<char> >::basic_ofstream<char,struct std::char_traits<char> >(void) __ptr64
??0?$basic_ofstream@DU?$char_traits@D@std@@@std@@QEAA@XZ
; public: __cdecl std::basic_ofstream<unsigned short,struct std::char_traits<unsigned short> >::basic_ofstream<unsigned short,struct std::char_traits<unsigned short> >(class basic_ofstream<unsigned short,struct std::char_traits<unsigned short> >::basic_ofstream<unsigned short,struct std::char_traits<unsigned short> > const & __ptr64) __ptr64
??0?$basic_ofstream@GU?$char_traits@G@std@@@std@@QEAA@AEBV01@@Z
; public: __cdecl std::basic_ofstream<unsigned short,struct std::char_traits<unsigned short> >::basic_ofstream<unsigned short,struct std::char_traits<unsigned short> >(char const * __ptr64,int) __ptr64
??0?$basic_ofstream@GU?$char_traits@G@std@@@std@@QEAA@PEBDH@Z
; public: __cdecl std::basic_ofstream<unsigned short,struct std::char_traits<unsigned short> >::basic_ofstream<unsigned short,struct std::char_traits<unsigned short> >(void) __ptr64
??0?$basic_ofstream@GU?$char_traits@G@std@@@std@@QEAA@XZ
; public: __cdecl std::basic_ostream<char,struct std::char_traits<char> >::basic_ostream<char,struct std::char_traits<char> >(class basic_ostream<char,struct std::char_traits<char> >::basic_ostream<char,struct std::char_traits<char> > const & __ptr64) __ptr64
??0?$basic_ostream@DU?$char_traits@D@std@@@std@@QEAA@AEBV01@@Z
; public: __cdecl std::basic_ostream<char,struct std::char_traits<char> >::basic_ostream<char,struct std::char_traits<char> >(class basic_ostream<char,struct std::char_traits<char> >::basic_streambuf<char,struct std::char_traits<char> > * __ptr64,bool,bool) __ptr64
??0?$basic_ostream@DU?$char_traits@D@std@@@std@@QEAA@PEAV?$basic_streambuf@DU?$char_traits@D@std@@@1@_N1@Z
; public: __cdecl std::basic_ostream<char,struct std::char_traits<char> >::basic_ostream<char,struct std::char_traits<char> >(enum basic_ostream<char,struct std::char_traits<char> >::_Uninitialized) __ptr64
??0?$basic_ostream@DU?$char_traits@D@std@@@std@@QEAA@W4_Uninitialized@1@@Z
; public: __cdecl std::basic_ostream<unsigned short,struct std::char_traits<unsigned short> >::basic_ostream<unsigned short,struct std::char_traits<unsigned short> >(class basic_ostream<unsigned short,struct std::char_traits<unsigned short> >::basic_ostream<unsigned short,struct std::char_traits<unsigned short> > const & __ptr64) __ptr64
??0?$basic_ostream@GU?$char_traits@G@std@@@std@@QEAA@AEBV01@@Z
; public: __cdecl std::basic_ostream<unsigned short,struct std::char_traits<unsigned short> >::basic_ostream<unsigned short,struct std::char_traits<unsigned short> >(class basic_ostream<unsigned short,struct std::char_traits<unsigned short> >::basic_streambuf<unsigned short,struct std::char_traits<unsigned short> > * __ptr64,bool,bool) __ptr64
??0?$basic_ostream@GU?$char_traits@G@std@@@std@@QEAA@PEAV?$basic_streambuf@GU?$char_traits@G@std@@@1@_N1@Z
; public: __cdecl std::basic_ostream<unsigned short,struct std::char_traits<unsigned short> >::basic_ostream<unsigned short,struct std::char_traits<unsigned short> >(enum basic_ostream<unsigned short,struct std::char_traits<unsigned short> >::_Uninitialized) __ptr64
??0?$basic_ostream@GU?$char_traits@G@std@@@std@@QEAA@W4_Uninitialized@1@@Z
; public: __cdecl std::basic_ostringstream<char,struct std::char_traits<char>,class std::allocator<char> >::basic_ostringstream<char,struct std::char_traits<char>,class std::allocator<char> >(class basic_ostringstream<char,struct std::char_traits<char>,class std::allocator<char> >::basic_ostringstream<char,struct std::char_traits<char>,class std::allocator<char> > const & __ptr64) __ptr64
??0?$basic_ostringstream@DU?$char_traits@D@std@@V?$allocator@D@2@@std@@QEAA@AEBV01@@Z
; public: __cdecl std::basic_ostringstream<char,struct std::char_traits<char>,class std::allocator<char> >::basic_ostringstream<char,struct std::char_traits<char>,class std::allocator<char> >(class basic_ostringstream<char,struct std::char_traits<char>,class std::allocator<char> >::basic_string<char,struct std::char_traits<char>,class std::allocator<char> > const & __ptr64,int) __ptr64
??0?$basic_ostringstream@DU?$char_traits@D@std@@V?$allocator@D@2@@std@@QEAA@AEBV?$basic_string@DU?$char_traits@D@std@@V?$allocator@D@2@@1@H@Z
; public: __cdecl std::basic_ostringstream<char,struct std::char_traits<char>,class std::allocator<char> >::basic_ostringstream<char,struct std::char_traits<char>,class std::allocator<char> >(int) __ptr64
??0?$basic_ostringstream@DU?$char_traits@D@std@@V?$allocator@D@2@@std@@QEAA@H@Z
; public: __cdecl std::basic_ostringstream<unsigned short,struct std::char_traits<unsigned short>,class std::allocator<unsigned short> >::basic_ostringstream<unsigned short,struct std::char_traits<unsigned short>,class std::allocator<unsigned short> >(class basic_ostringstream<unsigned short,struct std::char_traits<unsigned short>,class std::allocator<unsigned short> >::basic_ostringstream<unsigned short,struct std::char_traits<unsigned short>,class std::allocator<unsigned short> > const & __ptr64) __ptr64
??0?$basic_ostringstream@GU?$char_traits@G@std@@V?$allocator@G@2@@std@@QEAA@AEBV01@@Z
; public: __cdecl std::basic_ostringstream<unsigned short,struct std::char_traits<unsigned short>,class std::allocator<unsigned short> >::basic_ostringstream<unsigned short,struct std::char_traits<unsigned short>,class std::allocator<unsigned short> >(class basic_ostringstream<unsigned short,struct std::char_traits<unsigned short>,class std::allocator<unsigned short> >::basic_string<unsigned short,struct std::char_traits<unsigned short>,class std::allocator<unsigned short> > const & __ptr64,int) __ptr64
??0?$basic_ostringstream@GU?$char_traits@G@std@@V?$allocator@G@2@@std@@QEAA@AEBV?$basic_string@GU?$char_traits@G@std@@V?$allocator@G@2@@1@H@Z
; public: __cdecl std::basic_ostringstream<unsigned short,struct std::char_traits<unsigned short>,class std::allocator<unsigned short> >::basic_ostringstream<unsigned short,struct std::char_traits<unsigned short>,class std::allocator<unsigned short> >(int) __ptr64
??0?$basic_ostringstream@GU?$char_traits@G@std@@V?$allocator@G@2@@std@@QEAA@H@Z
; protected: __cdecl std::basic_streambuf<char,struct std::char_traits<char> >::basic_streambuf<char,struct std::char_traits<char> >(enum basic_streambuf<char,struct std::char_traits<char> >::_Uninitialized) __ptr64
??0?$basic_streambuf@DU?$char_traits@D@std@@@std@@IEAA@W4_Uninitialized@1@@Z
; protected: __cdecl std::basic_streambuf<char,struct std::char_traits<char> >::basic_streambuf<char,struct std::char_traits<char> >(void) __ptr64
??0?$basic_streambuf@DU?$char_traits@D@std@@@std@@IEAA@XZ
; public: __cdecl std::basic_streambuf<char,struct std::char_traits<char> >::basic_streambuf<char,struct std::char_traits<char> >(class basic_streambuf<char,struct std::char_traits<char> >::basic_streambuf<char,struct std::char_traits<char> > const & __ptr64) __ptr64
??0?$basic_streambuf@DU?$char_traits@D@std@@@std@@QEAA@AEBV01@@Z
; protected: __cdecl std::basic_streambuf<unsigned short,struct std::char_traits<unsigned short> >::basic_streambuf<unsigned short,struct std::char_traits<unsigned short> >(enum basic_streambuf<unsigned short,struct std::char_traits<unsigned short> >::_Uninitialized) __ptr64
??0?$basic_streambuf@GU?$char_traits@G@std@@@std@@IEAA@W4_Uninitialized@1@@Z
; protected: __cdecl std::basic_streambuf<unsigned short,struct std::char_traits<unsigned short> >::basic_streambuf<unsigned short,struct std::char_traits<unsigned short> >(void) __ptr64
??0?$basic_streambuf@GU?$char_traits@G@std@@@std@@IEAA@XZ
; public: __cdecl std::basic_streambuf<unsigned short,struct std::char_traits<unsigned short> >::basic_streambuf<unsigned short,struct std::char_traits<unsigned short> >(class basic_streambuf<unsigned short,struct std::char_traits<unsigned short> >::basic_streambuf<unsigned short,struct std::char_traits<unsigned short> > const & __ptr64) __ptr64
??0?$basic_streambuf@GU?$char_traits@G@std@@@std@@QEAA@AEBV01@@Z
; public: __cdecl std::basic_string<char,struct std::char_traits<char>,class std::allocator<char> >::basic_string<char,struct std::char_traits<char>,class std::allocator<char> >(class basic_string<char,struct std::char_traits<char>,class std::allocator<char> >::basic_string<char,struct std::char_traits<char>,class std::allocator<char> > const & __ptr64) __ptr64
??0?$basic_string@DU?$char_traits@D@std@@V?$allocator@D@2@@std@@QEAA@AEBV01@@Z
; public: __cdecl std::basic_string<char,struct std::char_traits<char>,class std::allocator<char> >::basic_string<char,struct std::char_traits<char>,class std::allocator<char> >(class basic_string<char,struct std::char_traits<char>,class std::allocator<char> >::basic_string<char,struct std::char_traits<char>,class std::allocator<char> > const & __ptr64,unsigned __int64,unsigned __int64,class basic_string<char,struct std::char_traits<char>,class std::allocator<char> >::allocator<char> const & __ptr64) __ptr64
??0?$basic_string@DU?$char_traits@D@std@@V?$allocator@D@2@@std@@QEAA@AEBV01@_K1AEBV?$allocator@D@1@@Z
; public: __cdecl std::basic_string<char,struct std::char_traits<char>,class std::allocator<char> >::basic_string<char,struct std::char_traits<char>,class std::allocator<char> >(class basic_string<char,struct std::char_traits<char>,class std::allocator<char> >::allocator<char> const & __ptr64) __ptr64
??0?$basic_string@DU?$char_traits@D@std@@V?$allocator@D@2@@std@@QEAA@AEBV?$allocator@D@1@@Z
; public: __cdecl std::basic_string<char,struct std::char_traits<char>,class std::allocator<char> >::basic_string<char,struct std::char_traits<char>,class std::allocator<char> >(char const * __ptr64,char const * __ptr64,class basic_string<char,struct std::char_traits<char>,class std::allocator<char> >::allocator<char> const & __ptr64) __ptr64
??0?$basic_string@DU?$char_traits@D@std@@V?$allocator@D@2@@std@@QEAA@PEBD0AEBV?$allocator@D@1@@Z
; public: __cdecl std::basic_string<char,struct std::char_traits<char>,class std::allocator<char> >::basic_string<char,struct std::char_traits<char>,class std::allocator<char> >(char const * __ptr64,class basic_string<char,struct std::char_traits<char>,class std::allocator<char> >::allocator<char> const & __ptr64) __ptr64
??0?$basic_string@DU?$char_traits@D@std@@V?$allocator@D@2@@std@@QEAA@PEBDAEBV?$allocator@D@1@@Z
; public: __cdecl std::basic_string<char,struct std::char_traits<char>,class std::allocator<char> >::basic_string<char,struct std::char_traits<char>,class std::allocator<char> >(char const * __ptr64,unsigned __int64,class basic_string<char,struct std::char_traits<char>,class std::allocator<char> >::allocator<char> const & __ptr64) __ptr64
??0?$basic_string@DU?$char_traits@D@std@@V?$allocator@D@2@@std@@QEAA@PEBD_KAEBV?$allocator@D@1@@Z
; public: __cdecl std::basic_string<char,struct std::char_traits<char>,class std::allocator<char> >::basic_string<char,struct std::char_traits<char>,class std::allocator<char> >(unsigned __int64,char,class basic_string<char,struct std::char_traits<char>,class std::allocator<char> >::allocator<char> const & __ptr64) __ptr64
??0?$basic_string@DU?$char_traits@D@std@@V?$allocator@D@2@@std@@QEAA@_KDAEBV?$allocator@D@1@@Z
; public: __cdecl std::basic_string<unsigned short,struct std::char_traits<unsigned short>,class std::allocator<unsigned short> >::basic_string<unsigned short,struct std::char_traits<unsigned short>,class std::allocator<unsigned short> >(class basic_string<unsigned short,struct std::char_traits<unsigned short>,class std::allocator<unsigned short> >::basic_string<unsigned short,struct std::char_traits<unsigned short>,class std::allocator<unsigned short> > const & __ptr64) __ptr64
??0?$basic_string@GU?$char_traits@G@std@@V?$allocator@G@2@@std@@QEAA@AEBV01@@Z
; public: __cdecl std::basic_string<unsigned short,struct std::char_traits<unsigned short>,class std::allocator<unsigned short> >::basic_string<unsigned short,struct std::char_traits<unsigned short>,class std::allocator<unsigned short> >(class basic_string<unsigned short,struct std::char_traits<unsigned short>,class std::allocator<unsigned short> >::basic_string<unsigned short,struct std::char_traits<unsigned short>,class std::allocator<unsigned short> > const & __ptr64,unsigned __int64,unsigned __int64,class basic_string<unsigned short,struct std::char_traits<unsigned short>,class std::allocator<unsigned short> >::allocator<unsigned short> const & __ptr64) __ptr64
??0?$basic_string@GU?$char_traits@G@std@@V?$allocator@G@2@@std@@QEAA@AEBV01@_K1AEBV?$allocator@G@1@@Z
; public: __cdecl std::basic_string<unsigned short,struct std::char_traits<unsigned short>,class std::allocator<unsigned short> >::basic_string<unsigned short,struct std::char_traits<unsigned short>,class std::allocator<unsigned short> >(class basic_string<unsigned short,struct std::char_traits<unsigned short>,class std::allocator<unsigned short> >::allocator<unsigned short> const & __ptr64) __ptr64
??0?$basic_string@GU?$char_traits@G@std@@V?$allocator@G@2@@std@@QEAA@AEBV?$allocator@G@1@@Z
; public: __cdecl std::basic_string<unsigned short,struct std::char_traits<unsigned short>,class std::allocator<unsigned short> >::basic_string<unsigned short,struct std::char_traits<unsigned short>,class std::allocator<unsigned short> >(unsigned short const * __ptr64,unsigned short const * __ptr64,class basic_string<unsigned short,struct std::char_traits<unsigned short>,class std::allocator<unsigned short> >::allocator<unsigned short> const & __ptr64) __ptr64
??0?$basic_string@GU?$char_traits@G@std@@V?$allocator@G@2@@std@@QEAA@PEBG0AEBV?$allocator@G@1@@Z
; public: __cdecl std::basic_string<unsigned short,struct std::char_traits<unsigned short>,class std::allocator<unsigned short> >::basic_string<unsigned short,struct std::char_traits<unsigned short>,class std::allocator<unsigned short> >(unsigned short const * __ptr64,class basic_string<unsigned short,struct std::char_traits<unsigned short>,class std::allocator<unsigned short> >::allocator<unsigned short> const & __ptr64) __ptr64
??0?$basic_string@GU?$char_traits@G@std@@V?$allocator@G@2@@std@@QEAA@PEBGAEBV?$allocator@G@1@@Z
; public: __cdecl std::basic_string<unsigned short,struct std::char_traits<unsigned short>,class std::allocator<unsigned short> >::basic_string<unsigned short,struct std::char_traits<unsigned short>,class std::allocator<unsigned short> >(unsigned short const * __ptr64,unsigned __int64,class basic_string<unsigned short,struct std::char_traits<unsigned short>,class std::allocator<unsigned short> >::allocator<unsigned short> const & __ptr64) __ptr64
??0?$basic_string@GU?$char_traits@G@std@@V?$allocator@G@2@@std@@QEAA@PEBG_KAEBV?$allocator@G@1@@Z
; public: __cdecl std::basic_string<unsigned short,struct std::char_traits<unsigned short>,class std::allocator<unsigned short> >::basic_string<unsigned short,struct std::char_traits<unsigned short>,class std::allocator<unsigned short> >(unsigned __int64,unsigned short,class basic_string<unsigned short,struct std::char_traits<unsigned short>,class std::allocator<unsigned short> >::allocator<unsigned short> const & __ptr64) __ptr64
??0?$basic_string@GU?$char_traits@G@std@@V?$allocator@G@2@@std@@QEAA@_KGAEBV?$allocator@G@1@@Z
; public: __cdecl std::basic_stringbuf<char,struct std::char_traits<char>,class std::allocator<char> >::basic_stringbuf<char,struct std::char_traits<char>,class std::allocator<char> >(class basic_stringbuf<char,struct std::char_traits<char>,class std::allocator<char> >::basic_stringbuf<char,struct std::char_traits<char>,class std::allocator<char> > const & __ptr64) __ptr64
??0?$basic_stringbuf@DU?$char_traits@D@std@@V?$allocator@D@2@@std@@QEAA@AEBV01@@Z
; public: __cdecl std::basic_stringbuf<char,struct std::char_traits<char>,class std::allocator<char> >::basic_stringbuf<char,struct std::char_traits<char>,class std::allocator<char> >(class basic_stringbuf<char,struct std::char_traits<char>,class std::allocator<char> >::basic_string<char,struct std::char_traits<char>,class std::allocator<char> > const & __ptr64,int) __ptr64
??0?$basic_stringbuf@DU?$char_traits@D@std@@V?$allocator@D@2@@std@@QEAA@AEBV?$basic_string@DU?$char_traits@D@std@@V?$allocator@D@2@@1@H@Z
; public: __cdecl std::basic_stringbuf<char,struct std::char_traits<char>,class std::allocator<char> >::basic_stringbuf<char,struct std::char_traits<char>,class std::allocator<char> >(int) __ptr64
??0?$basic_stringbuf@DU?$char_traits@D@std@@V?$allocator@D@2@@std@@QEAA@H@Z
; public: __cdecl std::basic_stringbuf<unsigned short,struct std::char_traits<unsigned short>,class std::allocator<unsigned short> >::basic_stringbuf<unsigned short,struct std::char_traits<unsigned short>,class std::allocator<unsigned short> >(class basic_stringbuf<unsigned short,struct std::char_traits<unsigned short>,class std::allocator<unsigned short> >::basic_stringbuf<unsigned short,struct std::char_traits<unsigned short>,class std::allocator<unsigned short> > const & __ptr64) __ptr64
??0?$basic_stringbuf@GU?$char_traits@G@std@@V?$allocator@G@2@@std@@QEAA@AEBV01@@Z
; public: __cdecl std::basic_stringbuf<unsigned short,struct std::char_traits<unsigned short>,class std::allocator<unsigned short> >::basic_stringbuf<unsigned short,struct std::char_traits<unsigned short>,class std::allocator<unsigned short> >(class basic_stringbuf<unsigned short,struct std::char_traits<unsigned short>,class std::allocator<unsigned short> >::basic_string<unsigned short,struct std::char_traits<unsigned short>,class std::allocator<unsigned short> > const & __ptr64,int) __ptr64
??0?$basic_stringbuf@GU?$char_traits@G@std@@V?$allocator@G@2@@std@@QEAA@AEBV?$basic_string@GU?$char_traits@G@std@@V?$allocator@G@2@@1@H@Z
; public: __cdecl std::basic_stringbuf<unsigned short,struct std::char_traits<unsigned short>,class std::allocator<unsigned short> >::basic_stringbuf<unsigned short,struct std::char_traits<unsigned short>,class std::allocator<unsigned short> >(int) __ptr64
??0?$basic_stringbuf@GU?$char_traits@G@std@@V?$allocator@G@2@@std@@QEAA@H@Z
; public: __cdecl std::basic_stringstream<char,struct std::char_traits<char>,class std::allocator<char> >::basic_stringstream<char,struct std::char_traits<char>,class std::allocator<char> >(class basic_stringstream<char,struct std::char_traits<char>,class std::allocator<char> >::basic_stringstream<char,struct std::char_traits<char>,class std::allocator<char> > const & __ptr64) __ptr64
??0?$basic_stringstream@DU?$char_traits@D@std@@V?$allocator@D@2@@std@@QEAA@AEBV01@@Z
; public: __cdecl std::basic_stringstream<char,struct std::char_traits<char>,class std::allocator<char> >::basic_stringstream<char,struct std::char_traits<char>,class std::allocator<char> >(class basic_stringstream<char,struct std::char_traits<char>,class std::allocator<char> >::basic_string<char,struct std::char_traits<char>,class std::allocator<char> > const & __ptr64,int) __ptr64
??0?$basic_stringstream@DU?$char_traits@D@std@@V?$allocator@D@2@@std@@QEAA@AEBV?$basic_string@DU?$char_traits@D@std@@V?$allocator@D@2@@1@H@Z
; public: __cdecl std::basic_stringstream<char,struct std::char_traits<char>,class std::allocator<char> >::basic_stringstream<char,struct std::char_traits<char>,class std::allocator<char> >(int) __ptr64
??0?$basic_stringstream@DU?$char_traits@D@std@@V?$allocator@D@2@@std@@QEAA@H@Z
; public: __cdecl std::basic_stringstream<unsigned short,struct std::char_traits<unsigned short>,class std::allocator<unsigned short> >::basic_stringstream<unsigned short,struct std::char_traits<unsigned short>,class std::allocator<unsigned short> >(class basic_stringstream<unsigned short,struct std::char_traits<unsigned short>,class std::allocator<unsigned short> >::basic_stringstream<unsigned short,struct std::char_traits<unsigned short>,class std::allocator<unsigned short> > const & __ptr64) __ptr64
??0?$basic_stringstream@GU?$char_traits@G@std@@V?$allocator@G@2@@std@@QEAA@AEBV01@@Z
; public: __cdecl std::basic_stringstream<unsigned short,struct std::char_traits<unsigned short>,class std::allocator<unsigned short> >::basic_stringstream<unsigned short,struct std::char_traits<unsigned short>,class std::allocator<unsigned short> >(class basic_stringstream<unsigned short,struct std::char_traits<unsigned short>,class std::allocator<unsigned short> >::basic_string<unsigned short,struct std::char_traits<unsigned short>,class std::allocator<unsigned short> > const & __ptr64,int) __ptr64
??0?$basic_stringstream@GU?$char_traits@G@std@@V?$allocator@G@2@@std@@QEAA@AEBV?$basic_string@GU?$char_traits@G@std@@V?$allocator@G@2@@1@H@Z
; public: __cdecl std::basic_stringstream<unsigned short,struct std::char_traits<unsigned short>,class std::allocator<unsigned short> >::basic_stringstream<unsigned short,struct std::char_traits<unsigned short>,class std::allocator<unsigned short> >(int) __ptr64
??0?$basic_stringstream@GU?$char_traits@G@std@@V?$allocator@G@2@@std@@QEAA@H@Z
; public: __cdecl std::codecvt<char,char,int>::codecvt<char,char,int>(class codecvt<char,char,int>::_Locinfo const & __ptr64,unsigned __int64) __ptr64
??0?$codecvt@DDH@std@@QEAA@AEBV_Locinfo@1@_K@Z
; public: __cdecl std::codecvt<char,char,int>::codecvt<char,char,int>(unsigned __int64) __ptr64
??0?$codecvt@DDH@std@@QEAA@_K@Z
; public: __cdecl std::codecvt<unsigned short,char,int>::codecvt<unsigned short,char,int>(class codecvt<unsigned short,char,int>::_Locinfo const & __ptr64,unsigned __int64) __ptr64
??0?$codecvt@GDH@std@@QEAA@AEBV_Locinfo@1@_K@Z
; public: __cdecl std::codecvt<unsigned short,char,int>::codecvt<unsigned short,char,int>(unsigned __int64) __ptr64
??0?$codecvt@GDH@std@@QEAA@_K@Z
; public: __cdecl std::collate<char>::collate<char>(class collate<char>::_Locinfo const & __ptr64,unsigned __int64) __ptr64
??0?$collate@D@std@@QEAA@AEBV_Locinfo@1@_K@Z
; public: __cdecl std::collate<char>::collate<char>(unsigned __int64) __ptr64
??0?$collate@D@std@@QEAA@_K@Z
; public: __cdecl std::collate<unsigned short>::collate<unsigned short>(class collate<unsigned short>::_Locinfo const & __ptr64,unsigned __int64) __ptr64
??0?$collate@G@std@@QEAA@AEBV_Locinfo@1@_K@Z
; public: __cdecl std::collate<unsigned short>::collate<unsigned short>(unsigned __int64) __ptr64
??0?$collate@G@std@@QEAA@_K@Z
; public: __cdecl std::complex<float>::complex<float>(float const & __ptr64,float const & __ptr64) __ptr64
??0?$complex@M@std@@QEAA@AEBM0@Z
; public: __cdecl std::complex<float>::complex<float>(class complex<float>::complex<double> const & __ptr64) __ptr64
??0?$complex@M@std@@QEAA@AEBV?$complex@N@1@@Z
; public: __cdecl std::complex<float>::complex<float>(class complex<float>::complex<long double> const & __ptr64) __ptr64
??0?$complex@M@std@@QEAA@AEBV?$complex@O@1@@Z
; public: __cdecl std::complex<double>::complex<double>(double const & __ptr64,double const & __ptr64) __ptr64
??0?$complex@N@std@@QEAA@AEBN0@Z
; public: __cdecl std::complex<double>::complex<double>(class complex<double>::complex<float> const & __ptr64) __ptr64
??0?$complex@N@std@@QEAA@AEBV?$complex@M@1@@Z
; public: __cdecl std::complex<double>::complex<double>(class complex<double>::complex<long double> const & __ptr64) __ptr64
??0?$complex@N@std@@QEAA@AEBV?$complex@O@1@@Z
; public: __cdecl std::complex<long double>::complex<long double>(long double const & __ptr64,long double const & __ptr64) __ptr64
??0?$complex@O@std@@QEAA@AEBO0@Z
; public: __cdecl std::complex<long double>::complex<long double>(class complex<long double>::complex<float> const & __ptr64) __ptr64
??0?$complex@O@std@@QEAA@AEBV?$complex@M@1@@Z
; public: __cdecl std::complex<long double>::complex<long double>(class complex<long double>::complex<double> const & __ptr64) __ptr64
??0?$complex@O@std@@QEAA@AEBV?$complex@N@1@@Z
; public: __cdecl std::ctype<char>::ctype<char>(class ctype<char>::_Locinfo const & __ptr64,unsigned __int64) __ptr64
??0?$ctype@D@std@@QEAA@AEBV_Locinfo@1@_K@Z
; public: __cdecl std::ctype<char>::ctype<char>(short const * __ptr64,bool,unsigned __int64) __ptr64
??0?$ctype@D@std@@QEAA@PEBF_N_K@Z
; public: __cdecl std::ctype<unsigned short>::ctype<unsigned short>(class ctype<unsigned short>::_Locinfo const & __ptr64,unsigned __int64) __ptr64
??0?$ctype@G@std@@QEAA@AEBV_Locinfo@1@_K@Z
; public: __cdecl std::ctype<unsigned short>::ctype<unsigned short>(unsigned __int64) __ptr64
??0?$ctype@G@std@@QEAA@_K@Z
; public: __cdecl std::messages<char>::messages<char>(class messages<char>::_Locinfo const & __ptr64,unsigned __int64) __ptr64
??0?$messages@D@std@@QEAA@AEBV_Locinfo@1@_K@Z
; public: __cdecl std::messages<char>::messages<char>(unsigned __int64) __ptr64
??0?$messages@D@std@@QEAA@_K@Z
; public: __cdecl std::messages<unsigned short>::messages<unsigned short>(class messages<unsigned short>::_Locinfo const & __ptr64,unsigned __int64) __ptr64
??0?$messages@G@std@@QEAA@AEBV_Locinfo@1@_K@Z
; public: __cdecl std::messages<unsigned short>::messages<unsigned short>(unsigned __int64) __ptr64
??0?$messages@G@std@@QEAA@_K@Z
; public: __cdecl std::money_get<char,class std::istreambuf_iterator<char,struct std::char_traits<char> > >::money_get<char,class std::istreambuf_iterator<char,struct std::char_traits<char> > >(class money_get<char,class std::istreambuf_iterator<char,struct std::char_traits<char> > >::_Locinfo const & __ptr64,unsigned __int64) __ptr64
??0?$money_get@DV?$istreambuf_iterator@DU?$char_traits@D@std@@@std@@@std@@QEAA@AEBV_Locinfo@1@_K@Z
; public: __cdecl std::money_get<char,class std::istreambuf_iterator<char,struct std::char_traits<char> > >::money_get<char,class std::istreambuf_iterator<char,struct std::char_traits<char> > >(unsigned __int64) __ptr64
??0?$money_get@DV?$istreambuf_iterator@DU?$char_traits@D@std@@@std@@@std@@QEAA@_K@Z
; public: __cdecl std::money_get<unsigned short,class std::istreambuf_iterator<unsigned short,struct std::char_traits<unsigned short> > >::money_get<unsigned short,class std::istreambuf_iterator<unsigned short,struct std::char_traits<unsigned short> > >(class money_get<unsigned short,class std::istreambuf_iterator<unsigned short,struct std::char_traits<unsigned short> > >::_Locinfo const & __ptr64,unsigned __int64) __ptr64
??0?$money_get@GV?$istreambuf_iterator@GU?$char_traits@G@std@@@std@@@std@@QEAA@AEBV_Locinfo@1@_K@Z
; public: __cdecl std::money_get<unsigned short,class std::istreambuf_iterator<unsigned short,struct std::char_traits<unsigned short> > >::money_get<unsigned short,class std::istreambuf_iterator<unsigned short,struct std::char_traits<unsigned short> > >(unsigned __int64) __ptr64
??0?$money_get@GV?$istreambuf_iterator@GU?$char_traits@G@std@@@std@@@std@@QEAA@_K@Z
; public: __cdecl std::money_put<char,class std::ostreambuf_iterator<char,struct std::char_traits<char> > >::money_put<char,class std::ostreambuf_iterator<char,struct std::char_traits<char> > >(class money_put<char,class std::ostreambuf_iterator<char,struct std::char_traits<char> > >::_Locinfo const & __ptr64,unsigned __int64) __ptr64
??0?$money_put@DV?$ostreambuf_iterator@DU?$char_traits@D@std@@@std@@@std@@QEAA@AEBV_Locinfo@1@_K@Z
; public: __cdecl std::money_put<char,class std::ostreambuf_iterator<char,struct std::char_traits<char> > >::money_put<char,class std::ostreambuf_iterator<char,struct std::char_traits<char> > >(unsigned __int64) __ptr64
??0?$money_put@DV?$ostreambuf_iterator@DU?$char_traits@D@std@@@std@@@std@@QEAA@_K@Z
; public: __cdecl std::money_put<unsigned short,class std::ostreambuf_iterator<unsigned short,struct std::char_traits<unsigned short> > >::money_put<unsigned short,class std::ostreambuf_iterator<unsigned short,struct std::char_traits<unsigned short> > >(class money_put<unsigned short,class std::ostreambuf_iterator<unsigned short,struct std::char_traits<unsigned short> > >::_Locinfo const & __ptr64,unsigned __int64) __ptr64
??0?$money_put@GV?$ostreambuf_iterator@GU?$char_traits@G@std@@@std@@@std@@QEAA@AEBV_Locinfo@1@_K@Z
; public: __cdecl std::money_put<unsigned short,class std::ostreambuf_iterator<unsigned short,struct std::char_traits<unsigned short> > >::money_put<unsigned short,class std::ostreambuf_iterator<unsigned short,struct std::char_traits<unsigned short> > >(unsigned __int64) __ptr64
??0?$money_put@GV?$ostreambuf_iterator@GU?$char_traits@G@std@@@std@@@std@@QEAA@_K@Z
; public: __cdecl std::moneypunct<char,1>::moneypunct<char,1>(class moneypunct<char,1>::_Locinfo const & __ptr64,unsigned __int64) __ptr64
??0?$moneypunct@D$00@std@@QEAA@AEBV_Locinfo@1@_K@Z
; public: __cdecl std::moneypunct<char,1>::moneypunct<char,1>(unsigned __int64) __ptr64
??0?$moneypunct@D$00@std@@QEAA@_K@Z
; public: __cdecl std::moneypunct<char,0>::moneypunct<char,0>(class moneypunct<char,0>::_Locinfo const & __ptr64,unsigned __int64) __ptr64
??0?$moneypunct@D$0A@@std@@QEAA@AEBV_Locinfo@1@_K@Z
; public: __cdecl std::moneypunct<char,0>::moneypunct<char,0>(unsigned __int64) __ptr64
??0?$moneypunct@D$0A@@std@@QEAA@_K@Z
; public: __cdecl std::moneypunct<unsigned short,1>::moneypunct<unsigned short,1>(class moneypunct<unsigned short,1>::_Locinfo const & __ptr64,unsigned __int64) __ptr64
??0?$moneypunct@G$00@std@@QEAA@AEBV_Locinfo@1@_K@Z
; public: __cdecl std::moneypunct<unsigned short,1>::moneypunct<unsigned short,1>(unsigned __int64) __ptr64
??0?$moneypunct@G$00@std@@QEAA@_K@Z
; public: __cdecl std::moneypunct<unsigned short,0>::moneypunct<unsigned short,0>(class moneypunct<unsigned short,0>::_Locinfo const & __ptr64,unsigned __int64) __ptr64
??0?$moneypunct@G$0A@@std@@QEAA@AEBV_Locinfo@1@_K@Z
; public: __cdecl std::moneypunct<unsigned short,0>::moneypunct<unsigned short,0>(unsigned __int64) __ptr64
??0?$moneypunct@G$0A@@std@@QEAA@_K@Z
; public: __cdecl std::num_get<char,class std::istreambuf_iterator<char,struct std::char_traits<char> > >::num_get<char,class std::istreambuf_iterator<char,struct std::char_traits<char> > >(class num_get<char,class std::istreambuf_iterator<char,struct std::char_traits<char> > >::_Locinfo const & __ptr64,unsigned __int64) __ptr64
??0?$num_get@DV?$istreambuf_iterator@DU?$char_traits@D@std@@@std@@@std@@QEAA@AEBV_Locinfo@1@_K@Z
; public: __cdecl std::num_get<char,class std::istreambuf_iterator<char,struct std::char_traits<char> > >::num_get<char,class std::istreambuf_iterator<char,struct std::char_traits<char> > >(unsigned __int64) __ptr64
??0?$num_get@DV?$istreambuf_iterator@DU?$char_traits@D@std@@@std@@@std@@QEAA@_K@Z
; public: __cdecl std::num_get<unsigned short,class std::istreambuf_iterator<unsigned short,struct std::char_traits<unsigned short> > >::num_get<unsigned short,class std::istreambuf_iterator<unsigned short,struct std::char_traits<unsigned short> > >(class num_get<unsigned short,class std::istreambuf_iterator<unsigned short,struct std::char_traits<unsigned short> > >::_Locinfo const & __ptr64,unsigned __int64) __ptr64
??0?$num_get@GV?$istreambuf_iterator@GU?$char_traits@G@std@@@std@@@std@@QEAA@AEBV_Locinfo@1@_K@Z
; public: __cdecl std::num_get<unsigned short,class std::istreambuf_iterator<unsigned short,struct std::char_traits<unsigned short> > >::num_get<unsigned short,class std::istreambuf_iterator<unsigned short,struct std::char_traits<unsigned short> > >(unsigned __int64) __ptr64
??0?$num_get@GV?$istreambuf_iterator@GU?$char_traits@G@std@@@std@@@std@@QEAA@_K@Z
; public: __cdecl std::num_put<char,class std::ostreambuf_iterator<char,struct std::char_traits<char> > >::num_put<char,class std::ostreambuf_iterator<char,struct std::char_traits<char> > >(class num_put<char,class std::ostreambuf_iterator<char,struct std::char_traits<char> > >::_Locinfo const & __ptr64,unsigned __int64) __ptr64
??0?$num_put@DV?$ostreambuf_iterator@DU?$char_traits@D@std@@@std@@@std@@QEAA@AEBV_Locinfo@1@_K@Z
; public: __cdecl std::num_put<char,class std::ostreambuf_iterator<char,struct std::char_traits<char> > >::num_put<char,class std::ostreambuf_iterator<char,struct std::char_traits<char> > >(unsigned __int64) __ptr64
??0?$num_put@DV?$ostreambuf_iterator@DU?$char_traits@D@std@@@std@@@std@@QEAA@_K@Z
; public: __cdecl std::num_put<unsigned short,class std::ostreambuf_iterator<unsigned short,struct std::char_traits<unsigned short> > >::num_put<unsigned short,class std::ostreambuf_iterator<unsigned short,struct std::char_traits<unsigned short> > >(class num_put<unsigned short,class std::ostreambuf_iterator<unsigned short,struct std::char_traits<unsigned short> > >::_Locinfo const & __ptr64,unsigned __int64) __ptr64
??0?$num_put@GV?$ostreambuf_iterator@GU?$char_traits@G@std@@@std@@@std@@QEAA@AEBV_Locinfo@1@_K@Z
; public: __cdecl std::num_put<unsigned short,class std::ostreambuf_iterator<unsigned short,struct std::char_traits<unsigned short> > >::num_put<unsigned short,class std::ostreambuf_iterator<unsigned short,struct std::char_traits<unsigned short> > >(unsigned __int64) __ptr64
??0?$num_put@GV?$ostreambuf_iterator@GU?$char_traits@G@std@@@std@@@std@@QEAA@_K@Z
; public: __cdecl std::numpunct<char>::numpunct<char>(class numpunct<char>::_Locinfo const & __ptr64,unsigned __int64) __ptr64
??0?$numpunct@D@std@@QEAA@AEBV_Locinfo@1@_K@Z
; public: __cdecl std::numpunct<char>::numpunct<char>(unsigned __int64) __ptr64
??0?$numpunct@D@std@@QEAA@_K@Z
; public: __cdecl std::numpunct<unsigned short>::numpunct<unsigned short>(class numpunct<unsigned short>::_Locinfo const & __ptr64,unsigned __int64) __ptr64
??0?$numpunct@G@std@@QEAA@AEBV_Locinfo@1@_K@Z
; public: __cdecl std::numpunct<unsigned short>::numpunct<unsigned short>(unsigned __int64) __ptr64
??0?$numpunct@G@std@@QEAA@_K@Z
; public: __cdecl std::time_get<char,class std::istreambuf_iterator<char,struct std::char_traits<char> > >::time_get<char,class std::istreambuf_iterator<char,struct std::char_traits<char> > >(class time_get<char,class std::istreambuf_iterator<char,struct std::char_traits<char> > >::_Locinfo const & __ptr64,unsigned __int64) __ptr64
??0?$time_get@DV?$istreambuf_iterator@DU?$char_traits@D@std@@@std@@@std@@QEAA@AEBV_Locinfo@1@_K@Z
; public: __cdecl std::time_get<char,class std::istreambuf_iterator<char,struct std::char_traits<char> > >::time_get<char,class std::istreambuf_iterator<char,struct std::char_traits<char> > >(unsigned __int64) __ptr64
??0?$time_get@DV?$istreambuf_iterator@DU?$char_traits@D@std@@@std@@@std@@QEAA@_K@Z
; public: __cdecl std::time_get<unsigned short,class std::istreambuf_iterator<unsigned short,struct std::char_traits<unsigned short> > >::time_get<unsigned short,class std::istreambuf_iterator<unsigned short,struct std::char_traits<unsigned short> > >(class time_get<unsigned short,class std::istreambuf_iterator<unsigned short,struct std::char_traits<unsigned short> > >::_Locinfo const & __ptr64,unsigned __int64) __ptr64
??0?$time_get@GV?$istreambuf_iterator@GU?$char_traits@G@std@@@std@@@std@@QEAA@AEBV_Locinfo@1@_K@Z
; public: __cdecl std::time_get<unsigned short,class std::istreambuf_iterator<unsigned short,struct std::char_traits<unsigned short> > >::time_get<unsigned short,class std::istreambuf_iterator<unsigned short,struct std::char_traits<unsigned short> > >(unsigned __int64) __ptr64
??0?$time_get@GV?$istreambuf_iterator@GU?$char_traits@G@std@@@std@@@std@@QEAA@_K@Z
; public: __cdecl std::time_put<char,class std::ostreambuf_iterator<char,struct std::char_traits<char> > >::time_put<char,class std::ostreambuf_iterator<char,struct std::char_traits<char> > >(class time_put<char,class std::ostreambuf_iterator<char,struct std::char_traits<char> > >::_Locinfo const & __ptr64,unsigned __int64) __ptr64
??0?$time_put@DV?$ostreambuf_iterator@DU?$char_traits@D@std@@@std@@@std@@QEAA@AEBV_Locinfo@1@_K@Z
; public: __cdecl std::time_put<char,class std::ostreambuf_iterator<char,struct std::char_traits<char> > >::time_put<char,class std::ostreambuf_iterator<char,struct std::char_traits<char> > >(unsigned __int64) __ptr64
??0?$time_put@DV?$ostreambuf_iterator@DU?$char_traits@D@std@@@std@@@std@@QEAA@_K@Z
; public: __cdecl std::time_put<unsigned short,class std::ostreambuf_iterator<unsigned short,struct std::char_traits<unsigned short> > >::time_put<unsigned short,class std::ostreambuf_iterator<unsigned short,struct std::char_traits<unsigned short> > >(class time_put<unsigned short,class std::ostreambuf_iterator<unsigned short,struct std::char_traits<unsigned short> > >::_Locinfo const & __ptr64,unsigned __int64) __ptr64
??0?$time_put@GV?$ostreambuf_iterator@GU?$char_traits@G@std@@@std@@@std@@QEAA@AEBV_Locinfo@1@_K@Z
; public: __cdecl std::time_put<unsigned short,class std::ostreambuf_iterator<unsigned short,struct std::char_traits<unsigned short> > >::time_put<unsigned short,class std::ostreambuf_iterator<unsigned short,struct std::char_traits<unsigned short> > >(unsigned __int64) __ptr64
??0?$time_put@GV?$ostreambuf_iterator@GU?$char_traits@G@std@@@std@@@std@@QEAA@_K@Z
; public: __cdecl std::ios_base::Init::Init(void) __ptr64
??0Init@ios_base@std@@QEAA@XZ
; public: __cdecl std::_Locinfo::_Locinfo(class _Locinfo::_Locinfo const & __ptr64) __ptr64
??0_Locinfo@std@@QEAA@AEBV01@@Z
; public: __cdecl std::_Locinfo::_Locinfo(int,char const * __ptr64) __ptr64
??0_Locinfo@std@@QEAA@HPEBD@Z
; public: __cdecl std::_Locinfo::_Locinfo(char const * __ptr64) __ptr64
??0_Locinfo@std@@QEAA@PEBD@Z
; public: __cdecl std::_Lockit::_Lockit(void) __ptr64
??0_Lockit@std@@QEAA@XZ
; public: __cdecl std::_Timevec::_Timevec(class _Timevec::_Timevec const & __ptr64) __ptr64
??0_Timevec@std@@QEAA@AEBV01@@Z
; public: __cdecl std::_Timevec::_Timevec(void * __ptr64) __ptr64
??0_Timevec@std@@QEAA@PEAX@Z
; public: __cdecl std::_Winit::_Winit(void) __ptr64
??0_Winit@std@@QEAA@XZ
; public: __cdecl std::__non_rtti_object::__non_rtti_object(class __non_rtti_object::__non_rtti_object const & __ptr64) __ptr64
??0__non_rtti_object@std@@QEAA@AEBV01@@Z
; public: __cdecl std::__non_rtti_object::__non_rtti_object(char const * __ptr64) __ptr64
??0__non_rtti_object@std@@QEAA@PEBD@Z
; public: __cdecl std::bad_alloc::bad_alloc(class bad_alloc::bad_alloc const & __ptr64) __ptr64
??0bad_alloc@std@@QEAA@AEBV01@@Z
; public: __cdecl std::bad_alloc::bad_alloc(char const * __ptr64) __ptr64
??0bad_alloc@std@@QEAA@PEBD@Z
; public: __cdecl std::bad_cast::bad_cast(class bad_cast::bad_cast const & __ptr64) __ptr64
??0bad_cast@std@@QEAA@AEBV01@@Z
; public: __cdecl std::bad_cast::bad_cast(char const * __ptr64) __ptr64
??0bad_cast@std@@QEAA@PEBD@Z
; public: __cdecl std::bad_exception::bad_exception(class bad_exception::bad_exception const & __ptr64) __ptr64
??0bad_exception@std@@QEAA@AEBV01@@Z
; public: __cdecl std::bad_exception::bad_exception(char const * __ptr64) __ptr64
??0bad_exception@std@@QEAA@PEBD@Z
; public: __cdecl std::bad_typeid::bad_typeid(class bad_typeid::bad_typeid const & __ptr64) __ptr64
??0bad_typeid@std@@QEAA@AEBV01@@Z
; public: __cdecl std::bad_typeid::bad_typeid(char const * __ptr64) __ptr64
??0bad_typeid@std@@QEAA@PEBD@Z
; public: __cdecl std::codecvt_base::codecvt_base(unsigned __int64) __ptr64
??0codecvt_base@std@@QEAA@_K@Z
; public: __cdecl std::ctype_base::ctype_base(unsigned __int64) __ptr64
??0ctype_base@std@@QEAA@_K@Z
; public: __cdecl std::domain_error::domain_error(class domain_error::domain_error const & __ptr64) __ptr64
??0domain_error@std@@QEAA@AEBV01@@Z
; public: __cdecl std::domain_error::domain_error(class domain_error::basic_string<char,struct std::char_traits<char>,class std::allocator<char> > const & __ptr64) __ptr64
??0domain_error@std@@QEAA@AEBV?$basic_string@DU?$char_traits@D@std@@V?$allocator@D@2@@1@@Z
; protected: __cdecl std::locale::facet::facet(unsigned __int64) __ptr64
??0facet@locale@std@@IEAA@_K@Z
; protected: __cdecl std::ios_base::ios_base(void) __ptr64
??0ios_base@std@@IEAA@XZ
; public: __cdecl std::ios_base::ios_base(class ios_base::ios_base const & __ptr64) __ptr64
??0ios_base@std@@QEAA@AEBV01@@Z
; public: __cdecl std::length_error::length_error(class length_error::length_error const & __ptr64) __ptr64
??0length_error@std@@QEAA@AEBV01@@Z
; public: __cdecl std::length_error::length_error(class length_error::basic_string<char,struct std::char_traits<char>,class std::allocator<char> > const & __ptr64) __ptr64
??0length_error@std@@QEAA@AEBV?$basic_string@DU?$char_traits@D@std@@V?$allocator@D@2@@1@@Z
; private: __cdecl std::locale::locale(class locale::locale::_Locimp * __ptr64) __ptr64
??0locale@std@@AEAA@PEAV_Locimp@01@@Z
; public: __cdecl std::locale::locale(class locale::locale const & __ptr64,class locale::locale const & __ptr64,int) __ptr64
??0locale@std@@QEAA@AEBV01@0H@Z
; public: __cdecl std::locale::locale(class locale::locale const & __ptr64) __ptr64
??0locale@std@@QEAA@AEBV01@@Z
; public: __cdecl std::locale::locale(class locale::locale const & __ptr64,char const * __ptr64,int) __ptr64
??0locale@std@@QEAA@AEBV01@PEBDH@Z
; public: __cdecl std::locale::locale(char const * __ptr64,int) __ptr64
??0locale@std@@QEAA@PEBDH@Z
; public: __cdecl std::locale::locale(enum locale::_Uninitialized) __ptr64
??0locale@std@@QEAA@W4_Uninitialized@1@@Z
; public: __cdecl std::locale::locale(void) __ptr64
??0locale@std@@QEAA@XZ
; public: __cdecl std::logic_error::logic_error(class logic_error::logic_error const & __ptr64) __ptr64
??0logic_error@std@@QEAA@AEBV01@@Z
; public: __cdecl std::logic_error::logic_error(class logic_error::basic_string<char,struct std::char_traits<char>,class std::allocator<char> > const & __ptr64) __ptr64
??0logic_error@std@@QEAA@AEBV?$basic_string@DU?$char_traits@D@std@@V?$allocator@D@2@@1@@Z
; public: __cdecl std::messages_base::messages_base(unsigned __int64) __ptr64
??0messages_base@std@@QEAA@_K@Z
; public: __cdecl std::money_base::money_base(unsigned __int64) __ptr64
??0money_base@std@@QEAA@_K@Z
; public: __cdecl std::ostrstream::ostrstream(char * __ptr64,__int64,int) __ptr64
??0ostrstream@std@@QEAA@PEAD_JH@Z
; public: __cdecl std::out_of_range::out_of_range(class out_of_range::out_of_range const & __ptr64) __ptr64
??0out_of_range@std@@QEAA@AEBV01@@Z
; public: __cdecl std::out_of_range::out_of_range(class out_of_range::basic_string<char,struct std::char_traits<char>,class std::allocator<char> > const & __ptr64) __ptr64
??0out_of_range@std@@QEAA@AEBV?$basic_string@DU?$char_traits@D@std@@V?$allocator@D@2@@1@@Z
; public: __cdecl std::overflow_error::overflow_error(class overflow_error::overflow_error const & __ptr64) __ptr64
??0overflow_error@std@@QEAA@AEBV01@@Z
; public: __cdecl std::overflow_error::overflow_error(class overflow_error::basic_string<char,struct std::char_traits<char>,class std::allocator<char> > const & __ptr64) __ptr64
??0overflow_error@std@@QEAA@AEBV?$basic_string@DU?$char_traits@D@std@@V?$allocator@D@2@@1@@Z
; public: __cdecl std::range_error::range_error(class range_error::range_error const & __ptr64) __ptr64
??0range_error@std@@QEAA@AEBV01@@Z
; public: __cdecl std::range_error::range_error(class range_error::basic_string<char,struct std::char_traits<char>,class std::allocator<char> > const & __ptr64) __ptr64
??0range_error@std@@QEAA@AEBV?$basic_string@DU?$char_traits@D@std@@V?$allocator@D@2@@1@@Z
; public: __cdecl std::runtime_error::runtime_error(class runtime_error::runtime_error const & __ptr64) __ptr64
??0runtime_error@std@@QEAA@AEBV01@@Z
; public: __cdecl std::runtime_error::runtime_error(class runtime_error::basic_string<char,struct std::char_traits<char>,class std::allocator<char> > const & __ptr64) __ptr64
??0runtime_error@std@@QEAA@AEBV?$basic_string@DU?$char_traits@D@std@@V?$allocator@D@2@@1@@Z
; public: __cdecl std::strstream::strstream(char * __ptr64,__int64,int) __ptr64
??0strstream@std@@QEAA@PEAD_JH@Z
; public: __cdecl std::time_base::time_base(unsigned __int64) __ptr64
??0time_base@std@@QEAA@_K@Z
; public: __cdecl std::underflow_error::underflow_error(class underflow_error::underflow_error const & __ptr64) __ptr64
??0underflow_error@std@@QEAA@AEBV01@@Z
; public: __cdecl std::underflow_error::underflow_error(class underflow_error::basic_string<char,struct std::char_traits<char>,class std::allocator<char> > const & __ptr64) __ptr64
??0underflow_error@std@@QEAA@AEBV?$basic_string@DU?$char_traits@D@std@@V?$allocator@D@2@@1@@Z
; public: virtual __cdecl std::_Mpunct<char>::~_Mpunct<char>(void) __ptr64
??1?$_Mpunct@D@std@@UEAA@XZ
; public: virtual __cdecl std::_Mpunct<unsigned short>::~_Mpunct<unsigned short>(void) __ptr64
??1?$_Mpunct@G@std@@UEAA@XZ
; public: virtual __cdecl std::basic_filebuf<char,struct std::char_traits<char> >::~basic_filebuf<char,struct std::char_traits<char> >(void) __ptr64
??1?$basic_filebuf@DU?$char_traits@D@std@@@std@@UEAA@XZ
; public: virtual __cdecl std::basic_filebuf<unsigned short,struct std::char_traits<unsigned short> >::~basic_filebuf<unsigned short,struct std::char_traits<unsigned short> >(void) __ptr64
??1?$basic_filebuf@GU?$char_traits@G@std@@@std@@UEAA@XZ
; public: virtual __cdecl std::basic_fstream<char,struct std::char_traits<char> >::~basic_fstream<char,struct std::char_traits<char> >(void) __ptr64
??1?$basic_fstream@DU?$char_traits@D@std@@@std@@UEAA@XZ
; public: virtual __cdecl std::basic_fstream<unsigned short,struct std::char_traits<unsigned short> >::~basic_fstream<unsigned short,struct std::char_traits<unsigned short> >(void) __ptr64
??1?$basic_fstream@GU?$char_traits@G@std@@@std@@UEAA@XZ
; public: virtual __cdecl std::basic_ifstream<char,struct std::char_traits<char> >::~basic_ifstream<char,struct std::char_traits<char> >(void) __ptr64
??1?$basic_ifstream@DU?$char_traits@D@std@@@std@@UEAA@XZ
; public: virtual __cdecl std::basic_ifstream<unsigned short,struct std::char_traits<unsigned short> >::~basic_ifstream<unsigned short,struct std::char_traits<unsigned short> >(void) __ptr64
??1?$basic_ifstream@GU?$char_traits@G@std@@@std@@UEAA@XZ
; public: virtual __cdecl std::basic_ios<char,struct std::char_traits<char> >::~basic_ios<char,struct std::char_traits<char> >(void) __ptr64
??1?$basic_ios@DU?$char_traits@D@std@@@std@@UEAA@XZ
; public: virtual __cdecl std::basic_ios<unsigned short,struct std::char_traits<unsigned short> >::~basic_ios<unsigned short,struct std::char_traits<unsigned short> >(void) __ptr64
??1?$basic_ios@GU?$char_traits@G@std@@@std@@UEAA@XZ
; public: virtual __cdecl std::basic_iostream<char,struct std::char_traits<char> >::~basic_iostream<char,struct std::char_traits<char> >(void) __ptr64
??1?$basic_iostream@DU?$char_traits@D@std@@@std@@UEAA@XZ
; public: virtual __cdecl std::basic_iostream<unsigned short,struct std::char_traits<unsigned short> >::~basic_iostream<unsigned short,struct std::char_traits<unsigned short> >(void) __ptr64
??1?$basic_iostream@GU?$char_traits@G@std@@@std@@UEAA@XZ
; public: virtual __cdecl std::basic_istream<char,struct std::char_traits<char> >::~basic_istream<char,struct std::char_traits<char> >(void) __ptr64
??1?$basic_istream@DU?$char_traits@D@std@@@std@@UEAA@XZ
; public: virtual __cdecl std::basic_istream<unsigned short,struct std::char_traits<unsigned short> >::~basic_istream<unsigned short,struct std::char_traits<unsigned short> >(void) __ptr64
??1?$basic_istream@GU?$char_traits@G@std@@@std@@UEAA@XZ
; public: virtual __cdecl std::basic_istringstream<char,struct std::char_traits<char>,class std::allocator<char> >::~basic_istringstream<char,struct std::char_traits<char>,class std::allocator<char> >(void) __ptr64
??1?$basic_istringstream@DU?$char_traits@D@std@@V?$allocator@D@2@@std@@UEAA@XZ
; public: virtual __cdecl std::basic_istringstream<unsigned short,struct std::char_traits<unsigned short>,class std::allocator<unsigned short> >::~basic_istringstream<unsigned short,struct std::char_traits<unsigned short>,class std::allocator<unsigned short> >(void) __ptr64
??1?$basic_istringstream@GU?$char_traits@G@std@@V?$allocator@G@2@@std@@UEAA@XZ
; public: virtual __cdecl std::basic_ofstream<char,struct std::char_traits<char> >::~basic_ofstream<char,struct std::char_traits<char> >(void) __ptr64
??1?$basic_ofstream@DU?$char_traits@D@std@@@std@@UEAA@XZ
; public: virtual __cdecl std::basic_ofstream<unsigned short,struct std::char_traits<unsigned short> >::~basic_ofstream<unsigned short,struct std::char_traits<unsigned short> >(void) __ptr64
??1?$basic_ofstream@GU?$char_traits@G@std@@@std@@UEAA@XZ
; public: virtual __cdecl std::basic_ostream<char,struct std::char_traits<char> >::~basic_ostream<char,struct std::char_traits<char> >(void) __ptr64
??1?$basic_ostream@DU?$char_traits@D@std@@@std@@UEAA@XZ
; public: virtual __cdecl std::basic_ostream<unsigned short,struct std::char_traits<unsigned short> >::~basic_ostream<unsigned short,struct std::char_traits<unsigned short> >(void) __ptr64
??1?$basic_ostream@GU?$char_traits@G@std@@@std@@UEAA@XZ
; public: virtual __cdecl std::basic_ostringstream<char,struct std::char_traits<char>,class std::allocator<char> >::~basic_ostringstream<char,struct std::char_traits<char>,class std::allocator<char> >(void) __ptr64
??1?$basic_ostringstream@DU?$char_traits@D@std@@V?$allocator@D@2@@std@@UEAA@XZ
; public: virtual __cdecl std::basic_ostringstream<unsigned short,struct std::char_traits<unsigned short>,class std::allocator<unsigned short> >::~basic_ostringstream<unsigned short,struct std::char_traits<unsigned short>,class std::allocator<unsigned short> >(void) __ptr64
??1?$basic_ostringstream@GU?$char_traits@G@std@@V?$allocator@G@2@@std@@UEAA@XZ
; public: virtual __cdecl std::basic_streambuf<char,struct std::char_traits<char> >::~basic_streambuf<char,struct std::char_traits<char> >(void) __ptr64
??1?$basic_streambuf@DU?$char_traits@D@std@@@std@@UEAA@XZ
; public: virtual __cdecl std::basic_streambuf<unsigned short,struct std::char_traits<unsigned short> >::~basic_streambuf<unsigned short,struct std::char_traits<unsigned short> >(void) __ptr64
??1?$basic_streambuf@GU?$char_traits@G@std@@@std@@UEAA@XZ
; public: __cdecl std::basic_string<char,struct std::char_traits<char>,class std::allocator<char> >::~basic_string<char,struct std::char_traits<char>,class std::allocator<char> >(void) __ptr64
??1?$basic_string@DU?$char_traits@D@std@@V?$allocator@D@2@@std@@QEAA@XZ
; public: __cdecl std::basic_string<unsigned short,struct std::char_traits<unsigned short>,class std::allocator<unsigned short> >::~basic_string<unsigned short,struct std::char_traits<unsigned short>,class std::allocator<unsigned short> >(void) __ptr64
??1?$basic_string@GU?$char_traits@G@std@@V?$allocator@G@2@@std@@QEAA@XZ
; public: virtual __cdecl std::basic_stringbuf<char,struct std::char_traits<char>,class std::allocator<char> >::~basic_stringbuf<char,struct std::char_traits<char>,class std::allocator<char> >(void) __ptr64
??1?$basic_stringbuf@DU?$char_traits@D@std@@V?$allocator@D@2@@std@@UEAA@XZ
; public: virtual __cdecl std::basic_stringbuf<unsigned short,struct std::char_traits<unsigned short>,class std::allocator<unsigned short> >::~basic_stringbuf<unsigned short,struct std::char_traits<unsigned short>,class std::allocator<unsigned short> >(void) __ptr64
??1?$basic_stringbuf@GU?$char_traits@G@std@@V?$allocator@G@2@@std@@UEAA@XZ
; public: virtual __cdecl std::basic_stringstream<char,struct std::char_traits<char>,class std::allocator<char> >::~basic_stringstream<char,struct std::char_traits<char>,class std::allocator<char> >(void) __ptr64
??1?$basic_stringstream@DU?$char_traits@D@std@@V?$allocator@D@2@@std@@UEAA@XZ
; public: virtual __cdecl std::basic_stringstream<unsigned short,struct std::char_traits<unsigned short>,class std::allocator<unsigned short> >::~basic_stringstream<unsigned short,struct std::char_traits<unsigned short>,class std::allocator<unsigned short> >(void) __ptr64
??1?$basic_stringstream@GU?$char_traits@G@std@@V?$allocator@G@2@@std@@UEAA@XZ
; public: virtual __cdecl std::codecvt<char,char,int>::~codecvt<char,char,int>(void) __ptr64
??1?$codecvt@DDH@std@@UEAA@XZ
; public: virtual __cdecl std::codecvt<unsigned short,char,int>::~codecvt<unsigned short,char,int>(void) __ptr64
??1?$codecvt@GDH@std@@UEAA@XZ
; public: virtual __cdecl std::collate<char>::~collate<char>(void) __ptr64
??1?$collate@D@std@@UEAA@XZ
; public: virtual __cdecl std::collate<unsigned short>::~collate<unsigned short>(void) __ptr64
??1?$collate@G@std@@UEAA@XZ
; public: virtual __cdecl std::ctype<char>::~ctype<char>(void) __ptr64
??1?$ctype@D@std@@UEAA@XZ
; public: virtual __cdecl std::ctype<unsigned short>::~ctype<unsigned short>(void) __ptr64
??1?$ctype@G@std@@UEAA@XZ
; public: virtual __cdecl std::messages<char>::~messages<char>(void) __ptr64
??1?$messages@D@std@@UEAA@XZ
; public: virtual __cdecl std::messages<unsigned short>::~messages<unsigned short>(void) __ptr64
??1?$messages@G@std@@UEAA@XZ
; public: virtual __cdecl std::money_get<char,class std::istreambuf_iterator<char,struct std::char_traits<char> > >::~money_get<char,class std::istreambuf_iterator<char,struct std::char_traits<char> > >(void) __ptr64
??1?$money_get@DV?$istreambuf_iterator@DU?$char_traits@D@std@@@std@@@std@@UEAA@XZ
; public: virtual __cdecl std::money_get<unsigned short,class std::istreambuf_iterator<unsigned short,struct std::char_traits<unsigned short> > >::~money_get<unsigned short,class std::istreambuf_iterator<unsigned short,struct std::char_traits<unsigned short> > >(void) __ptr64
??1?$money_get@GV?$istreambuf_iterator@GU?$char_traits@G@std@@@std@@@std@@UEAA@XZ
; public: virtual __cdecl std::money_put<char,class std::ostreambuf_iterator<char,struct std::char_traits<char> > >::~money_put<char,class std::ostreambuf_iterator<char,struct std::char_traits<char> > >(void) __ptr64
??1?$money_put@DV?$ostreambuf_iterator@DU?$char_traits@D@std@@@std@@@std@@UEAA@XZ
; public: virtual __cdecl std::money_put<unsigned short,class std::ostreambuf_iterator<unsigned short,struct std::char_traits<unsigned short> > >::~money_put<unsigned short,class std::ostreambuf_iterator<unsigned short,struct std::char_traits<unsigned short> > >(void) __ptr64
??1?$money_put@GV?$ostreambuf_iterator@GU?$char_traits@G@std@@@std@@@std@@UEAA@XZ
; public: virtual __cdecl std::moneypunct<char,1>::~moneypunct<char,1>(void) __ptr64
??1?$moneypunct@D$00@std@@UEAA@XZ
; public: virtual __cdecl std::moneypunct<char,0>::~moneypunct<char,0>(void) __ptr64
??1?$moneypunct@D$0A@@std@@UEAA@XZ
; public: virtual __cdecl std::moneypunct<unsigned short,1>::~moneypunct<unsigned short,1>(void) __ptr64
??1?$moneypunct@G$00@std@@UEAA@XZ
; public: virtual __cdecl std::moneypunct<unsigned short,0>::~moneypunct<unsigned short,0>(void) __ptr64
??1?$moneypunct@G$0A@@std@@UEAA@XZ
; public: virtual __cdecl std::num_get<char,class std::istreambuf_iterator<char,struct std::char_traits<char> > >::~num_get<char,class std::istreambuf_iterator<char,struct std::char_traits<char> > >(void) __ptr64
??1?$num_get@DV?$istreambuf_iterator@DU?$char_traits@D@std@@@std@@@std@@UEAA@XZ
; public: virtual __cdecl std::num_get<unsigned short,class std::istreambuf_iterator<unsigned short,struct std::char_traits<unsigned short> > >::~num_get<unsigned short,class std::istreambuf_iterator<unsigned short,struct std::char_traits<unsigned short> > >(void) __ptr64
??1?$num_get@GV?$istreambuf_iterator@GU?$char_traits@G@std@@@std@@@std@@UEAA@XZ
; public: virtual __cdecl std::num_put<char,class std::ostreambuf_iterator<char,struct std::char_traits<char> > >::~num_put<char,class std::ostreambuf_iterator<char,struct std::char_traits<char> > >(void) __ptr64
??1?$num_put@DV?$ostreambuf_iterator@DU?$char_traits@D@std@@@std@@@std@@UEAA@XZ
; public: virtual __cdecl std::num_put<unsigned short,class std::ostreambuf_iterator<unsigned short,struct std::char_traits<unsigned short> > >::~num_put<unsigned short,class std::ostreambuf_iterator<unsigned short,struct std::char_traits<unsigned short> > >(void) __ptr64
??1?$num_put@GV?$ostreambuf_iterator@GU?$char_traits@G@std@@@std@@@std@@UEAA@XZ
; public: virtual __cdecl std::numpunct<char>::~numpunct<char>(void) __ptr64
??1?$numpunct@D@std@@UEAA@XZ
; public: virtual __cdecl std::numpunct<unsigned short>::~numpunct<unsigned short>(void) __ptr64
??1?$numpunct@G@std@@UEAA@XZ
; public: virtual __cdecl std::time_get<char,class std::istreambuf_iterator<char,struct std::char_traits<char> > >::~time_get<char,class std::istreambuf_iterator<char,struct std::char_traits<char> > >(void) __ptr64
??1?$time_get@DV?$istreambuf_iterator@DU?$char_traits@D@std@@@std@@@std@@UEAA@XZ
; public: virtual __cdecl std::time_get<unsigned short,class std::istreambuf_iterator<unsigned short,struct std::char_traits<unsigned short> > >::~time_get<unsigned short,class std::istreambuf_iterator<unsigned short,struct std::char_traits<unsigned short> > >(void) __ptr64
??1?$time_get@GV?$istreambuf_iterator@GU?$char_traits@G@std@@@std@@@std@@UEAA@XZ
; public: virtual __cdecl std::time_put<char,class std::ostreambuf_iterator<char,struct std::char_traits<char> > >::~time_put<char,class std::ostreambuf_iterator<char,struct std::char_traits<char> > >(void) __ptr64
??1?$time_put@DV?$ostreambuf_iterator@DU?$char_traits@D@std@@@std@@@std@@UEAA@XZ
; public: virtual __cdecl std::time_put<unsigned short,class std::ostreambuf_iterator<unsigned short,struct std::char_traits<unsigned short> > >::~time_put<unsigned short,class std::ostreambuf_iterator<unsigned short,struct std::char_traits<unsigned short> > >(void) __ptr64
??1?$time_put@GV?$ostreambuf_iterator@GU?$char_traits@G@std@@@std@@@std@@UEAA@XZ
; public: __cdecl std::ios_base::Init::~Init(void) __ptr64
??1Init@ios_base@std@@QEAA@XZ
; public: __cdecl std::_Locinfo::~_Locinfo(void) __ptr64
??1_Locinfo@std@@QEAA@XZ
; public: __cdecl std::_Lockit::~_Lockit(void) __ptr64
??1_Lockit@std@@QEAA@XZ
; public: __cdecl std::_Timevec::~_Timevec(void) __ptr64
??1_Timevec@std@@QEAA@XZ
; public: __cdecl std::_Winit::~_Winit(void) __ptr64
??1_Winit@std@@QEAA@XZ
; public: virtual __cdecl std::__non_rtti_object::~__non_rtti_object(void) __ptr64
??1__non_rtti_object@std@@UEAA@XZ
; public: virtual __cdecl std::bad_alloc::~bad_alloc(void) __ptr64
??1bad_alloc@std@@UEAA@XZ
; public: virtual __cdecl std::bad_cast::~bad_cast(void) __ptr64
??1bad_cast@std@@UEAA@XZ
; public: virtual __cdecl std::bad_exception::~bad_exception(void) __ptr64
??1bad_exception@std@@UEAA@XZ
; public: virtual __cdecl std::bad_typeid::~bad_typeid(void) __ptr64
??1bad_typeid@std@@UEAA@XZ
; public: virtual __cdecl std::codecvt_base::~codecvt_base(void) __ptr64
??1codecvt_base@std@@UEAA@XZ
; public: virtual __cdecl std::ctype_base::~ctype_base(void) __ptr64
??1ctype_base@std@@UEAA@XZ
; public: virtual __cdecl std::domain_error::~domain_error(void) __ptr64
??1domain_error@std@@UEAA@XZ
; public: virtual __cdecl std::locale::facet::~facet(void) __ptr64
??1facet@locale@std@@UEAA@XZ
; public: virtual __cdecl std::ios_base::~ios_base(void) __ptr64
??1ios_base@std@@UEAA@XZ
; public: virtual __cdecl std::istrstream::~istrstream(void) __ptr64
??1istrstream@std@@UEAA@XZ
; public: virtual __cdecl std::length_error::~length_error(void) __ptr64
??1length_error@std@@UEAA@XZ
; public: __cdecl std::locale::~locale(void) __ptr64
??1locale@std@@QEAA@XZ
; public: virtual __cdecl std::logic_error::~logic_error(void) __ptr64
??1logic_error@std@@UEAA@XZ
; public: virtual __cdecl std::messages_base::~messages_base(void) __ptr64
??1messages_base@std@@UEAA@XZ
; public: virtual __cdecl std::money_base::~money_base(void) __ptr64
??1money_base@std@@UEAA@XZ
; public: virtual __cdecl std::ostrstream::~ostrstream(void) __ptr64
??1ostrstream@std@@UEAA@XZ
; public: virtual __cdecl std::out_of_range::~out_of_range(void) __ptr64
??1out_of_range@std@@UEAA@XZ
; public: virtual __cdecl std::overflow_error::~overflow_error(void) __ptr64
??1overflow_error@std@@UEAA@XZ
; public: virtual __cdecl std::range_error::~range_error(void) __ptr64
??1range_error@std@@UEAA@XZ
; public: virtual __cdecl std::runtime_error::~runtime_error(void) __ptr64
??1runtime_error@std@@UEAA@XZ
; public: virtual __cdecl std::strstream::~strstream(void) __ptr64
??1strstream@std@@UEAA@XZ
; public: virtual __cdecl std::strstreambuf::~strstreambuf(void) __ptr64
??1strstreambuf@std@@UEAA@XZ
; public: virtual __cdecl std::time_base::~time_base(void) __ptr64
??1time_base@std@@UEAA@XZ
; public: virtual __cdecl std::underflow_error::~underflow_error(void) __ptr64
??1underflow_error@std@@UEAA@XZ
; public: class std::_Complex_base<float> & __ptr64 __cdecl std::_Complex_base<float>::operator=(class std::_Complex_base<float> const & __ptr64) __ptr64
??4?$_Complex_base@M@std@@QEAAAEAV01@AEBV01@@Z
; public: class std::_Complex_base<double> & __ptr64 __cdecl std::_Complex_base<double>::operator=(class std::_Complex_base<double> const & __ptr64) __ptr64
??4?$_Complex_base@N@std@@QEAAAEAV01@AEBV01@@Z
; public: class std::_Complex_base<long double> & __ptr64 __cdecl std::_Complex_base<long double>::operator=(class std::_Complex_base<long double> const & __ptr64) __ptr64
??4?$_Complex_base@O@std@@QEAAAEAV01@AEBV01@@Z
; public: class std::_Ctr<float> & __ptr64 __cdecl std::_Ctr<float>::operator=(class std::_Ctr<float> const & __ptr64) __ptr64
??4?$_Ctr@M@std@@QEAAAEAV01@AEBV01@@Z
; public: class std::_Ctr<double> & __ptr64 __cdecl std::_Ctr<double>::operator=(class std::_Ctr<double> const & __ptr64) __ptr64
??4?$_Ctr@N@std@@QEAAAEAV01@AEBV01@@Z
; public: class std::_Ctr<long double> & __ptr64 __cdecl std::_Ctr<long double>::operator=(class std::_Ctr<long double> const & __ptr64) __ptr64
??4?$_Ctr@O@std@@QEAAAEAV01@AEBV01@@Z
; public: class std::allocator<void> & __ptr64 __cdecl std::allocator<void>::operator=(class std::allocator<void> const & __ptr64) __ptr64
??4?$allocator@X@std@@QEAAAEAV01@AEBV01@@Z
; public: class std::basic_filebuf<char,struct std::char_traits<char> > & __ptr64 __cdecl std::basic_filebuf<char,struct std::char_traits<char> >::operator=(class std::basic_filebuf<char,struct std::char_traits<char> > const & __ptr64) __ptr64
??4?$basic_filebuf@DU?$char_traits@D@std@@@std@@QEAAAEAV01@AEBV01@@Z
; public: class std::basic_filebuf<unsigned short,struct std::char_traits<unsigned short> > & __ptr64 __cdecl std::basic_filebuf<unsigned short,struct std::char_traits<unsigned short> >::operator=(class std::basic_filebuf<unsigned short,struct std::char_traits<unsigned short> > const & __ptr64) __ptr64
??4?$basic_filebuf@GU?$char_traits@G@std@@@std@@QEAAAEAV01@AEBV01@@Z
; public: class std::basic_fstream<char,struct std::char_traits<char> > & __ptr64 __cdecl std::basic_fstream<char,struct std::char_traits<char> >::operator=(class std::basic_fstream<char,struct std::char_traits<char> > const & __ptr64) __ptr64
??4?$basic_fstream@DU?$char_traits@D@std@@@std@@QEAAAEAV01@AEBV01@@Z
; public: class std::basic_fstream<unsigned short,struct std::char_traits<unsigned short> > & __ptr64 __cdecl std::basic_fstream<unsigned short,struct std::char_traits<unsigned short> >::operator=(class std::basic_fstream<unsigned short,struct std::char_traits<unsigned short> > const & __ptr64) __ptr64
??4?$basic_fstream@GU?$char_traits@G@std@@@std@@QEAAAEAV01@AEBV01@@Z
; public: class std::basic_ifstream<char,struct std::char_traits<char> > & __ptr64 __cdecl std::basic_ifstream<char,struct std::char_traits<char> >::operator=(class std::basic_ifstream<char,struct std::char_traits<char> > const & __ptr64) __ptr64
??4?$basic_ifstream@DU?$char_traits@D@std@@@std@@QEAAAEAV01@AEBV01@@Z
; public: class std::basic_ifstream<unsigned short,struct std::char_traits<unsigned short> > & __ptr64 __cdecl std::basic_ifstream<unsigned short,struct std::char_traits<unsigned short> >::operator=(class std::basic_ifstream<unsigned short,struct std::char_traits<unsigned short> > const & __ptr64) __ptr64
??4?$basic_ifstream@GU?$char_traits@G@std@@@std@@QEAAAEAV01@AEBV01@@Z
; public: class std::basic_ios<char,struct std::char_traits<char> > & __ptr64 __cdecl std::basic_ios<char,struct std::char_traits<char> >::operator=(class std::basic_ios<char,struct std::char_traits<char> > const & __ptr64) __ptr64
??4?$basic_ios@DU?$char_traits@D@std@@@std@@QEAAAEAV01@AEBV01@@Z
; public: class std::basic_ios<unsigned short,struct std::char_traits<unsigned short> > & __ptr64 __cdecl std::basic_ios<unsigned short,struct std::char_traits<unsigned short> >::operator=(class std::basic_ios<unsigned short,struct std::char_traits<unsigned short> > const & __ptr64) __ptr64
??4?$basic_ios@GU?$char_traits@G@std@@@std@@QEAAAEAV01@AEBV01@@Z
; public: class std::basic_iostream<char,struct std::char_traits<char> > & __ptr64 __cdecl std::basic_iostream<char,struct std::char_traits<char> >::operator=(class std::basic_iostream<char,struct std::char_traits<char> > const & __ptr64) __ptr64
??4?$basic_iostream@DU?$char_traits@D@std@@@std@@QEAAAEAV01@AEBV01@@Z
; public: class std::basic_iostream<unsigned short,struct std::char_traits<unsigned short> > & __ptr64 __cdecl std::basic_iostream<unsigned short,struct std::char_traits<unsigned short> >::operator=(class std::basic_iostream<unsigned short,struct std::char_traits<unsigned short> > const & __ptr64) __ptr64
??4?$basic_iostream@GU?$char_traits@G@std@@@std@@QEAAAEAV01@AEBV01@@Z
; public: class std::basic_istream<char,struct std::char_traits<char> > & __ptr64 __cdecl std::basic_istream<char,struct std::char_traits<char> >::operator=(class std::basic_istream<char,struct std::char_traits<char> > const & __ptr64) __ptr64
??4?$basic_istream@DU?$char_traits@D@std@@@std@@QEAAAEAV01@AEBV01@@Z
; public: class std::basic_istream<unsigned short,struct std::char_traits<unsigned short> > & __ptr64 __cdecl std::basic_istream<unsigned short,struct std::char_traits<unsigned short> >::operator=(class std::basic_istream<unsigned short,struct std::char_traits<unsigned short> > const & __ptr64) __ptr64
??4?$basic_istream@GU?$char_traits@G@std@@@std@@QEAAAEAV01@AEBV01@@Z
; public: class std::basic_istringstream<char,struct std::char_traits<char>,class std::allocator<char> > & __ptr64 __cdecl std::basic_istringstream<char,struct std::char_traits<char>,class std::allocator<char> >::operator=(class std::basic_istringstream<char,struct std::char_traits<char>,class std::allocator<char> > const & __ptr64) __ptr64
??4?$basic_istringstream@DU?$char_traits@D@std@@V?$allocator@D@2@@std@@QEAAAEAV01@AEBV01@@Z
; public: class std::basic_istringstream<unsigned short,struct std::char_traits<unsigned short>,class std::allocator<unsigned short> > & __ptr64 __cdecl std::basic_istringstream<unsigned short,struct std::char_traits<unsigned short>,class std::allocator<unsigned short> >::operator=(class std::basic_istringstream<unsigned short,struct std::char_traits<unsigned short>,class std::allocator<unsigned short> > const & __ptr64) __ptr64
??4?$basic_istringstream@GU?$char_traits@G@std@@V?$allocator@G@2@@std@@QEAAAEAV01@AEBV01@@Z
; public: class std::basic_ofstream<char,struct std::char_traits<char> > & __ptr64 __cdecl std::basic_ofstream<char,struct std::char_traits<char> >::operator=(class std::basic_ofstream<char,struct std::char_traits<char> > const & __ptr64) __ptr64
??4?$basic_ofstream@DU?$char_traits@D@std@@@std@@QEAAAEAV01@AEBV01@@Z
; public: class std::basic_ofstream<unsigned short,struct std::char_traits<unsigned short> > & __ptr64 __cdecl std::basic_ofstream<unsigned short,struct std::char_traits<unsigned short> >::operator=(class std::basic_ofstream<unsigned short,struct std::char_traits<unsigned short> > const & __ptr64) __ptr64
??4?$basic_ofstream@GU?$char_traits@G@std@@@std@@QEAAAEAV01@AEBV01@@Z
; public: class std::basic_ostream<char,struct std::char_traits<char> > & __ptr64 __cdecl std::basic_ostream<char,struct std::char_traits<char> >::operator=(class std::basic_ostream<char,struct std::char_traits<char> > const & __ptr64) __ptr64
??4?$basic_ostream@DU?$char_traits@D@std@@@std@@QEAAAEAV01@AEBV01@@Z
; public: class std::basic_ostream<unsigned short,struct std::char_traits<unsigned short> > & __ptr64 __cdecl std::basic_ostream<unsigned short,struct std::char_traits<unsigned short> >::operator=(class std::basic_ostream<unsigned short,struct std::char_traits<unsigned short> > const & __ptr64) __ptr64
??4?$basic_ostream@GU?$char_traits@G@std@@@std@@QEAAAEAV01@AEBV01@@Z
; public: class std::basic_ostringstream<char,struct std::char_traits<char>,class std::allocator<char> > & __ptr64 __cdecl std::basic_ostringstream<char,struct std::char_traits<char>,class std::allocator<char> >::operator=(class std::basic_ostringstream<char,struct std::char_traits<char>,class std::allocator<char> > const & __ptr64) __ptr64
??4?$basic_ostringstream@DU?$char_traits@D@std@@V?$allocator@D@2@@std@@QEAAAEAV01@AEBV01@@Z
; public: class std::basic_ostringstream<unsigned short,struct std::char_traits<unsigned short>,class std::allocator<unsigned short> > & __ptr64 __cdecl std::basic_ostringstream<unsigned short,struct std::char_traits<unsigned short>,class std::allocator<unsigned short> >::operator=(class std::basic_ostringstream<unsigned short,struct std::char_traits<unsigned short>,class std::allocator<unsigned short> > const & __ptr64) __ptr64
??4?$basic_ostringstream@GU?$char_traits@G@std@@V?$allocator@G@2@@std@@QEAAAEAV01@AEBV01@@Z
; public: class std::basic_streambuf<char,struct std::char_traits<char> > & __ptr64 __cdecl std::basic_streambuf<char,struct std::char_traits<char> >::operator=(class std::basic_streambuf<char,struct std::char_traits<char> > const & __ptr64) __ptr64
??4?$basic_streambuf@DU?$char_traits@D@std@@@std@@QEAAAEAV01@AEBV01@@Z
; public: class std::basic_streambuf<unsigned short,struct std::char_traits<unsigned short> > & __ptr64 __cdecl std::basic_streambuf<unsigned short,struct std::char_traits<unsigned short> >::operator=(class std::basic_streambuf<unsigned short,struct std::char_traits<unsigned short> > const & __ptr64) __ptr64
??4?$basic_streambuf@GU?$char_traits@G@std@@@std@@QEAAAEAV01@AEBV01@@Z
; public: class std::basic_string<char,struct std::char_traits<char>,class std::allocator<char> > & __ptr64 __cdecl std::basic_string<char,struct std::char_traits<char>,class std::allocator<char> >::operator=(class std::basic_string<char,struct std::char_traits<char>,class std::allocator<char> > const & __ptr64) __ptr64
??4?$basic_string@DU?$char_traits@D@std@@V?$allocator@D@2@@std@@QEAAAEAV01@AEBV01@@Z
; public: class std::basic_string<char,struct std::char_traits<char>,class std::allocator<char> > & __ptr64 __cdecl std::basic_string<char,struct std::char_traits<char>,class std::allocator<char> >::operator=(char) __ptr64
??4?$basic_string@DU?$char_traits@D@std@@V?$allocator@D@2@@std@@QEAAAEAV01@D@Z
; public: class std::basic_string<char,struct std::char_traits<char>,class std::allocator<char> > & __ptr64 __cdecl std::basic_string<char,struct std::char_traits<char>,class std::allocator<char> >::operator=(char const * __ptr64) __ptr64
??4?$basic_string@DU?$char_traits@D@std@@V?$allocator@D@2@@std@@QEAAAEAV01@PEBD@Z
; public: class std::basic_string<unsigned short,struct std::char_traits<unsigned short>,class std::allocator<unsigned short> > & __ptr64 __cdecl std::basic_string<unsigned short,struct std::char_traits<unsigned short>,class std::allocator<unsigned short> >::operator=(class std::basic_string<unsigned short,struct std::char_traits<unsigned short>,class std::allocator<unsigned short> > const & __ptr64) __ptr64
??4?$basic_string@GU?$char_traits@G@std@@V?$allocator@G@2@@std@@QEAAAEAV01@AEBV01@@Z
; public: class std::basic_string<unsigned short,struct std::char_traits<unsigned short>,class std::allocator<unsigned short> > & __ptr64 __cdecl std::basic_string<unsigned short,struct std::char_traits<unsigned short>,class std::allocator<unsigned short> >::operator=(unsigned short) __ptr64
??4?$basic_string@GU?$char_traits@G@std@@V?$allocator@G@2@@std@@QEAAAEAV01@G@Z
; public: class std::basic_string<unsigned short,struct std::char_traits<unsigned short>,class std::allocator<unsigned short> > & __ptr64 __cdecl std::basic_string<unsigned short,struct std::char_traits<unsigned short>,class std::allocator<unsigned short> >::operator=(unsigned short const * __ptr64) __ptr64
??4?$basic_string@GU?$char_traits@G@std@@V?$allocator@G@2@@std@@QEAAAEAV01@PEBG@Z
; public: class std::basic_stringbuf<char,struct std::char_traits<char>,class std::allocator<char> > & __ptr64 __cdecl std::basic_stringbuf<char,struct std::char_traits<char>,class std::allocator<char> >::operator=(class std::basic_stringbuf<char,struct std::char_traits<char>,class std::allocator<char> > const & __ptr64) __ptr64
??4?$basic_stringbuf@DU?$char_traits@D@std@@V?$allocator@D@2@@std@@QEAAAEAV01@AEBV01@@Z
; public: class std::basic_stringbuf<unsigned short,struct std::char_traits<unsigned short>,class std::allocator<unsigned short> > & __ptr64 __cdecl std::basic_stringbuf<unsigned short,struct std::char_traits<unsigned short>,class std::allocator<unsigned short> >::operator=(class std::basic_stringbuf<unsigned short,struct std::char_traits<unsigned short>,class std::allocator<unsigned short> > const & __ptr64) __ptr64
??4?$basic_stringbuf@GU?$char_traits@G@std@@V?$allocator@G@2@@std@@QEAAAEAV01@AEBV01@@Z
; public: class std::basic_stringstream<char,struct std::char_traits<char>,class std::allocator<char> > & __ptr64 __cdecl std::basic_stringstream<char,struct std::char_traits<char>,class std::allocator<char> >::operator=(class std::basic_stringstream<char,struct std::char_traits<char>,class std::allocator<char> > const & __ptr64) __ptr64
??4?$basic_stringstream@DU?$char_traits@D@std@@V?$allocator@D@2@@std@@QEAAAEAV01@AEBV01@@Z
; public: class std::basic_stringstream<unsigned short,struct std::char_traits<unsigned short>,class std::allocator<unsigned short> > & __ptr64 __cdecl std::basic_stringstream<unsigned short,struct std::char_traits<unsigned short>,class std::allocator<unsigned short> >::operator=(class std::basic_stringstream<unsigned short,struct std::char_traits<unsigned short>,class std::allocator<unsigned short> > const & __ptr64) __ptr64
??4?$basic_stringstream@GU?$char_traits@G@std@@V?$allocator@G@2@@std@@QEAAAEAV01@AEBV01@@Z
; public: struct std::char_traits<char> & __ptr64 __cdecl std::char_traits<char>::operator=(struct std::char_traits<char> const & __ptr64) __ptr64
??4?$char_traits@D@std@@QEAAAEAU01@AEBU01@@Z
; public: struct std::char_traits<unsigned short> & __ptr64 __cdecl std::char_traits<unsigned short>::operator=(struct std::char_traits<unsigned short> const & __ptr64) __ptr64
??4?$char_traits@G@std@@QEAAAEAU01@AEBU01@@Z
; public: class std::complex<float> & __ptr64 __cdecl std::complex<float>::operator=(float const & __ptr64) __ptr64
??4?$complex@M@std@@QEAAAEAV01@AEBM@Z
; public: class std::complex<float> & __ptr64 __cdecl std::complex<float>::operator=(class std::complex<float> const & __ptr64) __ptr64
??4?$complex@M@std@@QEAAAEAV01@AEBV01@@Z
; public: class std::complex<double> & __ptr64 __cdecl std::complex<double>::operator=(double const & __ptr64) __ptr64
??4?$complex@N@std@@QEAAAEAV01@AEBN@Z
; public: class std::complex<double> & __ptr64 __cdecl std::complex<double>::operator=(class std::complex<double> const & __ptr64) __ptr64
??4?$complex@N@std@@QEAAAEAV01@AEBV01@@Z
; public: class std::complex<long double> & __ptr64 __cdecl std::complex<long double>::operator=(long double const & __ptr64) __ptr64
??4?$complex@O@std@@QEAAAEAV01@AEBO@Z
; public: class std::complex<long double> & __ptr64 __cdecl std::complex<long double>::operator=(class std::complex<long double> const & __ptr64) __ptr64
??4?$complex@O@std@@QEAAAEAV01@AEBV01@@Z
; public: class std::numeric_limits<signed char> & __ptr64 __cdecl std::numeric_limits<signed char>::operator=(class std::numeric_limits<signed char> const & __ptr64) __ptr64
??4?$numeric_limits@C@std@@QEAAAEAV01@AEBV01@@Z
; public: class std::numeric_limits<char> & __ptr64 __cdecl std::numeric_limits<char>::operator=(class std::numeric_limits<char> const & __ptr64) __ptr64
??4?$numeric_limits@D@std@@QEAAAEAV01@AEBV01@@Z
; public: class std::numeric_limits<unsigned char> & __ptr64 __cdecl std::numeric_limits<unsigned char>::operator=(class std::numeric_limits<unsigned char> const & __ptr64) __ptr64
??4?$numeric_limits@E@std@@QEAAAEAV01@AEBV01@@Z
; public: class std::numeric_limits<short> & __ptr64 __cdecl std::numeric_limits<short>::operator=(class std::numeric_limits<short> const & __ptr64) __ptr64
??4?$numeric_limits@F@std@@QEAAAEAV01@AEBV01@@Z
; public: class std::numeric_limits<unsigned short> & __ptr64 __cdecl std::numeric_limits<unsigned short>::operator=(class std::numeric_limits<unsigned short> const & __ptr64) __ptr64
??4?$numeric_limits@G@std@@QEAAAEAV01@AEBV01@@Z
; public: class std::numeric_limits<int> & __ptr64 __cdecl std::numeric_limits<int>::operator=(class std::numeric_limits<int> const & __ptr64) __ptr64
??4?$numeric_limits@H@std@@QEAAAEAV01@AEBV01@@Z
; public: class std::numeric_limits<unsigned int> & __ptr64 __cdecl std::numeric_limits<unsigned int>::operator=(class std::numeric_limits<unsigned int> const & __ptr64) __ptr64
??4?$numeric_limits@I@std@@QEAAAEAV01@AEBV01@@Z
; public: class std::numeric_limits<long> & __ptr64 __cdecl std::numeric_limits<long>::operator=(class std::numeric_limits<long> const & __ptr64) __ptr64
??4?$numeric_limits@J@std@@QEAAAEAV01@AEBV01@@Z
; public: class std::numeric_limits<unsigned long> & __ptr64 __cdecl std::numeric_limits<unsigned long>::operator=(class std::numeric_limits<unsigned long> const & __ptr64) __ptr64
??4?$numeric_limits@K@std@@QEAAAEAV01@AEBV01@@Z
; public: class std::numeric_limits<float> & __ptr64 __cdecl std::numeric_limits<float>::operator=(class std::numeric_limits<float> const & __ptr64) __ptr64
??4?$numeric_limits@M@std@@QEAAAEAV01@AEBV01@@Z
; public: class std::numeric_limits<double> & __ptr64 __cdecl std::numeric_limits<double>::operator=(class std::numeric_limits<double> const & __ptr64) __ptr64
??4?$numeric_limits@N@std@@QEAAAEAV01@AEBV01@@Z
; public: class std::numeric_limits<long double> & __ptr64 __cdecl std::numeric_limits<long double>::operator=(class std::numeric_limits<long double> const & __ptr64) __ptr64
??4?$numeric_limits@O@std@@QEAAAEAV01@AEBV01@@Z
; public: class std::numeric_limits<bool> & __ptr64 __cdecl std::numeric_limits<bool>::operator=(class std::numeric_limits<bool> const & __ptr64) __ptr64
??4?$numeric_limits@_N@std@@QEAAAEAV01@AEBV01@@Z
; public: class std::ios_base::Init & __ptr64 __cdecl std::ios_base::Init::operator=(class std::ios_base::Init const & __ptr64) __ptr64
??4Init@ios_base@std@@QEAAAEAV012@AEBV012@@Z
; public: class std::_Locinfo & __ptr64 __cdecl std::_Locinfo::operator=(class std::_Locinfo const & __ptr64) __ptr64
??4_Locinfo@std@@QEAAAEAV01@AEBV01@@Z
; public: class std::_Lockit & __ptr64 __cdecl std::_Lockit::operator=(class std::_Lockit const & __ptr64) __ptr64
??4_Lockit@std@@QEAAAEAV01@AEBV01@@Z
; public: struct std::_Num_base & __ptr64 __cdecl std::_Num_base::operator=(struct std::_Num_base const & __ptr64) __ptr64
??4_Num_base@std@@QEAAAEAU01@AEBU01@@Z
; public: struct std::_Num_float_base & __ptr64 __cdecl std::_Num_float_base::operator=(struct std::_Num_float_base const & __ptr64) __ptr64
??4_Num_float_base@std@@QEAAAEAU01@AEBU01@@Z
; public: struct std::_Num_int_base & __ptr64 __cdecl std::_Num_int_base::operator=(struct std::_Num_int_base const & __ptr64) __ptr64
??4_Num_int_base@std@@QEAAAEAU01@AEBU01@@Z
; public: class std::_Timevec & __ptr64 __cdecl std::_Timevec::operator=(class std::_Timevec const & __ptr64) __ptr64
??4_Timevec@std@@QEAAAEAV01@AEBV01@@Z
; public: class std::_Winit & __ptr64 __cdecl std::_Winit::operator=(class std::_Winit const & __ptr64) __ptr64
??4_Winit@std@@QEAAAEAV01@AEBV01@@Z
; public: class std::__non_rtti_object & __ptr64 __cdecl std::__non_rtti_object::operator=(class std::__non_rtti_object const & __ptr64) __ptr64
??4__non_rtti_object@std@@QEAAAEAV01@AEBV01@@Z
; public: class std::bad_alloc & __ptr64 __cdecl std::bad_alloc::operator=(class std::bad_alloc const & __ptr64) __ptr64
??4bad_alloc@std@@QEAAAEAV01@AEBV01@@Z
; public: class std::bad_cast & __ptr64 __cdecl std::bad_cast::operator=(class std::bad_cast const & __ptr64) __ptr64
??4bad_cast@std@@QEAAAEAV01@AEBV01@@Z
; public: class std::bad_exception & __ptr64 __cdecl std::bad_exception::operator=(class std::bad_exception const & __ptr64) __ptr64
??4bad_exception@std@@QEAAAEAV01@AEBV01@@Z
; public: class std::bad_typeid & __ptr64 __cdecl std::bad_typeid::operator=(class std::bad_typeid const & __ptr64) __ptr64
??4bad_typeid@std@@QEAAAEAV01@AEBV01@@Z
; public: class std::domain_error & __ptr64 __cdecl std::domain_error::operator=(class std::domain_error const & __ptr64) __ptr64
??4domain_error@std@@QEAAAEAV01@AEBV01@@Z
; public: class std::locale::id & __ptr64 __cdecl std::locale::id::operator=(class std::locale::id const & __ptr64) __ptr64
??4id@locale@std@@QEAAAEAV012@AEBV012@@Z
; public: class std::ios_base & __ptr64 __cdecl std::ios_base::operator=(class std::ios_base const & __ptr64) __ptr64
??4ios_base@std@@QEAAAEAV01@AEBV01@@Z
; public: class std::length_error & __ptr64 __cdecl std::length_error::operator=(class std::length_error const & __ptr64) __ptr64
??4length_error@std@@QEAAAEAV01@AEBV01@@Z
; public: class std::locale & __ptr64 __cdecl std::locale::operator=(class std::locale const & __ptr64) __ptr64
??4locale@std@@QEAAAEAV01@AEBV01@@Z
; public: class std::logic_error & __ptr64 __cdecl std::logic_error::operator=(class std::logic_error const & __ptr64) __ptr64
??4logic_error@std@@QEAAAEAV01@AEBV01@@Z
; public: class std::out_of_range & __ptr64 __cdecl std::out_of_range::operator=(class std::out_of_range const & __ptr64) __ptr64
??4out_of_range@std@@QEAAAEAV01@AEBV01@@Z
; public: class std::overflow_error & __ptr64 __cdecl std::overflow_error::operator=(class std::overflow_error const & __ptr64) __ptr64
??4overflow_error@std@@QEAAAEAV01@AEBV01@@Z
; public: class std::range_error & __ptr64 __cdecl std::range_error::operator=(class std::range_error const & __ptr64) __ptr64
??4range_error@std@@QEAAAEAV01@AEBV01@@Z
; public: class std::runtime_error & __ptr64 __cdecl std::runtime_error::operator=(class std::runtime_error const & __ptr64) __ptr64
??4runtime_error@std@@QEAAAEAV01@AEBV01@@Z
; public: class std::underflow_error & __ptr64 __cdecl std::underflow_error::operator=(class std::underflow_error const & __ptr64) __ptr64
??4underflow_error@std@@QEAAAEAV01@AEBV01@@Z
; public: class std::basic_istream<char,struct std::char_traits<char> > & __ptr64 __cdecl std::basic_istream<char,struct std::char_traits<char> >::operator>>(short & __ptr64) __ptr64
??5?$basic_istream@DU?$char_traits@D@std@@@std@@QEAAAEAV01@AEAF@Z
; public: class std::basic_istream<char,struct std::char_traits<char> > & __ptr64 __cdecl std::basic_istream<char,struct std::char_traits<char> >::operator>>(unsigned short & __ptr64) __ptr64
??5?$basic_istream@DU?$char_traits@D@std@@@std@@QEAAAEAV01@AEAG@Z
; public: class std::basic_istream<char,struct std::char_traits<char> > & __ptr64 __cdecl std::basic_istream<char,struct std::char_traits<char> >::operator>>(int & __ptr64) __ptr64
??5?$basic_istream@DU?$char_traits@D@std@@@std@@QEAAAEAV01@AEAH@Z
; public: class std::basic_istream<char,struct std::char_traits<char> > & __ptr64 __cdecl std::basic_istream<char,struct std::char_traits<char> >::operator>>(unsigned int & __ptr64) __ptr64
??5?$basic_istream@DU?$char_traits@D@std@@@std@@QEAAAEAV01@AEAI@Z
; public: class std::basic_istream<char,struct std::char_traits<char> > & __ptr64 __cdecl std::basic_istream<char,struct std::char_traits<char> >::operator>>(long & __ptr64) __ptr64
??5?$basic_istream@DU?$char_traits@D@std@@@std@@QEAAAEAV01@AEAJ@Z
; public: class std::basic_istream<char,struct std::char_traits<char> > & __ptr64 __cdecl std::basic_istream<char,struct std::char_traits<char> >::operator>>(unsigned long & __ptr64) __ptr64
??5?$basic_istream@DU?$char_traits@D@std@@@std@@QEAAAEAV01@AEAK@Z
; public: class std::basic_istream<char,struct std::char_traits<char> > & __ptr64 __cdecl std::basic_istream<char,struct std::char_traits<char> >::operator>>(float & __ptr64) __ptr64
??5?$basic_istream@DU?$char_traits@D@std@@@std@@QEAAAEAV01@AEAM@Z
; public: class std::basic_istream<char,struct std::char_traits<char> > & __ptr64 __cdecl std::basic_istream<char,struct std::char_traits<char> >::operator>>(double & __ptr64) __ptr64
??5?$basic_istream@DU?$char_traits@D@std@@@std@@QEAAAEAV01@AEAN@Z
; public: class std::basic_istream<char,struct std::char_traits<char> > & __ptr64 __cdecl std::basic_istream<char,struct std::char_traits<char> >::operator>>(long double & __ptr64) __ptr64
??5?$basic_istream@DU?$char_traits@D@std@@@std@@QEAAAEAV01@AEAO@Z
; public: class std::basic_istream<char,struct std::char_traits<char> > & __ptr64 __cdecl std::basic_istream<char,struct std::char_traits<char> >::operator>>(void * __ptr64 & __ptr64) __ptr64
??5?$basic_istream@DU?$char_traits@D@std@@@std@@QEAAAEAV01@AEAPEAX@Z
; public: class std::basic_istream<char,struct std::char_traits<char> > & __ptr64 __cdecl std::basic_istream<char,struct std::char_traits<char> >::operator>>(__int64 & __ptr64) __ptr64
??5?$basic_istream@DU?$char_traits@D@std@@@std@@QEAAAEAV01@AEA_J@Z
; public: class std::basic_istream<char,struct std::char_traits<char> > & __ptr64 __cdecl std::basic_istream<char,struct std::char_traits<char> >::operator>>(unsigned __int64 & __ptr64) __ptr64
??5?$basic_istream@DU?$char_traits@D@std@@@std@@QEAAAEAV01@AEA_K@Z
; public: class std::basic_istream<char,struct std::char_traits<char> > & __ptr64 __cdecl std::basic_istream<char,struct std::char_traits<char> >::operator>>(bool & __ptr64) __ptr64
??5?$basic_istream@DU?$char_traits@D@std@@@std@@QEAAAEAV01@AEA_N@Z
; public: class std::basic_istream<char,struct std::char_traits<char> > & __ptr64 __cdecl std::basic_istream<char,struct std::char_traits<char> >::operator>>(class std::basic_istream<char,struct std::char_traits<char> > & __ptr64 (__cdecl*)(class std::basic_istream<char,struct std::char_traits<char> > & __ptr64)) __ptr64
??5?$basic_istream@DU?$char_traits@D@std@@@std@@QEAAAEAV01@P6AAEAV01@AEAV01@@Z@Z
; public: class std::basic_istream<char,struct std::char_traits<char> > & __ptr64 __cdecl std::basic_istream<char,struct std::char_traits<char> >::operator>>(class std::basic_ios<char,struct std::char_traits<char> > & __ptr64 (__cdecl*)(class std::basic_ios<char,struct std::char_traits<char> > & __ptr64)) __ptr64
??5?$basic_istream@DU?$char_traits@D@std@@@std@@QEAAAEAV01@P6AAEAV?$basic_ios@DU?$char_traits@D@std@@@1@AEAV21@@Z@Z
; public: class std::basic_istream<char,struct std::char_traits<char> > & __ptr64 __cdecl std::basic_istream<char,struct std::char_traits<char> >::operator>>(class std::ios_base & __ptr64 (__cdecl*)(class std::ios_base & __ptr64)) __ptr64
??5?$basic_istream@DU?$char_traits@D@std@@@std@@QEAAAEAV01@P6AAEAVios_base@1@AEAV21@@Z@Z
; public: class std::basic_istream<char,struct std::char_traits<char> > & __ptr64 __cdecl std::basic_istream<char,struct std::char_traits<char> >::operator>>(class std::basic_streambuf<char,struct std::char_traits<char> > * __ptr64) __ptr64
??5?$basic_istream@DU?$char_traits@D@std@@@std@@QEAAAEAV01@PEAV?$basic_streambuf@DU?$char_traits@D@std@@@1@@Z
; public: class std::basic_istream<unsigned short,struct std::char_traits<unsigned short> > & __ptr64 __cdecl std::basic_istream<unsigned short,struct std::char_traits<unsigned short> >::operator>>(short & __ptr64) __ptr64
??5?$basic_istream@GU?$char_traits@G@std@@@std@@QEAAAEAV01@AEAF@Z
; public: class std::basic_istream<unsigned short,struct std::char_traits<unsigned short> > & __ptr64 __cdecl std::basic_istream<unsigned short,struct std::char_traits<unsigned short> >::operator>>(unsigned short & __ptr64) __ptr64
??5?$basic_istream@GU?$char_traits@G@std@@@std@@QEAAAEAV01@AEAG@Z
; public: class std::basic_istream<unsigned short,struct std::char_traits<unsigned short> > & __ptr64 __cdecl std::basic_istream<unsigned short,struct std::char_traits<unsigned short> >::operator>>(int & __ptr64) __ptr64
??5?$basic_istream@GU?$char_traits@G@std@@@std@@QEAAAEAV01@AEAH@Z
; public: class std::basic_istream<unsigned short,struct std::char_traits<unsigned short> > & __ptr64 __cdecl std::basic_istream<unsigned short,struct std::char_traits<unsigned short> >::operator>>(unsigned int & __ptr64) __ptr64
??5?$basic_istream@GU?$char_traits@G@std@@@std@@QEAAAEAV01@AEAI@Z
; public: class std::basic_istream<unsigned short,struct std::char_traits<unsigned short> > & __ptr64 __cdecl std::basic_istream<unsigned short,struct std::char_traits<unsigned short> >::operator>>(long & __ptr64) __ptr64
??5?$basic_istream@GU?$char_traits@G@std@@@std@@QEAAAEAV01@AEAJ@Z
; public: class std::basic_istream<unsigned short,struct std::char_traits<unsigned short> > & __ptr64 __cdecl std::basic_istream<unsigned short,struct std::char_traits<unsigned short> >::operator>>(unsigned long & __ptr64) __ptr64
??5?$basic_istream@GU?$char_traits@G@std@@@std@@QEAAAEAV01@AEAK@Z
; public: class std::basic_istream<unsigned short,struct std::char_traits<unsigned short> > & __ptr64 __cdecl std::basic_istream<unsigned short,struct std::char_traits<unsigned short> >::operator>>(float & __ptr64) __ptr64
??5?$basic_istream@GU?$char_traits@G@std@@@std@@QEAAAEAV01@AEAM@Z
; public: class std::basic_istream<unsigned short,struct std::char_traits<unsigned short> > & __ptr64 __cdecl std::basic_istream<unsigned short,struct std::char_traits<unsigned short> >::operator>>(double & __ptr64) __ptr64
??5?$basic_istream@GU?$char_traits@G@std@@@std@@QEAAAEAV01@AEAN@Z
; public: class std::basic_istream<unsigned short,struct std::char_traits<unsigned short> > & __ptr64 __cdecl std::basic_istream<unsigned short,struct std::char_traits<unsigned short> >::operator>>(long double & __ptr64) __ptr64
??5?$basic_istream@GU?$char_traits@G@std@@@std@@QEAAAEAV01@AEAO@Z
; public: class std::basic_istream<unsigned short,struct std::char_traits<unsigned short> > & __ptr64 __cdecl std::basic_istream<unsigned short,struct std::char_traits<unsigned short> >::operator>>(void * __ptr64 & __ptr64) __ptr64
??5?$basic_istream@GU?$char_traits@G@std@@@std@@QEAAAEAV01@AEAPEAX@Z
; public: class std::basic_istream<unsigned short,struct std::char_traits<unsigned short> > & __ptr64 __cdecl std::basic_istream<unsigned short,struct std::char_traits<unsigned short> >::operator>>(__int64 & __ptr64) __ptr64
??5?$basic_istream@GU?$char_traits@G@std@@@std@@QEAAAEAV01@AEA_J@Z
; public: class std::basic_istream<unsigned short,struct std::char_traits<unsigned short> > & __ptr64 __cdecl std::basic_istream<unsigned short,struct std::char_traits<unsigned short> >::operator>>(unsigned __int64 & __ptr64) __ptr64
??5?$basic_istream@GU?$char_traits@G@std@@@std@@QEAAAEAV01@AEA_K@Z
; public: class std::basic_istream<unsigned short,struct std::char_traits<unsigned short> > & __ptr64 __cdecl std::basic_istream<unsigned short,struct std::char_traits<unsigned short> >::operator>>(bool & __ptr64) __ptr64
??5?$basic_istream@GU?$char_traits@G@std@@@std@@QEAAAEAV01@AEA_N@Z
; public: class std::basic_istream<unsigned short,struct std::char_traits<unsigned short> > & __ptr64 __cdecl std::basic_istream<unsigned short,struct std::char_traits<unsigned short> >::operator>>(class std::basic_istream<unsigned short,struct std::char_traits<unsigned short> > & __ptr64 (__cdecl*)(class std::basic_istream<unsigned short,struct std::char_traits<unsigned short> > & __ptr64)) __ptr64
??5?$basic_istream@GU?$char_traits@G@std@@@std@@QEAAAEAV01@P6AAEAV01@AEAV01@@Z@Z
; public: class std::basic_istream<unsigned short,struct std::char_traits<unsigned short> > & __ptr64 __cdecl std::basic_istream<unsigned short,struct std::char_traits<unsigned short> >::operator>>(class std::basic_ios<unsigned short,struct std::char_traits<unsigned short> > & __ptr64 (__cdecl*)(class std::basic_ios<unsigned short,struct std::char_traits<unsigned short> > & __ptr64)) __ptr64
??5?$basic_istream@GU?$char_traits@G@std@@@std@@QEAAAEAV01@P6AAEAV?$basic_ios@GU?$char_traits@G@std@@@1@AEAV21@@Z@Z
; public: class std::basic_istream<unsigned short,struct std::char_traits<unsigned short> > & __ptr64 __cdecl std::basic_istream<unsigned short,struct std::char_traits<unsigned short> >::operator>>(class std::ios_base & __ptr64 (__cdecl*)(class std::ios_base & __ptr64)) __ptr64
??5?$basic_istream@GU?$char_traits@G@std@@@std@@QEAAAEAV01@P6AAEAVios_base@1@AEAV21@@Z@Z
; public: class std::basic_istream<unsigned short,struct std::char_traits<unsigned short> > & __ptr64 __cdecl std::basic_istream<unsigned short,struct std::char_traits<unsigned short> >::operator>>(class std::basic_streambuf<unsigned short,struct std::char_traits<unsigned short> > * __ptr64) __ptr64
??5?$basic_istream@GU?$char_traits@G@std@@@std@@QEAAAEAV01@PEAV?$basic_streambuf@GU?$char_traits@G@std@@@1@@Z
; class std::basic_istream<char,struct std::char_traits<char> > & __ptr64 __cdecl std::operator>>(class std::basic_istream<char,struct std::char_traits<char> > & __ptr64,signed char & __ptr64)
??5std@@YAAEAV?$basic_istream@DU?$char_traits@D@std@@@0@AEAV10@AEAC@Z
; class std::basic_istream<char,struct std::char_traits<char> > & __ptr64 __cdecl std::operator>>(class std::basic_istream<char,struct std::char_traits<char> > & __ptr64,char & __ptr64)
??5std@@YAAEAV?$basic_istream@DU?$char_traits@D@std@@@0@AEAV10@AEAD@Z
; class std::basic_istream<char,struct std::char_traits<char> > & __ptr64 __cdecl std::operator>>(class std::basic_istream<char,struct std::char_traits<char> > & __ptr64,unsigned char & __ptr64)
??5std@@YAAEAV?$basic_istream@DU?$char_traits@D@std@@@0@AEAV10@AEAE@Z
; class std::basic_istream<char,struct std::char_traits<char> > & __ptr64 __cdecl std::operator>>(class std::basic_istream<char,struct std::char_traits<char> > & __ptr64,class std::basic_string<char,struct std::char_traits<char>,class std::allocator<char> > & __ptr64)
??5std@@YAAEAV?$basic_istream@DU?$char_traits@D@std@@@0@AEAV10@AEAV?$basic_string@DU?$char_traits@D@std@@V?$allocator@D@2@@0@@Z
; class std::basic_istream<char,struct std::char_traits<char> > & __ptr64 __cdecl std::operator>>(class std::basic_istream<char,struct std::char_traits<char> > & __ptr64,class std::complex<float> & __ptr64)
??5std@@YAAEAV?$basic_istream@DU?$char_traits@D@std@@@0@AEAV10@AEAV?$complex@M@0@@Z
; class std::basic_istream<char,struct std::char_traits<char> > & __ptr64 __cdecl std::operator>>(class std::basic_istream<char,struct std::char_traits<char> > & __ptr64,class std::complex<double> & __ptr64)
??5std@@YAAEAV?$basic_istream@DU?$char_traits@D@std@@@0@AEAV10@AEAV?$complex@N@0@@Z
; class std::basic_istream<char,struct std::char_traits<char> > & __ptr64 __cdecl std::operator>>(class std::basic_istream<char,struct std::char_traits<char> > & __ptr64,class std::complex<long double> & __ptr64)
??5std@@YAAEAV?$basic_istream@DU?$char_traits@D@std@@@0@AEAV10@AEAV?$complex@O@0@@Z
; class std::basic_istream<char,struct std::char_traits<char> > & __ptr64 __cdecl std::operator>>(class std::basic_istream<char,struct std::char_traits<char> > & __ptr64,signed char * __ptr64)
??5std@@YAAEAV?$basic_istream@DU?$char_traits@D@std@@@0@AEAV10@PEAC@Z
; class std::basic_istream<char,struct std::char_traits<char> > & __ptr64 __cdecl std::operator>>(class std::basic_istream<char,struct std::char_traits<char> > & __ptr64,char * __ptr64)
??5std@@YAAEAV?$basic_istream@DU?$char_traits@D@std@@@0@AEAV10@PEAD@Z
; class std::basic_istream<char,struct std::char_traits<char> > & __ptr64 __cdecl std::operator>>(class std::basic_istream<char,struct std::char_traits<char> > & __ptr64,unsigned char * __ptr64)
??5std@@YAAEAV?$basic_istream@DU?$char_traits@D@std@@@0@AEAV10@PEAE@Z
; class std::basic_istream<unsigned short,struct std::char_traits<unsigned short> > & __ptr64 __cdecl std::operator>>(class std::basic_istream<unsigned short,struct std::char_traits<unsigned short> > & __ptr64,unsigned short & __ptr64)
??5std@@YAAEAV?$basic_istream@GU?$char_traits@G@std@@@0@AEAV10@AEAG@Z
; class std::basic_istream<unsigned short,struct std::char_traits<unsigned short> > & __ptr64 __cdecl std::operator>>(class std::basic_istream<unsigned short,struct std::char_traits<unsigned short> > & __ptr64,class std::basic_string<unsigned short,struct std::char_traits<unsigned short>,class std::allocator<unsigned short> > & __ptr64)
??5std@@YAAEAV?$basic_istream@GU?$char_traits@G@std@@@0@AEAV10@AEAV?$basic_string@GU?$char_traits@G@std@@V?$allocator@G@2@@0@@Z
; class std::basic_istream<unsigned short,struct std::char_traits<unsigned short> > & __ptr64 __cdecl std::operator>>(class std::basic_istream<unsigned short,struct std::char_traits<unsigned short> > & __ptr64,class std::complex<float> & __ptr64)
??5std@@YAAEAV?$basic_istream@GU?$char_traits@G@std@@@0@AEAV10@AEAV?$complex@M@0@@Z
; class std::basic_istream<unsigned short,struct std::char_traits<unsigned short> > & __ptr64 __cdecl std::operator>>(class std::basic_istream<unsigned short,struct std::char_traits<unsigned short> > & __ptr64,class std::complex<double> & __ptr64)
??5std@@YAAEAV?$basic_istream@GU?$char_traits@G@std@@@0@AEAV10@AEAV?$complex@N@0@@Z
; class std::basic_istream<unsigned short,struct std::char_traits<unsigned short> > & __ptr64 __cdecl std::operator>>(class std::basic_istream<unsigned short,struct std::char_traits<unsigned short> > & __ptr64,class std::complex<long double> & __ptr64)
??5std@@YAAEAV?$basic_istream@GU?$char_traits@G@std@@@0@AEAV10@AEAV?$complex@O@0@@Z
; class std::basic_istream<unsigned short,struct std::char_traits<unsigned short> > & __ptr64 __cdecl std::operator>>(class std::basic_istream<unsigned short,struct std::char_traits<unsigned short> > & __ptr64,short * __ptr64)
??5std@@YAAEAV?$basic_istream@GU?$char_traits@G@std@@@0@AEAV10@PEAF@Z
; class std::basic_istream<unsigned short,struct std::char_traits<unsigned short> > & __ptr64 __cdecl std::operator>>(class std::basic_istream<unsigned short,struct std::char_traits<unsigned short> > & __ptr64,unsigned short * __ptr64)
??5std@@YAAEAV?$basic_istream@GU?$char_traits@G@std@@@0@AEAV10@PEAG@Z
; public: class std::basic_ostream<char,struct std::char_traits<char> > & __ptr64 __cdecl std::basic_ostream<char,struct std::char_traits<char> >::operator<<(short) __ptr64
??6?$basic_ostream@DU?$char_traits@D@std@@@std@@QEAAAEAV01@F@Z
; public: class std::basic_ostream<char,struct std::char_traits<char> > & __ptr64 __cdecl std::basic_ostream<char,struct std::char_traits<char> >::operator<<(unsigned short) __ptr64
??6?$basic_ostream@DU?$char_traits@D@std@@@std@@QEAAAEAV01@G@Z
; public: class std::basic_ostream<char,struct std::char_traits<char> > & __ptr64 __cdecl std::basic_ostream<char,struct std::char_traits<char> >::operator<<(int) __ptr64
??6?$basic_ostream@DU?$char_traits@D@std@@@std@@QEAAAEAV01@H@Z
; public: class std::basic_ostream<char,struct std::char_traits<char> > & __ptr64 __cdecl std::basic_ostream<char,struct std::char_traits<char> >::operator<<(unsigned int) __ptr64
??6?$basic_ostream@DU?$char_traits@D@std@@@std@@QEAAAEAV01@I@Z
; public: class std::basic_ostream<char,struct std::char_traits<char> > & __ptr64 __cdecl std::basic_ostream<char,struct std::char_traits<char> >::operator<<(long) __ptr64
??6?$basic_ostream@DU?$char_traits@D@std@@@std@@QEAAAEAV01@J@Z
; public: class std::basic_ostream<char,struct std::char_traits<char> > & __ptr64 __cdecl std::basic_ostream<char,struct std::char_traits<char> >::operator<<(unsigned long) __ptr64
??6?$basic_ostream@DU?$char_traits@D@std@@@std@@QEAAAEAV01@K@Z
; public: class std::basic_ostream<char,struct std::char_traits<char> > & __ptr64 __cdecl std::basic_ostream<char,struct std::char_traits<char> >::operator<<(float) __ptr64
??6?$basic_ostream@DU?$char_traits@D@std@@@std@@QEAAAEAV01@M@Z
; public: class std::basic_ostream<char,struct std::char_traits<char> > & __ptr64 __cdecl std::basic_ostream<char,struct std::char_traits<char> >::operator<<(double) __ptr64
??6?$basic_ostream@DU?$char_traits@D@std@@@std@@QEAAAEAV01@N@Z
; public: class std::basic_ostream<char,struct std::char_traits<char> > & __ptr64 __cdecl std::basic_ostream<char,struct std::char_traits<char> >::operator<<(long double) __ptr64
??6?$basic_ostream@DU?$char_traits@D@std@@@std@@QEAAAEAV01@O@Z
; public: class std::basic_ostream<char,struct std::char_traits<char> > & __ptr64 __cdecl std::basic_ostream<char,struct std::char_traits<char> >::operator<<(class std::basic_ostream<char,struct std::char_traits<char> > & __ptr64 (__cdecl*)(class std::basic_ostream<char,struct std::char_traits<char> > & __ptr64)) __ptr64
??6?$basic_ostream@DU?$char_traits@D@std@@@std@@QEAAAEAV01@P6AAEAV01@AEAV01@@Z@Z
; public: class std::basic_ostream<char,struct std::char_traits<char> > & __ptr64 __cdecl std::basic_ostream<char,struct std::char_traits<char> >::operator<<(class std::basic_ios<char,struct std::char_traits<char> > & __ptr64 (__cdecl*)(class std::basic_ios<char,struct std::char_traits<char> > & __ptr64)) __ptr64
??6?$basic_ostream@DU?$char_traits@D@std@@@std@@QEAAAEAV01@P6AAEAV?$basic_ios@DU?$char_traits@D@std@@@1@AEAV21@@Z@Z
; public: class std::basic_ostream<char,struct std::char_traits<char> > & __ptr64 __cdecl std::basic_ostream<char,struct std::char_traits<char> >::operator<<(class std::ios_base & __ptr64 (__cdecl*)(class std::ios_base & __ptr64)) __ptr64
??6?$basic_ostream@DU?$char_traits@D@std@@@std@@QEAAAEAV01@P6AAEAVios_base@1@AEAV21@@Z@Z
; public: class std::basic_ostream<char,struct std::char_traits<char> > & __ptr64 __cdecl std::basic_ostream<char,struct std::char_traits<char> >::operator<<(class std::basic_streambuf<char,struct std::char_traits<char> > * __ptr64) __ptr64
??6?$basic_ostream@DU?$char_traits@D@std@@@std@@QEAAAEAV01@PEAV?$basic_streambuf@DU?$char_traits@D@std@@@1@@Z
; public: class std::basic_ostream<char,struct std::char_traits<char> > & __ptr64 __cdecl std::basic_ostream<char,struct std::char_traits<char> >::operator<<(void const * __ptr64) __ptr64
??6?$basic_ostream@DU?$char_traits@D@std@@@std@@QEAAAEAV01@PEBX@Z
; public: class std::basic_ostream<char,struct std::char_traits<char> > & __ptr64 __cdecl std::basic_ostream<char,struct std::char_traits<char> >::operator<<(__int64) __ptr64
??6?$basic_ostream@DU?$char_traits@D@std@@@std@@QEAAAEAV01@_J@Z
; public: class std::basic_ostream<char,struct std::char_traits<char> > & __ptr64 __cdecl std::basic_ostream<char,struct std::char_traits<char> >::operator<<(unsigned __int64) __ptr64
??6?$basic_ostream@DU?$char_traits@D@std@@@std@@QEAAAEAV01@_K@Z
; public: class std::basic_ostream<char,struct std::char_traits<char> > & __ptr64 __cdecl std::basic_ostream<char,struct std::char_traits<char> >::operator<<(bool) __ptr64
??6?$basic_ostream@DU?$char_traits@D@std@@@std@@QEAAAEAV01@_N@Z
; public: class std::basic_ostream<unsigned short,struct std::char_traits<unsigned short> > & __ptr64 __cdecl std::basic_ostream<unsigned short,struct std::char_traits<unsigned short> >::operator<<(short) __ptr64
??6?$basic_ostream@GU?$char_traits@G@std@@@std@@QEAAAEAV01@F@Z
; public: class std::basic_ostream<unsigned short,struct std::char_traits<unsigned short> > & __ptr64 __cdecl std::basic_ostream<unsigned short,struct std::char_traits<unsigned short> >::operator<<(unsigned short) __ptr64
??6?$basic_ostream@GU?$char_traits@G@std@@@std@@QEAAAEAV01@G@Z
; public: class std::basic_ostream<unsigned short,struct std::char_traits<unsigned short> > & __ptr64 __cdecl std::basic_ostream<unsigned short,struct std::char_traits<unsigned short> >::operator<<(int) __ptr64
??6?$basic_ostream@GU?$char_traits@G@std@@@std@@QEAAAEAV01@H@Z
; public: class std::basic_ostream<unsigned short,struct std::char_traits<unsigned short> > & __ptr64 __cdecl std::basic_ostream<unsigned short,struct std::char_traits<unsigned short> >::operator<<(unsigned int) __ptr64
??6?$basic_ostream@GU?$char_traits@G@std@@@std@@QEAAAEAV01@I@Z
; public: class std::basic_ostream<unsigned short,struct std::char_traits<unsigned short> > & __ptr64 __cdecl std::basic_ostream<unsigned short,struct std::char_traits<unsigned short> >::operator<<(long) __ptr64
??6?$basic_ostream@GU?$char_traits@G@std@@@std@@QEAAAEAV01@J@Z
; public: class std::basic_ostream<unsigned short,struct std::char_traits<unsigned short> > & __ptr64 __cdecl std::basic_ostream<unsigned short,struct std::char_traits<unsigned short> >::operator<<(unsigned long) __ptr64
??6?$basic_ostream@GU?$char_traits@G@std@@@std@@QEAAAEAV01@K@Z
; public: class std::basic_ostream<unsigned short,struct std::char_traits<unsigned short> > & __ptr64 __cdecl std::basic_ostream<unsigned short,struct std::char_traits<unsigned short> >::operator<<(float) __ptr64
??6?$basic_ostream@GU?$char_traits@G@std@@@std@@QEAAAEAV01@M@Z
; public: class std::basic_ostream<unsigned short,struct std::char_traits<unsigned short> > & __ptr64 __cdecl std::basic_ostream<unsigned short,struct std::char_traits<unsigned short> >::operator<<(double) __ptr64
??6?$basic_ostream@GU?$char_traits@G@std@@@std@@QEAAAEAV01@N@Z
; public: class std::basic_ostream<unsigned short,struct std::char_traits<unsigned short> > & __ptr64 __cdecl std::basic_ostream<unsigned short,struct std::char_traits<unsigned short> >::operator<<(long double) __ptr64
??6?$basic_ostream@GU?$char_traits@G@std@@@std@@QEAAAEAV01@O@Z
; public: class std::basic_ostream<unsigned short,struct std::char_traits<unsigned short> > & __ptr64 __cdecl std::basic_ostream<unsigned short,struct std::char_traits<unsigned short> >::operator<<(class std::basic_ostream<unsigned short,struct std::char_traits<unsigned short> > & __ptr64 (__cdecl*)(class std::basic_ostream<unsigned short,struct std::char_traits<unsigned short> > & __ptr64)) __ptr64
??6?$basic_ostream@GU?$char_traits@G@std@@@std@@QEAAAEAV01@P6AAEAV01@AEAV01@@Z@Z
; public: class std::basic_ostream<unsigned short,struct std::char_traits<unsigned short> > & __ptr64 __cdecl std::basic_ostream<unsigned short,struct std::char_traits<unsigned short> >::operator<<(class std::basic_ios<unsigned short,struct std::char_traits<unsigned short> > & __ptr64 (__cdecl*)(class std::basic_ios<unsigned short,struct std::char_traits<unsigned short> > & __ptr64)) __ptr64
??6?$basic_ostream@GU?$char_traits@G@std@@@std@@QEAAAEAV01@P6AAEAV?$basic_ios@GU?$char_traits@G@std@@@1@AEAV21@@Z@Z
; public: class std::basic_ostream<unsigned short,struct std::char_traits<unsigned short> > & __ptr64 __cdecl std::basic_ostream<unsigned short,struct std::char_traits<unsigned short> >::operator<<(class std::ios_base & __ptr64 (__cdecl*)(class std::ios_base & __ptr64)) __ptr64
??6?$basic_ostream@GU?$char_traits@G@std@@@std@@QEAAAEAV01@P6AAEAVios_base@1@AEAV21@@Z@Z
; public: class std::basic_ostream<unsigned short,struct std::char_traits<unsigned short> > & __ptr64 __cdecl std::basic_ostream<unsigned short,struct std::char_traits<unsigned short> >::operator<<(class std::basic_streambuf<unsigned short,struct std::char_traits<unsigned short> > * __ptr64) __ptr64
??6?$basic_ostream@GU?$char_traits@G@std@@@std@@QEAAAEAV01@PEAV?$basic_streambuf@GU?$char_traits@G@std@@@1@@Z
; public: class std::basic_ostream<unsigned short,struct std::char_traits<unsigned short> > & __ptr64 __cdecl std::basic_ostream<unsigned short,struct std::char_traits<unsigned short> >::operator<<(void const * __ptr64) __ptr64
??6?$basic_ostream@GU?$char_traits@G@std@@@std@@QEAAAEAV01@PEBX@Z
; public: class std::basic_ostream<unsigned short,struct std::char_traits<unsigned short> > & __ptr64 __cdecl std::basic_ostream<unsigned short,struct std::char_traits<unsigned short> >::operator<<(__int64) __ptr64
??6?$basic_ostream@GU?$char_traits@G@std@@@std@@QEAAAEAV01@_J@Z
; public: class std::basic_ostream<unsigned short,struct std::char_traits<unsigned short> > & __ptr64 __cdecl std::basic_ostream<unsigned short,struct std::char_traits<unsigned short> >::operator<<(unsigned __int64) __ptr64
??6?$basic_ostream@GU?$char_traits@G@std@@@std@@QEAAAEAV01@_K@Z
; public: class std::basic_ostream<unsigned short,struct std::char_traits<unsigned short> > & __ptr64 __cdecl std::basic_ostream<unsigned short,struct std::char_traits<unsigned short> >::operator<<(bool) __ptr64
??6?$basic_ostream@GU?$char_traits@G@std@@@std@@QEAAAEAV01@_N@Z
; class std::basic_ostream<char,struct std::char_traits<char> > & __ptr64 __cdecl std::operator<<(class std::basic_ostream<char,struct std::char_traits<char> > & __ptr64,class std::basic_string<char,struct std::char_traits<char>,class std::allocator<char> > const & __ptr64)
??6std@@YAAEAV?$basic_ostream@DU?$char_traits@D@std@@@0@AEAV10@AEBV?$basic_string@DU?$char_traits@D@std@@V?$allocator@D@2@@0@@Z
; class std::basic_ostream<char,struct std::char_traits<char> > & __ptr64 __cdecl std::operator<<(class std::basic_ostream<char,struct std::char_traits<char> > & __ptr64,class std::complex<float> const & __ptr64)
??6std@@YAAEAV?$basic_ostream@DU?$char_traits@D@std@@@0@AEAV10@AEBV?$complex@M@0@@Z
; class std::basic_ostream<char,struct std::char_traits<char> > & __ptr64 __cdecl std::operator<<(class std::basic_ostream<char,struct std::char_traits<char> > & __ptr64,class std::complex<double> const & __ptr64)
??6std@@YAAEAV?$basic_ostream@DU?$char_traits@D@std@@@0@AEAV10@AEBV?$complex@N@0@@Z
; class std::basic_ostream<char,struct std::char_traits<char> > & __ptr64 __cdecl std::operator<<(class std::basic_ostream<char,struct std::char_traits<char> > & __ptr64,class std::complex<long double> const & __ptr64)
??6std@@YAAEAV?$basic_ostream@DU?$char_traits@D@std@@@0@AEAV10@AEBV?$complex@O@0@@Z
; class std::basic_ostream<char,struct std::char_traits<char> > & __ptr64 __cdecl std::operator<<(class std::basic_ostream<char,struct std::char_traits<char> > & __ptr64,signed char)
??6std@@YAAEAV?$basic_ostream@DU?$char_traits@D@std@@@0@AEAV10@C@Z
; class std::basic_ostream<char,struct std::char_traits<char> > & __ptr64 __cdecl std::operator<<(class std::basic_ostream<char,struct std::char_traits<char> > & __ptr64,char)
??6std@@YAAEAV?$basic_ostream@DU?$char_traits@D@std@@@0@AEAV10@D@Z
; class std::basic_ostream<char,struct std::char_traits<char> > & __ptr64 __cdecl std::operator<<(class std::basic_ostream<char,struct std::char_traits<char> > & __ptr64,unsigned char)
??6std@@YAAEAV?$basic_ostream@DU?$char_traits@D@std@@@0@AEAV10@E@Z
; class std::basic_ostream<char,struct std::char_traits<char> > & __ptr64 __cdecl std::operator<<(class std::basic_ostream<char,struct std::char_traits<char> > & __ptr64,signed char const * __ptr64)
??6std@@YAAEAV?$basic_ostream@DU?$char_traits@D@std@@@0@AEAV10@PEBC@Z
; class std::basic_ostream<char,struct std::char_traits<char> > & __ptr64 __cdecl std::operator<<(class std::basic_ostream<char,struct std::char_traits<char> > & __ptr64,char const * __ptr64)
??6std@@YAAEAV?$basic_ostream@DU?$char_traits@D@std@@@0@AEAV10@PEBD@Z
; class std::basic_ostream<char,struct std::char_traits<char> > & __ptr64 __cdecl std::operator<<(class std::basic_ostream<char,struct std::char_traits<char> > & __ptr64,unsigned char const * __ptr64)
??6std@@YAAEAV?$basic_ostream@DU?$char_traits@D@std@@@0@AEAV10@PEBE@Z
; class std::basic_ostream<unsigned short,struct std::char_traits<unsigned short> > & __ptr64 __cdecl std::operator<<(class std::basic_ostream<unsigned short,struct std::char_traits<unsigned short> > & __ptr64,class std::basic_string<unsigned short,struct std::char_traits<unsigned short>,class std::allocator<unsigned short> > const & __ptr64)
??6std@@YAAEAV?$basic_ostream@GU?$char_traits@G@std@@@0@AEAV10@AEBV?$basic_string@GU?$char_traits@G@std@@V?$allocator@G@2@@0@@Z
; class std::basic_ostream<unsigned short,struct std::char_traits<unsigned short> > & __ptr64 __cdecl std::operator<<(class std::basic_ostream<unsigned short,struct std::char_traits<unsigned short> > & __ptr64,class std::complex<float> const & __ptr64)
??6std@@YAAEAV?$basic_ostream@GU?$char_traits@G@std@@@0@AEAV10@AEBV?$complex@M@0@@Z
; class std::basic_ostream<unsigned short,struct std::char_traits<unsigned short> > & __ptr64 __cdecl std::operator<<(class std::basic_ostream<unsigned short,struct std::char_traits<unsigned short> > & __ptr64,class std::complex<double> const & __ptr64)
??6std@@YAAEAV?$basic_ostream@GU?$char_traits@G@std@@@0@AEAV10@AEBV?$complex@N@0@@Z
; class std::basic_ostream<unsigned short,struct std::char_traits<unsigned short> > & __ptr64 __cdecl std::operator<<(class std::basic_ostream<unsigned short,struct std::char_traits<unsigned short> > & __ptr64,class std::complex<long double> const & __ptr64)
??6std@@YAAEAV?$basic_ostream@GU?$char_traits@G@std@@@0@AEAV10@AEBV?$complex@O@0@@Z
; class std::basic_ostream<unsigned short,struct std::char_traits<unsigned short> > & __ptr64 __cdecl std::operator<<(class std::basic_ostream<unsigned short,struct std::char_traits<unsigned short> > & __ptr64,unsigned short)
??6std@@YAAEAV?$basic_ostream@GU?$char_traits@G@std@@@0@AEAV10@G@Z
; class std::basic_ostream<unsigned short,struct std::char_traits<unsigned short> > & __ptr64 __cdecl std::operator<<(class std::basic_ostream<unsigned short,struct std::char_traits<unsigned short> > & __ptr64,short const * __ptr64)
??6std@@YAAEAV?$basic_ostream@GU?$char_traits@G@std@@@0@AEAV10@PEBF@Z
; class std::basic_ostream<unsigned short,struct std::char_traits<unsigned short> > & __ptr64 __cdecl std::operator<<(class std::basic_ostream<unsigned short,struct std::char_traits<unsigned short> > & __ptr64,unsigned short const * __ptr64)
??6std@@YAAEAV?$basic_ostream@GU?$char_traits@G@std@@@0@AEAV10@PEBG@Z
; public: bool __cdecl std::ios_base::operator!(void)const  __ptr64
??7ios_base@std@@QEBA_NXZ
; public: bool __cdecl std::locale::operator==(class std::locale const & __ptr64)const  __ptr64
??8locale@std@@QEBA_NAEBV01@@Z
; bool __cdecl std::operator==(float const & __ptr64,class std::complex<float> const & __ptr64)
??8std@@YA_NAEBMAEBV?$complex@M@0@@Z
; bool __cdecl std::operator==(double const & __ptr64,class std::complex<double> const & __ptr64)
??8std@@YA_NAEBNAEBV?$complex@N@0@@Z
; bool __cdecl std::operator==(long double const & __ptr64,class std::complex<long double> const & __ptr64)
??8std@@YA_NAEBOAEBV?$complex@O@0@@Z
; bool __cdecl std::operator==(class std::basic_string<char,struct std::char_traits<char>,class std::allocator<char> > const & __ptr64,class std::basic_string<char,struct std::char_traits<char>,class std::allocator<char> > const & __ptr64)
??8std@@YA_NAEBV?$basic_string@DU?$char_traits@D@std@@V?$allocator@D@2@@0@0@Z
; bool __cdecl std::operator==(class std::basic_string<char,struct std::char_traits<char>,class std::allocator<char> > const & __ptr64,char const * __ptr64)
??8std@@YA_NAEBV?$basic_string@DU?$char_traits@D@std@@V?$allocator@D@2@@0@PEBD@Z
; bool __cdecl std::operator==(class std::basic_string<unsigned short,struct std::char_traits<unsigned short>,class std::allocator<unsigned short> > const & __ptr64,class std::basic_string<unsigned short,struct std::char_traits<unsigned short>,class std::allocator<unsigned short> > const & __ptr64)
??8std@@YA_NAEBV?$basic_string@GU?$char_traits@G@std@@V?$allocator@G@2@@0@0@Z
; bool __cdecl std::operator==(class std::basic_string<unsigned short,struct std::char_traits<unsigned short>,class std::allocator<unsigned short> > const & __ptr64,unsigned short const * __ptr64)
??8std@@YA_NAEBV?$basic_string@GU?$char_traits@G@std@@V?$allocator@G@2@@0@PEBG@Z
; bool __cdecl std::operator==(class std::complex<float> const & __ptr64,class std::complex<float> const & __ptr64)
??8std@@YA_NAEBV?$complex@M@0@0@Z
; bool __cdecl std::operator==(class std::complex<float> const & __ptr64,float const & __ptr64)
??8std@@YA_NAEBV?$complex@M@0@AEBM@Z
; bool __cdecl std::operator==(class std::complex<double> const & __ptr64,class std::complex<double> const & __ptr64)
??8std@@YA_NAEBV?$complex@N@0@0@Z
; bool __cdecl std::operator==(class std::complex<double> const & __ptr64,double const & __ptr64)
??8std@@YA_NAEBV?$complex@N@0@AEBN@Z
; bool __cdecl std::operator==(class std::complex<long double> const & __ptr64,class std::complex<long double> const & __ptr64)
??8std@@YA_NAEBV?$complex@O@0@0@Z
; bool __cdecl std::operator==(class std::complex<long double> const & __ptr64,long double const & __ptr64)
??8std@@YA_NAEBV?$complex@O@0@AEBO@Z
; bool __cdecl std::operator==(char const * __ptr64,class std::basic_string<char,struct std::char_traits<char>,class std::allocator<char> > const & __ptr64)
??8std@@YA_NPEBDAEBV?$basic_string@DU?$char_traits@D@std@@V?$allocator@D@2@@0@@Z
; bool __cdecl std::operator==(unsigned short const * __ptr64,class std::basic_string<unsigned short,struct std::char_traits<unsigned short>,class std::allocator<unsigned short> > const & __ptr64)
??8std@@YA_NPEBGAEBV?$basic_string@GU?$char_traits@G@std@@V?$allocator@G@2@@0@@Z
; public: bool __cdecl std::locale::operator!=(class std::locale const & __ptr64)const  __ptr64
??9locale@std@@QEBA_NAEBV01@@Z
; bool __cdecl std::operator!=(float const & __ptr64,class std::complex<float> const & __ptr64)
??9std@@YA_NAEBMAEBV?$complex@M@0@@Z
; bool __cdecl std::operator!=(double const & __ptr64,class std::complex<double> const & __ptr64)
??9std@@YA_NAEBNAEBV?$complex@N@0@@Z
; bool __cdecl std::operator!=(long double const & __ptr64,class std::complex<long double> const & __ptr64)
??9std@@YA_NAEBOAEBV?$complex@O@0@@Z
; bool __cdecl std::operator!=(class std::basic_string<char,struct std::char_traits<char>,class std::allocator<char> > const & __ptr64,class std::basic_string<char,struct std::char_traits<char>,class std::allocator<char> > const & __ptr64)
??9std@@YA_NAEBV?$basic_string@DU?$char_traits@D@std@@V?$allocator@D@2@@0@0@Z
; bool __cdecl std::operator!=(class std::basic_string<char,struct std::char_traits<char>,class std::allocator<char> > const & __ptr64,char const * __ptr64)
??9std@@YA_NAEBV?$basic_string@DU?$char_traits@D@std@@V?$allocator@D@2@@0@PEBD@Z
; bool __cdecl std::operator!=(class std::basic_string<unsigned short,struct std::char_traits<unsigned short>,class std::allocator<unsigned short> > const & __ptr64,class std::basic_string<unsigned short,struct std::char_traits<unsigned short>,class std::allocator<unsigned short> > const & __ptr64)
??9std@@YA_NAEBV?$basic_string@GU?$char_traits@G@std@@V?$allocator@G@2@@0@0@Z
; bool __cdecl std::operator!=(class std::basic_string<unsigned short,struct std::char_traits<unsigned short>,class std::allocator<unsigned short> > const & __ptr64,unsigned short const * __ptr64)
??9std@@YA_NAEBV?$basic_string@GU?$char_traits@G@std@@V?$allocator@G@2@@0@PEBG@Z
; bool __cdecl std::operator!=(class std::complex<float> const & __ptr64,class std::complex<float> const & __ptr64)
??9std@@YA_NAEBV?$complex@M@0@0@Z
; bool __cdecl std::operator!=(class std::complex<float> const & __ptr64,float const & __ptr64)
??9std@@YA_NAEBV?$complex@M@0@AEBM@Z
; bool __cdecl std::operator!=(class std::complex<double> const & __ptr64,class std::complex<double> const & __ptr64)
??9std@@YA_NAEBV?$complex@N@0@0@Z
; bool __cdecl std::operator!=(class std::complex<double> const & __ptr64,double const & __ptr64)
??9std@@YA_NAEBV?$complex@N@0@AEBN@Z
; bool __cdecl std::operator!=(class std::complex<long double> const & __ptr64,class std::complex<long double> const & __ptr64)
??9std@@YA_NAEBV?$complex@O@0@0@Z
; bool __cdecl std::operator!=(class std::complex<long double> const & __ptr64,long double const & __ptr64)
??9std@@YA_NAEBV?$complex@O@0@AEBO@Z
; bool __cdecl std::operator!=(char const * __ptr64,class std::basic_string<char,struct std::char_traits<char>,class std::allocator<char> > const & __ptr64)
??9std@@YA_NPEBDAEBV?$basic_string@DU?$char_traits@D@std@@V?$allocator@D@2@@0@@Z
; bool __cdecl std::operator!=(unsigned short const * __ptr64,class std::basic_string<unsigned short,struct std::char_traits<unsigned short>,class std::allocator<unsigned short> > const & __ptr64)
??9std@@YA_NPEBGAEBV?$basic_string@GU?$char_traits@G@std@@V?$allocator@G@2@@0@@Z
; public: char & __ptr64 __cdecl std::basic_string<char,struct std::char_traits<char>,class std::allocator<char> >::operator[](unsigned __int64) __ptr64
??A?$basic_string@DU?$char_traits@D@std@@V?$allocator@D@2@@std@@QEAAAEAD_K@Z
; public: char const & __ptr64 __cdecl std::basic_string<char,struct std::char_traits<char>,class std::allocator<char> >::operator[](unsigned __int64)const  __ptr64
??A?$basic_string@DU?$char_traits@D@std@@V?$allocator@D@2@@std@@QEBAAEBD_K@Z
; public: unsigned short & __ptr64 __cdecl std::basic_string<unsigned short,struct std::char_traits<unsigned short>,class std::allocator<unsigned short> >::operator[](unsigned __int64) __ptr64
??A?$basic_string@GU?$char_traits@G@std@@V?$allocator@G@2@@std@@QEAAAEAG_K@Z
; public: unsigned short const & __ptr64 __cdecl std::basic_string<unsigned short,struct std::char_traits<unsigned short>,class std::allocator<unsigned short> >::operator[](unsigned __int64)const  __ptr64
??A?$basic_string@GU?$char_traits@G@std@@V?$allocator@G@2@@std@@QEBAAEBG_K@Z
; public: __cdecl std::locale::id::operator unsigned __int64(void) __ptr64
??Bid@locale@std@@QEAA_KXZ
; public: __cdecl std::ios_base::operator void * __ptr64(void)const  __ptr64
??Bios_base@std@@QEBAPEAXXZ
; class std::complex<float>  __cdecl std::operator*(float const & __ptr64,class std::complex<float> const & __ptr64)
??Dstd@@YA?AV?$complex@M@0@AEBMAEBV10@@Z
; class std::complex<float>  __cdecl std::operator*(class std::complex<float> const & __ptr64,class std::complex<float> const & __ptr64)
??Dstd@@YA?AV?$complex@M@0@AEBV10@0@Z
; class std::complex<float>  __cdecl std::operator*(class std::complex<float> const & __ptr64,float const & __ptr64)
??Dstd@@YA?AV?$complex@M@0@AEBV10@AEBM@Z
; class std::complex<double>  __cdecl std::operator*(double const & __ptr64,class std::complex<double> const & __ptr64)
??Dstd@@YA?AV?$complex@N@0@AEBNAEBV10@@Z
; class std::complex<double>  __cdecl std::operator*(class std::complex<double> const & __ptr64,class std::complex<double> const & __ptr64)
??Dstd@@YA?AV?$complex@N@0@AEBV10@0@Z
; class std::complex<double>  __cdecl std::operator*(class std::complex<double> const & __ptr64,double const & __ptr64)
??Dstd@@YA?AV?$complex@N@0@AEBV10@AEBN@Z
; class std::complex<long double>  __cdecl std::operator*(long double const & __ptr64,class std::complex<long double> const & __ptr64)
??Dstd@@YA?AV?$complex@O@0@AEBOAEBV10@@Z
; class std::complex<long double>  __cdecl std::operator*(class std::complex<long double> const & __ptr64,class std::complex<long double> const & __ptr64)
??Dstd@@YA?AV?$complex@O@0@AEBV10@0@Z
; class std::complex<long double>  __cdecl std::operator*(class std::complex<long double> const & __ptr64,long double const & __ptr64)
??Dstd@@YA?AV?$complex@O@0@AEBV10@AEBO@Z
; class std::complex<float>  __cdecl std::operator-(float const & __ptr64,class std::complex<float> const & __ptr64)
??Gstd@@YA?AV?$complex@M@0@AEBMAEBV10@@Z
; class std::complex<float>  __cdecl std::operator-(class std::complex<float> const & __ptr64,class std::complex<float> const & __ptr64)
??Gstd@@YA?AV?$complex@M@0@AEBV10@0@Z
; class std::complex<float>  __cdecl std::operator-(class std::complex<float> const & __ptr64)
??Gstd@@YA?AV?$complex@M@0@AEBV10@@Z
; class std::complex<float>  __cdecl std::operator-(class std::complex<float> const & __ptr64,float const & __ptr64)
??Gstd@@YA?AV?$complex@M@0@AEBV10@AEBM@Z
; class std::complex<double>  __cdecl std::operator-(double const & __ptr64,class std::complex<double> const & __ptr64)
??Gstd@@YA?AV?$complex@N@0@AEBNAEBV10@@Z
; class std::complex<double>  __cdecl std::operator-(class std::complex<double> const & __ptr64,class std::complex<double> const & __ptr64)
??Gstd@@YA?AV?$complex@N@0@AEBV10@0@Z
; class std::complex<double>  __cdecl std::operator-(class std::complex<double> const & __ptr64)
??Gstd@@YA?AV?$complex@N@0@AEBV10@@Z
; class std::complex<double>  __cdecl std::operator-(class std::complex<double> const & __ptr64,double const & __ptr64)
??Gstd@@YA?AV?$complex@N@0@AEBV10@AEBN@Z
; class std::complex<long double>  __cdecl std::operator-(long double const & __ptr64,class std::complex<long double> const & __ptr64)
??Gstd@@YA?AV?$complex@O@0@AEBOAEBV10@@Z
; class std::complex<long double>  __cdecl std::operator-(class std::complex<long double> const & __ptr64,class std::complex<long double> const & __ptr64)
??Gstd@@YA?AV?$complex@O@0@AEBV10@0@Z
; class std::complex<long double>  __cdecl std::operator-(class std::complex<long double> const & __ptr64)
??Gstd@@YA?AV?$complex@O@0@AEBV10@@Z
; class std::complex<long double>  __cdecl std::operator-(class std::complex<long double> const & __ptr64,long double const & __ptr64)
??Gstd@@YA?AV?$complex@O@0@AEBV10@AEBO@Z
; class std::basic_string<char,struct std::char_traits<char>,class std::allocator<char> >  __cdecl std::operator+(class std::basic_string<char,struct std::char_traits<char>,class std::allocator<char> > const & __ptr64,class std::basic_string<char,struct std::char_traits<char>,class std::allocator<char> > const & __ptr64)
??Hstd@@YA?AV?$basic_string@DU?$char_traits@D@std@@V?$allocator@D@2@@0@AEBV10@0@Z
; class std::basic_string<char,struct std::char_traits<char>,class std::allocator<char> >  __cdecl std::operator+(class std::basic_string<char,struct std::char_traits<char>,class std::allocator<char> > const & __ptr64,char)
??Hstd@@YA?AV?$basic_string@DU?$char_traits@D@std@@V?$allocator@D@2@@0@AEBV10@D@Z
; class std::basic_string<char,struct std::char_traits<char>,class std::allocator<char> >  __cdecl std::operator+(class std::basic_string<char,struct std::char_traits<char>,class std::allocator<char> > const & __ptr64,char const * __ptr64)
??Hstd@@YA?AV?$basic_string@DU?$char_traits@D@std@@V?$allocator@D@2@@0@AEBV10@PEBD@Z
; class std::basic_string<char,struct std::char_traits<char>,class std::allocator<char> >  __cdecl std::operator+(char,class std::basic_string<char,struct std::char_traits<char>,class std::allocator<char> > const & __ptr64)
??Hstd@@YA?AV?$basic_string@DU?$char_traits@D@std@@V?$allocator@D@2@@0@DAEBV10@@Z
; class std::basic_string<char,struct std::char_traits<char>,class std::allocator<char> >  __cdecl std::operator+(char const * __ptr64,class std::basic_string<char,struct std::char_traits<char>,class std::allocator<char> > const & __ptr64)
??Hstd@@YA?AV?$basic_string@DU?$char_traits@D@std@@V?$allocator@D@2@@0@PEBDAEBV10@@Z
; class std::basic_string<unsigned short,struct std::char_traits<unsigned short>,class std::allocator<unsigned short> >  __cdecl std::operator+(class std::basic_string<unsigned short,struct std::char_traits<unsigned short>,class std::allocator<unsigned short> > const & __ptr64,class std::basic_string<unsigned short,struct std::char_traits<unsigned short>,class std::allocator<unsigned short> > const & __ptr64)
??Hstd@@YA?AV?$basic_string@GU?$char_traits@G@std@@V?$allocator@G@2@@0@AEBV10@0@Z
; class std::basic_string<unsigned short,struct std::char_traits<unsigned short>,class std::allocator<unsigned short> >  __cdecl std::operator+(class std::basic_string<unsigned short,struct std::char_traits<unsigned short>,class std::allocator<unsigned short> > const & __ptr64,unsigned short)
??Hstd@@YA?AV?$basic_string@GU?$char_traits@G@std@@V?$allocator@G@2@@0@AEBV10@G@Z
; class std::basic_string<unsigned short,struct std::char_traits<unsigned short>,class std::allocator<unsigned short> >  __cdecl std::operator+(class std::basic_string<unsigned short,struct std::char_traits<unsigned short>,class std::allocator<unsigned short> > const & __ptr64,unsigned short const * __ptr64)
??Hstd@@YA?AV?$basic_string@GU?$char_traits@G@std@@V?$allocator@G@2@@0@AEBV10@PEBG@Z
; class std::basic_string<unsigned short,struct std::char_traits<unsigned short>,class std::allocator<unsigned short> >  __cdecl std::operator+(unsigned short,class std::basic_string<unsigned short,struct std::char_traits<unsigned short>,class std::allocator<unsigned short> > const & __ptr64)
??Hstd@@YA?AV?$basic_string@GU?$char_traits@G@std@@V?$allocator@G@2@@0@GAEBV10@@Z
; class std::basic_string<unsigned short,struct std::char_traits<unsigned short>,class std::allocator<unsigned short> >  __cdecl std::operator+(unsigned short const * __ptr64,class std::basic_string<unsigned short,struct std::char_traits<unsigned short>,class std::allocator<unsigned short> > const & __ptr64)
??Hstd@@YA?AV?$basic_string@GU?$char_traits@G@std@@V?$allocator@G@2@@0@PEBGAEBV10@@Z
; class std::complex<float>  __cdecl std::operator+(float const & __ptr64,class std::complex<float> const & __ptr64)
??Hstd@@YA?AV?$complex@M@0@AEBMAEBV10@@Z
; class std::complex<float>  __cdecl std::operator+(class std::complex<float> const & __ptr64,class std::complex<float> const & __ptr64)
??Hstd@@YA?AV?$complex@M@0@AEBV10@0@Z
; class std::complex<float>  __cdecl std::operator+(class std::complex<float> const & __ptr64)
??Hstd@@YA?AV?$complex@M@0@AEBV10@@Z
; class std::complex<float>  __cdecl std::operator+(class std::complex<float> const & __ptr64,float const & __ptr64)
??Hstd@@YA?AV?$complex@M@0@AEBV10@AEBM@Z
; class std::complex<double>  __cdecl std::operator+(double const & __ptr64,class std::complex<double> const & __ptr64)
??Hstd@@YA?AV?$complex@N@0@AEBNAEBV10@@Z
; class std::complex<double>  __cdecl std::operator+(class std::complex<double> const & __ptr64,class std::complex<double> const & __ptr64)
??Hstd@@YA?AV?$complex@N@0@AEBV10@0@Z
; class std::complex<double>  __cdecl std::operator+(class std::complex<double> const & __ptr64)
??Hstd@@YA?AV?$complex@N@0@AEBV10@@Z
; class std::complex<double>  __cdecl std::operator+(class std::complex<double> const & __ptr64,double const & __ptr64)
??Hstd@@YA?AV?$complex@N@0@AEBV10@AEBN@Z
; class std::complex<long double>  __cdecl std::operator+(long double const & __ptr64,class std::complex<long double> const & __ptr64)
??Hstd@@YA?AV?$complex@O@0@AEBOAEBV10@@Z
; class std::complex<long double>  __cdecl std::operator+(class std::complex<long double> const & __ptr64,class std::complex<long double> const & __ptr64)
??Hstd@@YA?AV?$complex@O@0@AEBV10@0@Z
; class std::complex<long double>  __cdecl std::operator+(class std::complex<long double> const & __ptr64)
??Hstd@@YA?AV?$complex@O@0@AEBV10@@Z
; class std::complex<long double>  __cdecl std::operator+(class std::complex<long double> const & __ptr64,long double const & __ptr64)
??Hstd@@YA?AV?$complex@O@0@AEBV10@AEBO@Z
; class std::complex<float>  __cdecl std::operator/(float const & __ptr64,class std::complex<float> const & __ptr64)
??Kstd@@YA?AV?$complex@M@0@AEBMAEBV10@@Z
; class std::complex<float>  __cdecl std::operator/(class std::complex<float> const & __ptr64,class std::complex<float> const & __ptr64)
??Kstd@@YA?AV?$complex@M@0@AEBV10@0@Z
; class std::complex<float>  __cdecl std::operator/(class std::complex<float> const & __ptr64,float const & __ptr64)
??Kstd@@YA?AV?$complex@M@0@AEBV10@AEBM@Z
; class std::complex<double>  __cdecl std::operator/(double const & __ptr64,class std::complex<double> const & __ptr64)
??Kstd@@YA?AV?$complex@N@0@AEBNAEBV10@@Z
; class std::complex<double>  __cdecl std::operator/(class std::complex<double> const & __ptr64,class std::complex<double> const & __ptr64)
??Kstd@@YA?AV?$complex@N@0@AEBV10@0@Z
; class std::complex<double>  __cdecl std::operator/(class std::complex<double> const & __ptr64,double const & __ptr64)
??Kstd@@YA?AV?$complex@N@0@AEBV10@AEBN@Z
; class std::complex<long double>  __cdecl std::operator/(long double const & __ptr64,class std::complex<long double> const & __ptr64)
??Kstd@@YA?AV?$complex@O@0@AEBOAEBV10@@Z
; class std::complex<long double>  __cdecl std::operator/(class std::complex<long double> const & __ptr64,class std::complex<long double> const & __ptr64)
??Kstd@@YA?AV?$complex@O@0@AEBV10@0@Z
; class std::complex<long double>  __cdecl std::operator/(class std::complex<long double> const & __ptr64,long double const & __ptr64)
??Kstd@@YA?AV?$complex@O@0@AEBV10@AEBO@Z
; bool __cdecl std::operator<(class std::basic_string<char,struct std::char_traits<char>,class std::allocator<char> > const & __ptr64,class std::basic_string<char,struct std::char_traits<char>,class std::allocator<char> > const & __ptr64)
??Mstd@@YA_NAEBV?$basic_string@DU?$char_traits@D@std@@V?$allocator@D@2@@0@0@Z
; bool __cdecl std::operator<(class std::basic_string<char,struct std::char_traits<char>,class std::allocator<char> > const & __ptr64,char const * __ptr64)
??Mstd@@YA_NAEBV?$basic_string@DU?$char_traits@D@std@@V?$allocator@D@2@@0@PEBD@Z
; bool __cdecl std::operator<(class std::basic_string<unsigned short,struct std::char_traits<unsigned short>,class std::allocator<unsigned short> > const & __ptr64,class std::basic_string<unsigned short,struct std::char_traits<unsigned short>,class std::allocator<unsigned short> > const & __ptr64)
??Mstd@@YA_NAEBV?$basic_string@GU?$char_traits@G@std@@V?$allocator@G@2@@0@0@Z
; bool __cdecl std::operator<(class std::basic_string<unsigned short,struct std::char_traits<unsigned short>,class std::allocator<unsigned short> > const & __ptr64,unsigned short const * __ptr64)
??Mstd@@YA_NAEBV?$basic_string@GU?$char_traits@G@std@@V?$allocator@G@2@@0@PEBG@Z
; bool __cdecl std::operator<(char const * __ptr64,class std::basic_string<char,struct std::char_traits<char>,class std::allocator<char> > const & __ptr64)
??Mstd@@YA_NPEBDAEBV?$basic_string@DU?$char_traits@D@std@@V?$allocator@D@2@@0@@Z
; bool __cdecl std::operator<(unsigned short const * __ptr64,class std::basic_string<unsigned short,struct std::char_traits<unsigned short>,class std::allocator<unsigned short> > const & __ptr64)
??Mstd@@YA_NPEBGAEBV?$basic_string@GU?$char_traits@G@std@@V?$allocator@G@2@@0@@Z
; bool __cdecl std::operator<=(class std::basic_string<char,struct std::char_traits<char>,class std::allocator<char> > const & __ptr64,class std::basic_string<char,struct std::char_traits<char>,class std::allocator<char> > const & __ptr64)
??Nstd@@YA_NAEBV?$basic_string@DU?$char_traits@D@std@@V?$allocator@D@2@@0@0@Z
; bool __cdecl std::operator<=(class std::basic_string<char,struct std::char_traits<char>,class std::allocator<char> > const & __ptr64,char const * __ptr64)
??Nstd@@YA_NAEBV?$basic_string@DU?$char_traits@D@std@@V?$allocator@D@2@@0@PEBD@Z
; bool __cdecl std::operator<=(class std::basic_string<unsigned short,struct std::char_traits<unsigned short>,class std::allocator<unsigned short> > const & __ptr64,class std::basic_string<unsigned short,struct std::char_traits<unsigned short>,class std::allocator<unsigned short> > const & __ptr64)
??Nstd@@YA_NAEBV?$basic_string@GU?$char_traits@G@std@@V?$allocator@G@2@@0@0@Z
; bool __cdecl std::operator<=(class std::basic_string<unsigned short,struct std::char_traits<unsigned short>,class std::allocator<unsigned short> > const & __ptr64,unsigned short const * __ptr64)
??Nstd@@YA_NAEBV?$basic_string@GU?$char_traits@G@std@@V?$allocator@G@2@@0@PEBG@Z
; bool __cdecl std::operator<=(char const * __ptr64,class std::basic_string<char,struct std::char_traits<char>,class std::allocator<char> > const & __ptr64)
??Nstd@@YA_NPEBDAEBV?$basic_string@DU?$char_traits@D@std@@V?$allocator@D@2@@0@@Z
; bool __cdecl std::operator<=(unsigned short const * __ptr64,class std::basic_string<unsigned short,struct std::char_traits<unsigned short>,class std::allocator<unsigned short> > const & __ptr64)
??Nstd@@YA_NPEBGAEBV?$basic_string@GU?$char_traits@G@std@@V?$allocator@G@2@@0@@Z
; bool __cdecl std::operator>(class std::basic_string<char,struct std::char_traits<char>,class std::allocator<char> > const & __ptr64,class std::basic_string<char,struct std::char_traits<char>,class std::allocator<char> > const & __ptr64)
??Ostd@@YA_NAEBV?$basic_string@DU?$char_traits@D@std@@V?$allocator@D@2@@0@0@Z
; bool __cdecl std::operator>(class std::basic_string<char,struct std::char_traits<char>,class std::allocator<char> > const & __ptr64,char const * __ptr64)
??Ostd@@YA_NAEBV?$basic_string@DU?$char_traits@D@std@@V?$allocator@D@2@@0@PEBD@Z
; bool __cdecl std::operator>(class std::basic_string<unsigned short,struct std::char_traits<unsigned short>,class std::allocator<unsigned short> > const & __ptr64,class std::basic_string<unsigned short,struct std::char_traits<unsigned short>,class std::allocator<unsigned short> > const & __ptr64)
??Ostd@@YA_NAEBV?$basic_string@GU?$char_traits@G@std@@V?$allocator@G@2@@0@0@Z
; bool __cdecl std::operator>(class std::basic_string<unsigned short,struct std::char_traits<unsigned short>,class std::allocator<unsigned short> > const & __ptr64,unsigned short const * __ptr64)
??Ostd@@YA_NAEBV?$basic_string@GU?$char_traits@G@std@@V?$allocator@G@2@@0@PEBG@Z
; bool __cdecl std::operator>(char const * __ptr64,class std::basic_string<char,struct std::char_traits<char>,class std::allocator<char> > const & __ptr64)
??Ostd@@YA_NPEBDAEBV?$basic_string@DU?$char_traits@D@std@@V?$allocator@D@2@@0@@Z
; bool __cdecl std::operator>(unsigned short const * __ptr64,class std::basic_string<unsigned short,struct std::char_traits<unsigned short>,class std::allocator<unsigned short> > const & __ptr64)
??Ostd@@YA_NPEBGAEBV?$basic_string@GU?$char_traits@G@std@@V?$allocator@G@2@@0@@Z
; bool __cdecl std::operator>=(class std::basic_string<char,struct std::char_traits<char>,class std::allocator<char> > const & __ptr64,class std::basic_string<char,struct std::char_traits<char>,class std::allocator<char> > const & __ptr64)
??Pstd@@YA_NAEBV?$basic_string@DU?$char_traits@D@std@@V?$allocator@D@2@@0@0@Z
; bool __cdecl std::operator>=(class std::basic_string<char,struct std::char_traits<char>,class std::allocator<char> > const & __ptr64,char const * __ptr64)
??Pstd@@YA_NAEBV?$basic_string@DU?$char_traits@D@std@@V?$allocator@D@2@@0@PEBD@Z
; bool __cdecl std::operator>=(class std::basic_string<unsigned short,struct std::char_traits<unsigned short>,class std::allocator<unsigned short> > const & __ptr64,class std::basic_string<unsigned short,struct std::char_traits<unsigned short>,class std::allocator<unsigned short> > const & __ptr64)
??Pstd@@YA_NAEBV?$basic_string@GU?$char_traits@G@std@@V?$allocator@G@2@@0@0@Z
; bool __cdecl std::operator>=(class std::basic_string<unsigned short,struct std::char_traits<unsigned short>,class std::allocator<unsigned short> > const & __ptr64,unsigned short const * __ptr64)
??Pstd@@YA_NAEBV?$basic_string@GU?$char_traits@G@std@@V?$allocator@G@2@@0@PEBG@Z
; bool __cdecl std::operator>=(char const * __ptr64,class std::basic_string<char,struct std::char_traits<char>,class std::allocator<char> > const & __ptr64)
??Pstd@@YA_NPEBDAEBV?$basic_string@DU?$char_traits@D@std@@V?$allocator@D@2@@0@@Z
; bool __cdecl std::operator>=(unsigned short const * __ptr64,class std::basic_string<unsigned short,struct std::char_traits<unsigned short>,class std::allocator<unsigned short> > const & __ptr64)
??Pstd@@YA_NPEBGAEBV?$basic_string@GU?$char_traits@G@std@@V?$allocator@G@2@@0@@Z
; public: bool __cdecl std::locale::operator()(class std::basic_string<char,struct std::char_traits<char>,class std::allocator<char> > const & __ptr64,class std::basic_string<char,struct std::char_traits<char>,class std::allocator<char> > const & __ptr64)const  __ptr64
??Rlocale@std@@QEBA_NAEBV?$basic_string@DU?$char_traits@D@std@@V?$allocator@D@2@@1@0@Z
; public: class std::_Complex_base<float> & __ptr64 __cdecl std::_Complex_base<float>::operator*=(float const & __ptr64) __ptr64
??X?$_Complex_base@M@std@@QEAAAEAV01@AEBM@Z
; public: class std::_Complex_base<double> & __ptr64 __cdecl std::_Complex_base<double>::operator*=(double const & __ptr64) __ptr64
??X?$_Complex_base@N@std@@QEAAAEAV01@AEBN@Z
; public: class std::_Complex_base<long double> & __ptr64 __cdecl std::_Complex_base<long double>::operator*=(long double const & __ptr64) __ptr64
??X?$_Complex_base@O@std@@QEAAAEAV01@AEBO@Z
; class std::complex<float> & __ptr64 __cdecl std::operator*=(class std::complex<float> & __ptr64,class std::complex<float> const & __ptr64)
??Xstd@@YAAEAV?$complex@M@0@AEAV10@AEBV10@@Z
; class std::complex<double> & __ptr64 __cdecl std::operator*=(class std::complex<double> & __ptr64,class std::complex<double> const & __ptr64)
??Xstd@@YAAEAV?$complex@N@0@AEAV10@AEBV10@@Z
; class std::complex<long double> & __ptr64 __cdecl std::operator*=(class std::complex<long double> & __ptr64,class std::complex<long double> const & __ptr64)
??Xstd@@YAAEAV?$complex@O@0@AEAV10@AEBV10@@Z
; public: class std::_Complex_base<float> & __ptr64 __cdecl std::_Complex_base<float>::operator+=(float const & __ptr64) __ptr64
??Y?$_Complex_base@M@std@@QEAAAEAV01@AEBM@Z
; public: class std::_Complex_base<double> & __ptr64 __cdecl std::_Complex_base<double>::operator+=(double const & __ptr64) __ptr64
??Y?$_Complex_base@N@std@@QEAAAEAV01@AEBN@Z
; public: class std::_Complex_base<long double> & __ptr64 __cdecl std::_Complex_base<long double>::operator+=(long double const & __ptr64) __ptr64
??Y?$_Complex_base@O@std@@QEAAAEAV01@AEBO@Z
; public: class std::basic_string<char,struct std::char_traits<char>,class std::allocator<char> > & __ptr64 __cdecl std::basic_string<char,struct std::char_traits<char>,class std::allocator<char> >::operator+=(class std::basic_string<char,struct std::char_traits<char>,class std::allocator<char> > const & __ptr64) __ptr64
??Y?$basic_string@DU?$char_traits@D@std@@V?$allocator@D@2@@std@@QEAAAEAV01@AEBV01@@Z
; public: class std::basic_string<char,struct std::char_traits<char>,class std::allocator<char> > & __ptr64 __cdecl std::basic_string<char,struct std::char_traits<char>,class std::allocator<char> >::operator+=(char) __ptr64
??Y?$basic_string@DU?$char_traits@D@std@@V?$allocator@D@2@@std@@QEAAAEAV01@D@Z
; public: class std::basic_string<char,struct std::char_traits<char>,class std::allocator<char> > & __ptr64 __cdecl std::basic_string<char,struct std::char_traits<char>,class std::allocator<char> >::operator+=(char const * __ptr64) __ptr64
??Y?$basic_string@DU?$char_traits@D@std@@V?$allocator@D@2@@std@@QEAAAEAV01@PEBD@Z
; public: class std::basic_string<unsigned short,struct std::char_traits<unsigned short>,class std::allocator<unsigned short> > & __ptr64 __cdecl std::basic_string<unsigned short,struct std::char_traits<unsigned short>,class std::allocator<unsigned short> >::operator+=(class std::basic_string<unsigned short,struct std::char_traits<unsigned short>,class std::allocator<unsigned short> > const & __ptr64) __ptr64
??Y?$basic_string@GU?$char_traits@G@std@@V?$allocator@G@2@@std@@QEAAAEAV01@AEBV01@@Z
; public: class std::basic_string<unsigned short,struct std::char_traits<unsigned short>,class std::allocator<unsigned short> > & __ptr64 __cdecl std::basic_string<unsigned short,struct std::char_traits<unsigned short>,class std::allocator<unsigned short> >::operator+=(unsigned short) __ptr64
??Y?$basic_string@GU?$char_traits@G@std@@V?$allocator@G@2@@std@@QEAAAEAV01@G@Z
; public: class std::basic_string<unsigned short,struct std::char_traits<unsigned short>,class std::allocator<unsigned short> > & __ptr64 __cdecl std::basic_string<unsigned short,struct std::char_traits<unsigned short>,class std::allocator<unsigned short> >::operator+=(unsigned short const * __ptr64) __ptr64
??Y?$basic_string@GU?$char_traits@G@std@@V?$allocator@G@2@@std@@QEAAAEAV01@PEBG@Z
; class std::complex<float> & __ptr64 __cdecl std::operator+=(class std::complex<float> & __ptr64,class std::complex<float> const & __ptr64)
??Ystd@@YAAEAV?$complex@M@0@AEAV10@AEBV10@@Z
; class std::complex<double> & __ptr64 __cdecl std::operator+=(class std::complex<double> & __ptr64,class std::complex<double> const & __ptr64)
??Ystd@@YAAEAV?$complex@N@0@AEAV10@AEBV10@@Z
; class std::complex<long double> & __ptr64 __cdecl std::operator+=(class std::complex<long double> & __ptr64,class std::complex<long double> const & __ptr64)
??Ystd@@YAAEAV?$complex@O@0@AEAV10@AEBV10@@Z
; public: class std::_Complex_base<float> & __ptr64 __cdecl std::_Complex_base<float>::operator-=(float const & __ptr64) __ptr64
??Z?$_Complex_base@M@std@@QEAAAEAV01@AEBM@Z
; public: class std::_Complex_base<double> & __ptr64 __cdecl std::_Complex_base<double>::operator-=(double const & __ptr64) __ptr64
??Z?$_Complex_base@N@std@@QEAAAEAV01@AEBN@Z
; public: class std::_Complex_base<long double> & __ptr64 __cdecl std::_Complex_base<long double>::operator-=(long double const & __ptr64) __ptr64
??Z?$_Complex_base@O@std@@QEAAAEAV01@AEBO@Z
; class std::complex<float> & __ptr64 __cdecl std::operator-=(class std::complex<float> & __ptr64,class std::complex<float> const & __ptr64)
??Zstd@@YAAEAV?$complex@M@0@AEAV10@AEBV10@@Z
; class std::complex<double> & __ptr64 __cdecl std::operator-=(class std::complex<double> & __ptr64,class std::complex<double> const & __ptr64)
??Zstd@@YAAEAV?$complex@N@0@AEAV10@AEBV10@@Z
; class std::complex<long double> & __ptr64 __cdecl std::operator-=(class std::complex<long double> & __ptr64,class std::complex<long double> const & __ptr64)
??Zstd@@YAAEAV?$complex@O@0@AEAV10@AEBV10@@Z
; public: class std::_Complex_base<float> & __ptr64 __cdecl std::_Complex_base<float>::operator/=(float const & __ptr64) __ptr64
??_0?$_Complex_base@M@std@@QEAAAEAV01@AEBM@Z
; public: class std::_Complex_base<double> & __ptr64 __cdecl std::_Complex_base<double>::operator/=(double const & __ptr64) __ptr64
??_0?$_Complex_base@N@std@@QEAAAEAV01@AEBN@Z
; public: class std::_Complex_base<long double> & __ptr64 __cdecl std::_Complex_base<long double>::operator/=(long double const & __ptr64) __ptr64
??_0?$_Complex_base@O@std@@QEAAAEAV01@AEBO@Z
; class std::complex<float> & __ptr64 __cdecl std::operator/=(class std::complex<float> & __ptr64,class std::complex<float> const & __ptr64)
??_0std@@YAAEAV?$complex@M@0@AEAV10@AEBV10@@Z
; class std::complex<double> & __ptr64 __cdecl std::operator/=(class std::complex<double> & __ptr64,class std::complex<double> const & __ptr64)
??_0std@@YAAEAV?$complex@N@0@AEAV10@AEBV10@@Z
; class std::complex<long double> & __ptr64 __cdecl std::operator/=(class std::complex<long double> & __ptr64,class std::complex<long double> const & __ptr64)
??_0std@@YAAEAV?$complex@O@0@AEAV10@AEBV10@@Z
; const  std::_Mpunct<char>::`vftable'
??_7?$_Mpunct@D@std@@6B@
; const  std::_Mpunct<unsigned short>::`vftable'
??_7?$_Mpunct@G@std@@6B@
; const  std::basic_filebuf<char,struct std::char_traits<char> >::`vftable'
??_7?$basic_filebuf@DU?$char_traits@D@std@@@std@@6B@
; const  std::basic_filebuf<unsigned short,struct std::char_traits<unsigned short> >::`vftable'
??_7?$basic_filebuf@GU?$char_traits@G@std@@@std@@6B@
; const  std::basic_fstream<char,struct std::char_traits<char> >::`vftable'
??_7?$basic_fstream@DU?$char_traits@D@std@@@std@@6B@
; const  std::basic_fstream<unsigned short,struct std::char_traits<unsigned short> >::`vftable'
??_7?$basic_fstream@GU?$char_traits@G@std@@@std@@6B@
; const  std::basic_ifstream<char,struct std::char_traits<char> >::`vftable'
??_7?$basic_ifstream@DU?$char_traits@D@std@@@std@@6B@
; const  std::basic_ifstream<unsigned short,struct std::char_traits<unsigned short> >::`vftable'
??_7?$basic_ifstream@GU?$char_traits@G@std@@@std@@6B@
; const  std::basic_ios<char,struct std::char_traits<char> >::`vftable'
??_7?$basic_ios@DU?$char_traits@D@std@@@std@@6B@
; const  std::basic_ios<unsigned short,struct std::char_traits<unsigned short> >::`vftable'
??_7?$basic_ios@GU?$char_traits@G@std@@@std@@6B@
; const  std::basic_iostream<char,struct std::char_traits<char> >::`vftable'
??_7?$basic_iostream@DU?$char_traits@D@std@@@std@@6B@
; const  std::basic_iostream<unsigned short,struct std::char_traits<unsigned short> >::`vftable'
??_7?$basic_iostream@GU?$char_traits@G@std@@@std@@6B@
; const  std::basic_istream<char,struct std::char_traits<char> >::`vftable'
??_7?$basic_istream@DU?$char_traits@D@std@@@std@@6B@
; const  std::basic_istream<unsigned short,struct std::char_traits<unsigned short> >::`vftable'
??_7?$basic_istream@GU?$char_traits@G@std@@@std@@6B@
; const  std::basic_istringstream<char,struct std::char_traits<char>,class std::allocator<char> >::`vftable'
??_7?$basic_istringstream@DU?$char_traits@D@std@@V?$allocator@D@2@@std@@6B@
; const  std::basic_istringstream<unsigned short,struct std::char_traits<unsigned short>,class std::allocator<unsigned short> >::`vftable'
??_7?$basic_istringstream@GU?$char_traits@G@std@@V?$allocator@G@2@@std@@6B@
; const  std::basic_ofstream<char,struct std::char_traits<char> >::`vftable'
??_7?$basic_ofstream@DU?$char_traits@D@std@@@std@@6B@
; const  std::basic_ofstream<unsigned short,struct std::char_traits<unsigned short> >::`vftable'
??_7?$basic_ofstream@GU?$char_traits@G@std@@@std@@6B@
; const  std::basic_ostream<char,struct std::char_traits<char> >::`vftable'
??_7?$basic_ostream@DU?$char_traits@D@std@@@std@@6B@
; const  std::basic_ostream<unsigned short,struct std::char_traits<unsigned short> >::`vftable'
??_7?$basic_ostream@GU?$char_traits@G@std@@@std@@6B@
; const  std::basic_ostringstream<char,struct std::char_traits<char>,class std::allocator<char> >::`vftable'
??_7?$basic_ostringstream@DU?$char_traits@D@std@@V?$allocator@D@2@@std@@6B@
; const  std::basic_ostringstream<unsigned short,struct std::char_traits<unsigned short>,class std::allocator<unsigned short> >::`vftable'
??_7?$basic_ostringstream@GU?$char_traits@G@std@@V?$allocator@G@2@@std@@6B@
; const  std::basic_streambuf<char,struct std::char_traits<char> >::`vftable'
??_7?$basic_streambuf@DU?$char_traits@D@std@@@std@@6B@
; const  std::basic_streambuf<unsigned short,struct std::char_traits<unsigned short> >::`vftable'
??_7?$basic_streambuf@GU?$char_traits@G@std@@@std@@6B@
; const  std::basic_stringbuf<char,struct std::char_traits<char>,class std::allocator<char> >::`vftable'
??_7?$basic_stringbuf@DU?$char_traits@D@std@@V?$allocator@D@2@@std@@6B@
; const  std::basic_stringbuf<unsigned short,struct std::char_traits<unsigned short>,class std::allocator<unsigned short> >::`vftable'
??_7?$basic_stringbuf@GU?$char_traits@G@std@@V?$allocator@G@2@@std@@6B@
; const  std::basic_stringstream<char,struct std::char_traits<char>,class std::allocator<char> >::`vftable'
??_7?$basic_stringstream@DU?$char_traits@D@std@@V?$allocator@D@2@@std@@6B@
; const  std::basic_stringstream<unsigned short,struct std::char_traits<unsigned short>,class std::allocator<unsigned short> >::`vftable'
??_7?$basic_stringstream@GU?$char_traits@G@std@@V?$allocator@G@2@@std@@6B@
; const  std::codecvt<char,char,int>::`vftable'
??_7?$codecvt@DDH@std@@6B@
; const  std::codecvt<unsigned short,char,int>::`vftable'
??_7?$codecvt@GDH@std@@6B@
; const  std::collate<char>::`vftable'
??_7?$collate@D@std@@6B@
; const  std::collate<unsigned short>::`vftable'
??_7?$collate@G@std@@6B@
; const  std::ctype<char>::`vftable'
??_7?$ctype@D@std@@6B@
; const  std::ctype<unsigned short>::`vftable'
??_7?$ctype@G@std@@6B@
; const  std::messages<char>::`vftable'
??_7?$messages@D@std@@6B@
; const  std::messages<unsigned short>::`vftable'
??_7?$messages@G@std@@6B@
; const  std::money_get<char,class std::istreambuf_iterator<char,struct std::char_traits<char> > >::`vftable'
??_7?$money_get@DV?$istreambuf_iterator@DU?$char_traits@D@std@@@std@@@std@@6B@
; const  std::money_get<unsigned short,class std::istreambuf_iterator<unsigned short,struct std::char_traits<unsigned short> > >::`vftable'
??_7?$money_get@GV?$istreambuf_iterator@GU?$char_traits@G@std@@@std@@@std@@6B@
; const  std::money_put<char,class std::ostreambuf_iterator<char,struct std::char_traits<char> > >::`vftable'
??_7?$money_put@DV?$ostreambuf_iterator@DU?$char_traits@D@std@@@std@@@std@@6B@
; const  std::money_put<unsigned short,class std::ostreambuf_iterator<unsigned short,struct std::char_traits<unsigned short> > >::`vftable'
??_7?$money_put@GV?$ostreambuf_iterator@GU?$char_traits@G@std@@@std@@@std@@6B@
; const  std::moneypunct<char,1>::`vftable'
??_7?$moneypunct@D$00@std@@6B@
; const  std::moneypunct<char,0>::`vftable'
??_7?$moneypunct@D$0A@@std@@6B@
; const  std::moneypunct<unsigned short,1>::`vftable'
??_7?$moneypunct@G$00@std@@6B@
; const  std::moneypunct<unsigned short,0>::`vftable'
??_7?$moneypunct@G$0A@@std@@6B@
; const  std::num_get<char,class std::istreambuf_iterator<char,struct std::char_traits<char> > >::`vftable'
??_7?$num_get@DV?$istreambuf_iterator@DU?$char_traits@D@std@@@std@@@std@@6B@
; const  std::num_get<unsigned short,class std::istreambuf_iterator<unsigned short,struct std::char_traits<unsigned short> > >::`vftable'
??_7?$num_get@GV?$istreambuf_iterator@GU?$char_traits@G@std@@@std@@@std@@6B@
; const  std::num_put<char,class std::ostreambuf_iterator<char,struct std::char_traits<char> > >::`vftable'
??_7?$num_put@DV?$ostreambuf_iterator@DU?$char_traits@D@std@@@std@@@std@@6B@
; const  std::num_put<unsigned short,class std::ostreambuf_iterator<unsigned short,struct std::char_traits<unsigned short> > >::`vftable'
??_7?$num_put@GV?$ostreambuf_iterator@GU?$char_traits@G@std@@@std@@@std@@6B@
; const  std::numpunct<char>::`vftable'
??_7?$numpunct@D@std@@6B@
; const  std::numpunct<unsigned short>::`vftable'
??_7?$numpunct@G@std@@6B@
; const  std::time_get<char,class std::istreambuf_iterator<char,struct std::char_traits<char> > >::`vftable'
??_7?$time_get@DV?$istreambuf_iterator@DU?$char_traits@D@std@@@std@@@std@@6B@
; const  std::time_get<unsigned short,class std::istreambuf_iterator<unsigned short,struct std::char_traits<unsigned short> > >::`vftable'
??_7?$time_get@GV?$istreambuf_iterator@GU?$char_traits@G@std@@@std@@@std@@6B@
; const  std::time_put<char,class std::ostreambuf_iterator<char,struct std::char_traits<char> > >::`vftable'
??_7?$time_put@DV?$ostreambuf_iterator@DU?$char_traits@D@std@@@std@@@std@@6B@
; const  std::time_put<unsigned short,class std::ostreambuf_iterator<unsigned short,struct std::char_traits<unsigned short> > >::`vftable'
??_7?$time_put@GV?$ostreambuf_iterator@GU?$char_traits@G@std@@@std@@@std@@6B@
; const  std::__non_rtti_object::`vftable'
??_7__non_rtti_object@std@@6B@
; const  std::bad_alloc::`vftable'
??_7bad_alloc@std@@6B@
; const  std::bad_cast::`vftable'
??_7bad_cast@std@@6B@
; const  std::bad_exception::`vftable'
??_7bad_exception@std@@6B@
; const  std::bad_typeid::`vftable'
??_7bad_typeid@std@@6B@
; const  std::codecvt_base::`vftable'
??_7codecvt_base@std@@6B@
; const  std::ctype_base::`vftable'
??_7ctype_base@std@@6B@
; const  std::domain_error::`vftable'
??_7domain_error@std@@6B@
; const  std::locale::facet::`vftable'
??_7facet@locale@std@@6B@
; const  std::ios_base::`vftable'
??_7ios_base@std@@6B@
; const  std::length_error::`vftable'
??_7length_error@std@@6B@
; const  std::logic_error::`vftable'
??_7logic_error@std@@6B@
; const  std::messages_base::`vftable'
??_7messages_base@std@@6B@
; const  std::money_base::`vftable'
??_7money_base@std@@6B@
; const  std::out_of_range::`vftable'
??_7out_of_range@std@@6B@
; const  std::overflow_error::`vftable'
??_7overflow_error@std@@6B@
; const  std::range_error::`vftable'
??_7range_error@std@@6B@
; const  std::runtime_error::`vftable'
??_7runtime_error@std@@6B@
; const  std::time_base::`vftable'
??_7time_base@std@@6B@
; const  std::underflow_error::`vftable'
??_7underflow_error@std@@6B@
; const  std::basic_fstream<char,struct std::char_traits<char> >::`vbtable'{for `std::basic_istream<char,struct std::char_traits<char> >'}
??_8?$basic_fstream@DU?$char_traits@D@std@@@std@@7B?$basic_istream@DU?$char_traits@D@std@@@1@@ DATA
; const  std::basic_fstream<char,struct std::char_traits<char> >::`vbtable'{for `std::basic_ostream<char,struct std::char_traits<char> >'}
??_8?$basic_fstream@DU?$char_traits@D@std@@@std@@7B?$basic_ostream@DU?$char_traits@D@std@@@1@@ DATA
; const  std::basic_fstream<unsigned short,struct std::char_traits<unsigned short> >::`vbtable'{for `std::basic_istream<unsigned short,struct std::char_traits<unsigned short> >'}
??_8?$basic_fstream@GU?$char_traits@G@std@@@std@@7B?$basic_istream@GU?$char_traits@G@std@@@1@@ DATA
; const  std::basic_fstream<unsigned short,struct std::char_traits<unsigned short> >::`vbtable'{for `std::basic_ostream<unsigned short,struct std::char_traits<unsigned short> >'}
??_8?$basic_fstream@GU?$char_traits@G@std@@@std@@7B?$basic_ostream@GU?$char_traits@G@std@@@1@@ DATA
; const  std::basic_ifstream<char,struct std::char_traits<char> >::`vbtable'
??_8?$basic_ifstream@DU?$char_traits@D@std@@@std@@7B@ DATA
; const  std::basic_ifstream<unsigned short,struct std::char_traits<unsigned short> >::`vbtable'
??_8?$basic_ifstream@GU?$char_traits@G@std@@@std@@7B@ DATA
; const  std::basic_iostream<char,struct std::char_traits<char> >::`vbtable'{for `std::basic_istream<char,struct std::char_traits<char> >'}
??_8?$basic_iostream@DU?$char_traits@D@std@@@std@@7B?$basic_istream@DU?$char_traits@D@std@@@1@@ DATA
; const  std::basic_iostream<char,struct std::char_traits<char> >::`vbtable'{for `std::basic_ostream<char,struct std::char_traits<char> >'}
??_8?$basic_iostream@DU?$char_traits@D@std@@@std@@7B?$basic_ostream@DU?$char_traits@D@std@@@1@@ DATA
; const  std::basic_iostream<unsigned short,struct std::char_traits<unsigned short> >::`vbtable'{for `std::basic_istream<unsigned short,struct std::char_traits<unsigned short> >'}
??_8?$basic_iostream@GU?$char_traits@G@std@@@std@@7B?$basic_istream@GU?$char_traits@G@std@@@1@@ DATA
; const  std::basic_iostream<unsigned short,struct std::char_traits<unsigned short> >::`vbtable'{for `std::basic_ostream<unsigned short,struct std::char_traits<unsigned short> >'}
??_8?$basic_iostream@GU?$char_traits@G@std@@@std@@7B?$basic_ostream@GU?$char_traits@G@std@@@1@@ DATA
; const  std::basic_istream<char,struct std::char_traits<char> >::`vbtable'
??_8?$basic_istream@DU?$char_traits@D@std@@@std@@7B@ DATA
; const  std::basic_istream<unsigned short,struct std::char_traits<unsigned short> >::`vbtable'
??_8?$basic_istream@GU?$char_traits@G@std@@@std@@7B@ DATA
; const  std::basic_istringstream<char,struct std::char_traits<char>,class std::allocator<char> >::`vbtable'
??_8?$basic_istringstream@DU?$char_traits@D@std@@V?$allocator@D@2@@std@@7B@ DATA
; const  std::basic_istringstream<unsigned short,struct std::char_traits<unsigned short>,class std::allocator<unsigned short> >::`vbtable'
??_8?$basic_istringstream@GU?$char_traits@G@std@@V?$allocator@G@2@@std@@7B@ DATA
; const  std::basic_ofstream<char,struct std::char_traits<char> >::`vbtable'
??_8?$basic_ofstream@DU?$char_traits@D@std@@@std@@7B@ DATA
; const  std::basic_ofstream<unsigned short,struct std::char_traits<unsigned short> >::`vbtable'
??_8?$basic_ofstream@GU?$char_traits@G@std@@@std@@7B@ DATA
; const  std::basic_ostream<char,struct std::char_traits<char> >::`vbtable'
??_8?$basic_ostream@DU?$char_traits@D@std@@@std@@7B@ DATA
; const  std::basic_ostream<unsigned short,struct std::char_traits<unsigned short> >::`vbtable'
??_8?$basic_ostream@GU?$char_traits@G@std@@@std@@7B@ DATA
; const  std::basic_ostringstream<char,struct std::char_traits<char>,class std::allocator<char> >::`vbtable'
??_8?$basic_ostringstream@DU?$char_traits@D@std@@V?$allocator@D@2@@std@@7B@ DATA
; const  std::basic_ostringstream<unsigned short,struct std::char_traits<unsigned short>,class std::allocator<unsigned short> >::`vbtable'
??_8?$basic_ostringstream@GU?$char_traits@G@std@@V?$allocator@G@2@@std@@7B@ DATA
; const  std::basic_stringstream<char,struct std::char_traits<char>,class std::allocator<char> >::`vbtable'{for `std::basic_istream<char,struct std::char_traits<char> >'}
??_8?$basic_stringstream@DU?$char_traits@D@std@@V?$allocator@D@2@@std@@7B?$basic_istream@DU?$char_traits@D@std@@@1@@ DATA
; const  std::basic_stringstream<char,struct std::char_traits<char>,class std::allocator<char> >::`vbtable'{for `std::basic_ostream<char,struct std::char_traits<char> >'}
??_8?$basic_stringstream@DU?$char_traits@D@std@@V?$allocator@D@2@@std@@7B?$basic_ostream@DU?$char_traits@D@std@@@1@@ DATA
; const  std::basic_stringstream<unsigned short,struct std::char_traits<unsigned short>,class std::allocator<unsigned short> >::`vbtable'{for `std::basic_istream<unsigned short,struct std::char_traits<unsigned short> >'}
??_8?$basic_stringstream@GU?$char_traits@G@std@@V?$allocator@G@2@@std@@7B?$basic_istream@GU?$char_traits@G@std@@@1@@ DATA
; const  std::basic_stringstream<unsigned short,struct std::char_traits<unsigned short>,class std::allocator<unsigned short> >::`vbtable'{for `std::basic_ostream<unsigned short,struct std::char_traits<unsigned short> >'}
??_8?$basic_stringstream@GU?$char_traits@G@std@@V?$allocator@G@2@@std@@7B?$basic_ostream@GU?$char_traits@G@std@@@1@@ DATA
; public: void __cdecl std::basic_fstream<char,struct std::char_traits<char> >::`vbase destructor'(void) __ptr64
??_D?$basic_fstream@DU?$char_traits@D@std@@@std@@QEAAXXZ
; public: void __cdecl std::basic_fstream<unsigned short,struct std::char_traits<unsigned short> >::`vbase destructor'(void) __ptr64
??_D?$basic_fstream@GU?$char_traits@G@std@@@std@@QEAAXXZ
; public: void __cdecl std::basic_ifstream<char,struct std::char_traits<char> >::`vbase destructor'(void) __ptr64
??_D?$basic_ifstream@DU?$char_traits@D@std@@@std@@QEAAXXZ
; public: void __cdecl std::basic_ifstream<unsigned short,struct std::char_traits<unsigned short> >::`vbase destructor'(void) __ptr64
??_D?$basic_ifstream@GU?$char_traits@G@std@@@std@@QEAAXXZ
; public: void __cdecl std::basic_iostream<char,struct std::char_traits<char> >::`vbase destructor'(void) __ptr64
??_D?$basic_iostream@DU?$char_traits@D@std@@@std@@QEAAXXZ
; public: void __cdecl std::basic_iostream<unsigned short,struct std::char_traits<unsigned short> >::`vbase destructor'(void) __ptr64
??_D?$basic_iostream@GU?$char_traits@G@std@@@std@@QEAAXXZ
; public: void __cdecl std::basic_istream<char,struct std::char_traits<char> >::`vbase destructor'(void) __ptr64
??_D?$basic_istream@DU?$char_traits@D@std@@@std@@QEAAXXZ
; public: void __cdecl std::basic_istream<unsigned short,struct std::char_traits<unsigned short> >::`vbase destructor'(void) __ptr64
??_D?$basic_istream@GU?$char_traits@G@std@@@std@@QEAAXXZ
; public: void __cdecl std::basic_istringstream<char,struct std::char_traits<char>,class std::allocator<char> >::`vbase destructor'(void) __ptr64
??_D?$basic_istringstream@DU?$char_traits@D@std@@V?$allocator@D@2@@std@@QEAAXXZ
; public: void __cdecl std::basic_istringstream<unsigned short,struct std::char_traits<unsigned short>,class std::allocator<unsigned short> >::`vbase destructor'(void) __ptr64
??_D?$basic_istringstream@GU?$char_traits@G@std@@V?$allocator@G@2@@std@@QEAAXXZ
; public: void __cdecl std::basic_ofstream<char,struct std::char_traits<char> >::`vbase destructor'(void) __ptr64
??_D?$basic_ofstream@DU?$char_traits@D@std@@@std@@QEAAXXZ
; public: void __cdecl std::basic_ofstream<unsigned short,struct std::char_traits<unsigned short> >::`vbase destructor'(void) __ptr64
??_D?$basic_ofstream@GU?$char_traits@G@std@@@std@@QEAAXXZ
; public: void __cdecl std::basic_ostream<char,struct std::char_traits<char> >::`vbase destructor'(void) __ptr64
??_D?$basic_ostream@DU?$char_traits@D@std@@@std@@QEAAXXZ
; public: void __cdecl std::basic_ostream<unsigned short,struct std::char_traits<unsigned short> >::`vbase destructor'(void) __ptr64
??_D?$basic_ostream@GU?$char_traits@G@std@@@std@@QEAAXXZ
; public: void __cdecl std::basic_ostringstream<char,struct std::char_traits<char>,class std::allocator<char> >::`vbase destructor'(void) __ptr64
??_D?$basic_ostringstream@DU?$char_traits@D@std@@V?$allocator@D@2@@std@@QEAAXXZ
; public: void __cdecl std::basic_ostringstream<unsigned short,struct std::char_traits<unsigned short>,class std::allocator<unsigned short> >::`vbase destructor'(void) __ptr64
??_D?$basic_ostringstream@GU?$char_traits@G@std@@V?$allocator@G@2@@std@@QEAAXXZ
; public: void __cdecl std::basic_stringstream<char,struct std::char_traits<char>,class std::allocator<char> >::`vbase destructor'(void) __ptr64
??_D?$basic_stringstream@DU?$char_traits@D@std@@V?$allocator@D@2@@std@@QEAAXXZ
; public: void __cdecl std::basic_stringstream<unsigned short,struct std::char_traits<unsigned short>,class std::allocator<unsigned short> >::`vbase destructor'(void) __ptr64
??_D?$basic_stringstream@GU?$char_traits@G@std@@V?$allocator@G@2@@std@@QEAAXXZ
; public: void __cdecl std::basic_filebuf<char,struct std::char_traits<char> >::`default constructor closure'(void) __ptr64
??_F?$basic_filebuf@DU?$char_traits@D@std@@@std@@QEAAXXZ
; public: void __cdecl std::basic_filebuf<unsigned short,struct std::char_traits<unsigned short> >::`default constructor closure'(void) __ptr64
??_F?$basic_filebuf@GU?$char_traits@G@std@@@std@@QEAAXXZ
; public: void __cdecl std::basic_istringstream<char,struct std::char_traits<char>,class std::allocator<char> >::`default constructor closure'(void) __ptr64
??_F?$basic_istringstream@DU?$char_traits@D@std@@V?$allocator@D@2@@std@@QEAAXXZ
; public: void __cdecl std::basic_istringstream<unsigned short,struct std::char_traits<unsigned short>,class std::allocator<unsigned short> >::`default constructor closure'(void) __ptr64
??_F?$basic_istringstream@GU?$char_traits@G@std@@V?$allocator@G@2@@std@@QEAAXXZ
; public: void __cdecl std::basic_ostringstream<char,struct std::char_traits<char>,class std::allocator<char> >::`default constructor closure'(void) __ptr64
??_F?$basic_ostringstream@DU?$char_traits@D@std@@V?$allocator@D@2@@std@@QEAAXXZ
; public: void __cdecl std::basic_ostringstream<unsigned short,struct std::char_traits<unsigned short>,class std::allocator<unsigned short> >::`default constructor closure'(void) __ptr64
??_F?$basic_ostringstream@GU?$char_traits@G@std@@V?$allocator@G@2@@std@@QEAAXXZ
; public: void __cdecl std::basic_string<char,struct std::char_traits<char>,class std::allocator<char> >::`default constructor closure'(void) __ptr64
??_F?$basic_string@DU?$char_traits@D@std@@V?$allocator@D@2@@std@@QEAAXXZ
; public: void __cdecl std::basic_string<unsigned short,struct std::char_traits<unsigned short>,class std::allocator<unsigned short> >::`default constructor closure'(void) __ptr64
??_F?$basic_string@GU?$char_traits@G@std@@V?$allocator@G@2@@std@@QEAAXXZ
; public: void __cdecl std::basic_stringbuf<char,struct std::char_traits<char>,class std::allocator<char> >::`default constructor closure'(void) __ptr64
??_F?$basic_stringbuf@DU?$char_traits@D@std@@V?$allocator@D@2@@std@@QEAAXXZ
; public: void __cdecl std::basic_stringbuf<unsigned short,struct std::char_traits<unsigned short>,class std::allocator<unsigned short> >::`default constructor closure'(void) __ptr64
??_F?$basic_stringbuf@GU?$char_traits@G@std@@V?$allocator@G@2@@std@@QEAAXXZ
; public: void __cdecl std::basic_stringstream<char,struct std::char_traits<char>,class std::allocator<char> >::`default constructor closure'(void) __ptr64
??_F?$basic_stringstream@DU?$char_traits@D@std@@V?$allocator@D@2@@std@@QEAAXXZ
; public: void __cdecl std::basic_stringstream<unsigned short,struct std::char_traits<unsigned short>,class std::allocator<unsigned short> >::`default constructor closure'(void) __ptr64
??_F?$basic_stringstream@GU?$char_traits@G@std@@V?$allocator@G@2@@std@@QEAAXXZ
; public: void __cdecl std::codecvt<char,char,int>::`default constructor closure'(void) __ptr64
??_F?$codecvt@DDH@std@@QEAAXXZ
; public: void __cdecl std::codecvt<unsigned short,char,int>::`default constructor closure'(void) __ptr64
??_F?$codecvt@GDH@std@@QEAAXXZ
; public: void __cdecl std::collate<char>::`default constructor closure'(void) __ptr64
??_F?$collate@D@std@@QEAAXXZ
; public: void __cdecl std::collate<unsigned short>::`default constructor closure'(void) __ptr64
??_F?$collate@G@std@@QEAAXXZ
; public: void __cdecl std::complex<float>::`default constructor closure'(void) __ptr64
??_F?$complex@M@std@@QEAAXXZ
; public: void __cdecl std::complex<double>::`default constructor closure'(void) __ptr64
??_F?$complex@N@std@@QEAAXXZ
; public: void __cdecl std::complex<long double>::`default constructor closure'(void) __ptr64
??_F?$complex@O@std@@QEAAXXZ
; public: void __cdecl std::ctype<char>::`default constructor closure'(void) __ptr64
??_F?$ctype@D@std@@QEAAXXZ
; public: void __cdecl std::ctype<unsigned short>::`default constructor closure'(void) __ptr64
??_F?$ctype@G@std@@QEAAXXZ
; public: void __cdecl std::messages<char>::`default constructor closure'(void) __ptr64
??_F?$messages@D@std@@QEAAXXZ
; public: void __cdecl std::messages<unsigned short>::`default constructor closure'(void) __ptr64
??_F?$messages@G@std@@QEAAXXZ
; public: void __cdecl std::money_get<char,class std::istreambuf_iterator<char,struct std::char_traits<char> > >::`default constructor closure'(void) __ptr64
??_F?$money_get@DV?$istreambuf_iterator@DU?$char_traits@D@std@@@std@@@std@@QEAAXXZ
; public: void __cdecl std::money_get<unsigned short,class std::istreambuf_iterator<unsigned short,struct std::char_traits<unsigned short> > >::`default constructor closure'(void) __ptr64
??_F?$money_get@GV?$istreambuf_iterator@GU?$char_traits@G@std@@@std@@@std@@QEAAXXZ
; public: void __cdecl std::money_put<char,class std::ostreambuf_iterator<char,struct std::char_traits<char> > >::`default constructor closure'(void) __ptr64
??_F?$money_put@DV?$ostreambuf_iterator@DU?$char_traits@D@std@@@std@@@std@@QEAAXXZ
; public: void __cdecl std::money_put<unsigned short,class std::ostreambuf_iterator<unsigned short,struct std::char_traits<unsigned short> > >::`default constructor closure'(void) __ptr64
??_F?$money_put@GV?$ostreambuf_iterator@GU?$char_traits@G@std@@@std@@@std@@QEAAXXZ
; public: void __cdecl std::moneypunct<char,1>::`default constructor closure'(void) __ptr64
??_F?$moneypunct@D$00@std@@QEAAXXZ
; public: void __cdecl std::moneypunct<char,0>::`default constructor closure'(void) __ptr64
??_F?$moneypunct@D$0A@@std@@QEAAXXZ
; public: void __cdecl std::moneypunct<unsigned short,1>::`default constructor closure'(void) __ptr64
??_F?$moneypunct@G$00@std@@QEAAXXZ
; public: void __cdecl std::moneypunct<unsigned short,0>::`default constructor closure'(void) __ptr64
??_F?$moneypunct@G$0A@@std@@QEAAXXZ
; public: void __cdecl std::num_get<char,class std::istreambuf_iterator<char,struct std::char_traits<char> > >::`default constructor closure'(void) __ptr64
??_F?$num_get@DV?$istreambuf_iterator@DU?$char_traits@D@std@@@std@@@std@@QEAAXXZ
; public: void __cdecl std::num_get<unsigned short,class std::istreambuf_iterator<unsigned short,struct std::char_traits<unsigned short> > >::`default constructor closure'(void) __ptr64
??_F?$num_get@GV?$istreambuf_iterator@GU?$char_traits@G@std@@@std@@@std@@QEAAXXZ
; public: void __cdecl std::num_put<char,class std::ostreambuf_iterator<char,struct std::char_traits<char> > >::`default constructor closure'(void) __ptr64
??_F?$num_put@DV?$ostreambuf_iterator@DU?$char_traits@D@std@@@std@@@std@@QEAAXXZ
; public: void __cdecl std::num_put<unsigned short,class std::ostreambuf_iterator<unsigned short,struct std::char_traits<unsigned short> > >::`default constructor closure'(void) __ptr64
??_F?$num_put@GV?$ostreambuf_iterator@GU?$char_traits@G@std@@@std@@@std@@QEAAXXZ
; public: void __cdecl std::numpunct<char>::`default constructor closure'(void) __ptr64
??_F?$numpunct@D@std@@QEAAXXZ
; public: void __cdecl std::numpunct<unsigned short>::`default constructor closure'(void) __ptr64
??_F?$numpunct@G@std@@QEAAXXZ
; public: void __cdecl std::time_get<char,class std::istreambuf_iterator<char,struct std::char_traits<char> > >::`default constructor closure'(void) __ptr64
??_F?$time_get@DV?$istreambuf_iterator@DU?$char_traits@D@std@@@std@@@std@@QEAAXXZ
; public: void __cdecl std::time_get<unsigned short,class std::istreambuf_iterator<unsigned short,struct std::char_traits<unsigned short> > >::`default constructor closure'(void) __ptr64
??_F?$time_get@GV?$istreambuf_iterator@GU?$char_traits@G@std@@@std@@@std@@QEAAXXZ
; public: void __cdecl std::time_put<char,class std::ostreambuf_iterator<char,struct std::char_traits<char> > >::`default constructor closure'(void) __ptr64
??_F?$time_put@DV?$ostreambuf_iterator@DU?$char_traits@D@std@@@std@@@std@@QEAAXXZ
; public: void __cdecl std::time_put<unsigned short,class std::ostreambuf_iterator<unsigned short,struct std::char_traits<unsigned short> > >::`default constructor closure'(void) __ptr64
??_F?$time_put@GV?$ostreambuf_iterator@GU?$char_traits@G@std@@@std@@@std@@QEAAXXZ
; public: void __cdecl std::_Locinfo::`default constructor closure'(void) __ptr64
??_F_Locinfo@std@@QEAAXXZ
; public: void __cdecl std::_Timevec::`default constructor closure'(void) __ptr64
??_F_Timevec@std@@QEAAXXZ
; public: void __cdecl std::bad_alloc::`default constructor closure'(void) __ptr64
??_Fbad_alloc@std@@QEAAXXZ
; public: void __cdecl std::bad_cast::`default constructor closure'(void) __ptr64
??_Fbad_cast@std@@QEAAXXZ
; public: void __cdecl std::bad_exception::`default constructor closure'(void) __ptr64
??_Fbad_exception@std@@QEAAXXZ
; public: void __cdecl std::bad_typeid::`default constructor closure'(void) __ptr64
??_Fbad_typeid@std@@QEAAXXZ
; public: void __cdecl std::codecvt_base::`default constructor closure'(void) __ptr64
??_Fcodecvt_base@std@@QEAAXXZ
; public: void __cdecl std::ctype_base::`default constructor closure'(void) __ptr64
??_Fctype_base@std@@QEAAXXZ
; public: void __cdecl std::locale::facet::`default constructor closure'(void) __ptr64
??_Ffacet@locale@std@@QEAAXXZ
; public: void __cdecl std::messages_base::`default constructor closure'(void) __ptr64
??_Fmessages_base@std@@QEAAXXZ
; public: void __cdecl std::money_base::`default constructor closure'(void) __ptr64
??_Fmoney_base@std@@QEAAXXZ
; public: void __cdecl std::time_base::`default constructor closure'(void) __ptr64
??_Ftime_base@std@@QEAAXXZ
; public: class std::_Locinfo & __ptr64 __cdecl std::_Locinfo::_Addcats(int,char const * __ptr64) __ptr64
?_Addcats@_Locinfo@std@@QEAAAEAV12@HPEBD@Z
; public: class std::locale & __ptr64 __cdecl std::locale::_Addfac(class std::locale::facet * __ptr64,unsigned __int64,unsigned __int64) __ptr64
?_Addfac@locale@std@@QEAAAEAV12@PEAVfacet@12@_K1@Z
; protected: void __cdecl std::ios_base::_Addstd(void) __ptr64
?_Addstd@ios_base@std@@IEAAXXZ
; char const  `private: static char const * __ptr64 __cdecl std::basic_string<char,struct std::char_traits<char>,class std::allocator<char> >::_Nullstr(void)'::`2'::_C
?_C@?1??_Nullstr@?$basic_string@DU?$char_traits@D@std@@V?$allocator@D@2@@std@@CAPEBDXZ@4DB
; unsigned short const  `private: static unsigned short const * __ptr64 __cdecl std::basic_string<unsigned short,struct std::char_traits<unsigned short>,class std::allocator<unsigned short> >::_Nullstr(void)'::`2'::_C
?_C@?1??_Nullstr@?$basic_string@GU?$char_traits@G@std@@V?$allocator@G@2@@std@@CAPEBGXZ@4GB
; private: void __cdecl std::ios_base::_Callfns(enum std::ios_base::event) __ptr64
?_Callfns@ios_base@std@@AEAAXW4event@12@@Z
; ?5???$log@M@std::_Cl(YA?AV?$complex@M@1@AEBV21@@Z@4MB)
?_Cl@?5???$log@M@std@@YA?AV?$complex@M@1@AEBV21@@Z@4MB
; ?5???$log@N@std::_Cl(YA?AV?$complex@N@1@AEBV21@@Z@4NB)
?_Cl@?5???$log@N@std@@YA?AV?$complex@N@1@AEBV21@@Z@4NB
; private: static class std::locale::_Locimp * __ptr64  __ptr64 std::locale::_Locimp::_Clocptr
?_Clocptr@_Locimp@locale@std@@0PEAV123@EA DATA
; private: static short const * __ptr64 const  __ptr64 std::ctype<char>::_Cltab
?_Cltab@?$ctype@D@std@@0PEBFEB DATA
; ?5???$log@M@std::_Cm(YA?AV?$complex@M@1@AEBV21@@Z@4MB)
?_Cm@?5???$log@M@std@@YA?AV?$complex@M@1@AEBV21@@Z@4MB
; ?5???$log@N@std::_Cm(YA?AV?$complex@N@1@AEBV21@@Z@4NB)
?_Cm@?5???$log@N@std@@YA?AV?$complex@N@1@AEBV21@@Z@4NB
; private: void __cdecl std::basic_string<char,struct std::char_traits<char>,class std::allocator<char> >::_Copy(unsigned __int64) __ptr64
?_Copy@?$basic_string@DU?$char_traits@D@std@@V?$allocator@D@2@@std@@AEAAX_K@Z
; private: void __cdecl std::basic_string<unsigned short,struct std::char_traits<unsigned short>,class std::allocator<unsigned short> >::_Copy(unsigned __int64) __ptr64
?_Copy@?$basic_string@GU?$char_traits@G@std@@V?$allocator@G@2@@std@@AEAAX_K@Z
; public: static float __cdecl std::_Ctr<float>::_Cosh(float,float)
?_Cosh@?$_Ctr@M@std@@SAMMM@Z
; public: static double __cdecl std::_Ctr<double>::_Cosh(double,double)
?_Cosh@?$_Ctr@N@std@@SANNN@Z
; public: static long double __cdecl std::_Ctr<long double>::_Cosh(long double,long double)
?_Cosh@?$_Ctr@O@std@@SAOOO@Z
; public: class std::locale::facet * __ptr64 __cdecl std::locale::facet::_Decref(void) __ptr64
?_Decref@facet@locale@std@@QEAAPEAV123@XZ
; protected: virtual void __cdecl std::bad_alloc::_Doraise(void)const  __ptr64
?_Doraise@bad_alloc@std@@MEBAXXZ
; protected: virtual void __cdecl std::bad_cast::_Doraise(void)const  __ptr64
?_Doraise@bad_cast@std@@MEBAXXZ
; protected: virtual void __cdecl std::bad_exception::_Doraise(void)const  __ptr64
?_Doraise@bad_exception@std@@MEBAXXZ
; protected: virtual void __cdecl std::bad_typeid::_Doraise(void)const  __ptr64
?_Doraise@bad_typeid@std@@MEBAXXZ
; protected: virtual void __cdecl std::domain_error::_Doraise(void)const  __ptr64
?_Doraise@domain_error@std@@MEBAXXZ
; protected: virtual void __cdecl std::length_error::_Doraise(void)const  __ptr64
?_Doraise@length_error@std@@MEBAXXZ
; protected: virtual void __cdecl std::logic_error::_Doraise(void)const  __ptr64
?_Doraise@logic_error@std@@MEBAXXZ
; protected: virtual void __cdecl std::out_of_range::_Doraise(void)const  __ptr64
?_Doraise@out_of_range@std@@MEBAXXZ
; protected: virtual void __cdecl std::overflow_error::_Doraise(void)const  __ptr64
?_Doraise@overflow_error@std@@MEBAXXZ
; protected: virtual void __cdecl std::range_error::_Doraise(void)const  __ptr64
?_Doraise@range_error@std@@MEBAXXZ
; protected: virtual void __cdecl std::runtime_error::_Doraise(void)const  __ptr64
?_Doraise@runtime_error@std@@MEBAXXZ
; protected: virtual void __cdecl std::underflow_error::_Doraise(void)const  __ptr64
?_Doraise@underflow_error@std@@MEBAXXZ
; private: void __cdecl std::basic_string<char,struct std::char_traits<char>,class std::allocator<char> >::_Eos(unsigned __int64) __ptr64
?_Eos@?$basic_string@DU?$char_traits@D@std@@V?$allocator@D@2@@std@@AEAAX_K@Z
; private: void __cdecl std::basic_string<unsigned short,struct std::char_traits<unsigned short>,class std::allocator<unsigned short> >::_Eos(unsigned __int64) __ptr64
?_Eos@?$basic_string@GU?$char_traits@G@std@@V?$allocator@G@2@@std@@AEAAX_K@Z
; public: static short __cdecl std::_Ctr<float>::_Exp(float * __ptr64,float,short)
?_Exp@?$_Ctr@M@std@@SAFPEAMMF@Z
; public: static short __cdecl std::_Ctr<double>::_Exp(double * __ptr64,double,short)
?_Exp@?$_Ctr@N@std@@SAFPEANNF@Z
; public: static short __cdecl std::_Ctr<long double>::_Exp(long double * __ptr64,long double,short)
?_Exp@?$_Ctr@O@std@@SAFPEAOOF@Z
; float __cdecl std::_Fabs(class std::complex<float> const & __ptr64,int * __ptr64)
?_Fabs@std@@YAMAEBV?$complex@M@1@PEAH@Z
; double __cdecl std::_Fabs(class std::complex<double> const & __ptr64,int * __ptr64)
?_Fabs@std@@YANAEBV?$complex@N@1@PEAH@Z
; long double __cdecl std::_Fabs(class std::complex<long double> const & __ptr64,int * __ptr64)
?_Fabs@std@@YAOAEBV?$complex@O@1@PEAH@Z
; protected: static char * __ptr64 __cdecl std::num_put<char,class std::ostreambuf_iterator<char,struct std::char_traits<char> > >::_Ffmt(char * __ptr64,char,int)
?_Ffmt@?$num_put@DV?$ostreambuf_iterator@DU?$char_traits@D@std@@@std@@@std@@KAPEADPEADDH@Z
; protected: static char * __ptr64 __cdecl std::num_put<unsigned short,class std::ostreambuf_iterator<unsigned short,struct std::char_traits<unsigned short> > >::_Ffmt(char * __ptr64,char,int)
?_Ffmt@?$num_put@GV?$ostreambuf_iterator@GU?$char_traits@G@std@@@std@@@std@@KAPEADPEADDH@Z
; private: struct std::ios_base::_Iosarray & __ptr64 __cdecl std::ios_base::_Findarr(int) __ptr64
?_Findarr@ios_base@std@@AEAAAEAU_Iosarray@12@H@Z
; protected: static class std::ostreambuf_iterator<char,struct std::char_traits<char> >  __cdecl std::num_put<char,class std::ostreambuf_iterator<char,struct std::char_traits<char> > >::_Fput(class std::ostreambuf_iterator<char,struct std::char_traits<char> >,class std::ios_base & __ptr64,char,char const * __ptr64,unsigned __int64,unsigned __int64)
?_Fput@?$num_put@DV?$ostreambuf_iterator@DU?$char_traits@D@std@@@std@@@std@@KA?AV?$ostreambuf_iterator@DU?$char_traits@D@std@@@2@V32@AEAVios_base@2@DPEBD_K3@Z
; protected: static class std::ostreambuf_iterator<unsigned short,struct std::char_traits<unsigned short> >  __cdecl std::num_put<unsigned short,class std::ostreambuf_iterator<unsigned short,struct std::char_traits<unsigned short> > >::_Fput(class std::ostreambuf_iterator<unsigned short,struct std::char_traits<unsigned short> >,class std::ios_base & __ptr64,unsigned short,char const * __ptr64,unsigned __int64,unsigned __int64)
?_Fput@?$num_put@GV?$ostreambuf_iterator@GU?$char_traits@G@std@@@std@@@std@@KA?AV?$ostreambuf_iterator@GU?$char_traits@G@std@@@2@V32@AEAVios_base@2@GPEBD_K3@Z
; __int64 const  std::_Fpz
?_Fpz@std@@3_JB
; private: void __cdecl std::basic_string<char,struct std::char_traits<char>,class std::allocator<char> >::_Freeze(void) __ptr64
?_Freeze@?$basic_string@DU?$char_traits@D@std@@V?$allocator@D@2@@std@@AEAAXXZ
; private: void __cdecl std::basic_string<unsigned short,struct std::char_traits<unsigned short>,class std::allocator<unsigned short> >::_Freeze(void) __ptr64
?_Freeze@?$basic_string@GU?$char_traits@G@std@@V?$allocator@G@2@@std@@AEAAXXZ
; public: static unsigned __int64 __cdecl std::_Mpunct<char>::_Getcat(void)
?_Getcat@?$_Mpunct@D@std@@SA_KXZ
; public: static unsigned __int64 __cdecl std::_Mpunct<unsigned short>::_Getcat(void)
?_Getcat@?$_Mpunct@G@std@@SA_KXZ
; public: static unsigned __int64 __cdecl std::codecvt<char,char,int>::_Getcat(void)
?_Getcat@?$codecvt@DDH@std@@SA_KXZ
; public: static unsigned __int64 __cdecl std::codecvt<unsigned short,char,int>::_Getcat(void)
?_Getcat@?$codecvt@GDH@std@@SA_KXZ
; public: static unsigned __int64 __cdecl std::collate<char>::_Getcat(void)
?_Getcat@?$collate@D@std@@SA_KXZ
; public: static unsigned __int64 __cdecl std::collate<unsigned short>::_Getcat(void)
?_Getcat@?$collate@G@std@@SA_KXZ
; public: static unsigned __int64 __cdecl std::ctype<char>::_Getcat(void)
?_Getcat@?$ctype@D@std@@SA_KXZ
; public: static unsigned __int64 __cdecl std::ctype<unsigned short>::_Getcat(void)
?_Getcat@?$ctype@G@std@@SA_KXZ
; public: static unsigned __int64 __cdecl std::messages<char>::_Getcat(void)
?_Getcat@?$messages@D@std@@SA_KXZ
; public: static unsigned __int64 __cdecl std::messages<unsigned short>::_Getcat(void)
?_Getcat@?$messages@G@std@@SA_KXZ
; public: static unsigned __int64 __cdecl std::money_get<char,class std::istreambuf_iterator<char,struct std::char_traits<char> > >::_Getcat(void)
?_Getcat@?$money_get@DV?$istreambuf_iterator@DU?$char_traits@D@std@@@std@@@std@@SA_KXZ
; public: static unsigned __int64 __cdecl std::money_get<unsigned short,class std::istreambuf_iterator<unsigned short,struct std::char_traits<unsigned short> > >::_Getcat(void)
?_Getcat@?$money_get@GV?$istreambuf_iterator@GU?$char_traits@G@std@@@std@@@std@@SA_KXZ
; public: static unsigned __int64 __cdecl std::money_put<char,class std::ostreambuf_iterator<char,struct std::char_traits<char> > >::_Getcat(void)
?_Getcat@?$money_put@DV?$ostreambuf_iterator@DU?$char_traits@D@std@@@std@@@std@@SA_KXZ
; public: static unsigned __int64 __cdecl std::money_put<unsigned short,class std::ostreambuf_iterator<unsigned short,struct std::char_traits<unsigned short> > >::_Getcat(void)
?_Getcat@?$money_put@GV?$ostreambuf_iterator@GU?$char_traits@G@std@@@std@@@std@@SA_KXZ
; public: static unsigned __int64 __cdecl std::moneypunct<char,1>::_Getcat(void)
?_Getcat@?$moneypunct@D$00@std@@SA_KXZ
; public: static unsigned __int64 __cdecl std::moneypunct<char,0>::_Getcat(void)
?_Getcat@?$moneypunct@D$0A@@std@@SA_KXZ
; public: static unsigned __int64 __cdecl std::moneypunct<unsigned short,1>::_Getcat(void)
?_Getcat@?$moneypunct@G$00@std@@SA_KXZ
; public: static unsigned __int64 __cdecl std::moneypunct<unsigned short,0>::_Getcat(void)
?_Getcat@?$moneypunct@G$0A@@std@@SA_KXZ
; public: static unsigned __int64 __cdecl std::num_get<char,class std::istreambuf_iterator<char,struct std::char_traits<char> > >::_Getcat(void)
?_Getcat@?$num_get@DV?$istreambuf_iterator@DU?$char_traits@D@std@@@std@@@std@@SA_KXZ
; public: static unsigned __int64 __cdecl std::num_get<unsigned short,class std::istreambuf_iterator<unsigned short,struct std::char_traits<unsigned short> > >::_Getcat(void)
?_Getcat@?$num_get@GV?$istreambuf_iterator@GU?$char_traits@G@std@@@std@@@std@@SA_KXZ
; public: static unsigned __int64 __cdecl std::num_put<char,class std::ostreambuf_iterator<char,struct std::char_traits<char> > >::_Getcat(void)
?_Getcat@?$num_put@DV?$ostreambuf_iterator@DU?$char_traits@D@std@@@std@@@std@@SA_KXZ
; public: static unsigned __int64 __cdecl std::num_put<unsigned short,class std::ostreambuf_iterator<unsigned short,struct std::char_traits<unsigned short> > >::_Getcat(void)
?_Getcat@?$num_put@GV?$ostreambuf_iterator@GU?$char_traits@G@std@@@std@@@std@@SA_KXZ
; public: static unsigned __int64 __cdecl std::numpunct<char>::_Getcat(void)
?_Getcat@?$numpunct@D@std@@SA_KXZ
; public: static unsigned __int64 __cdecl std::numpunct<unsigned short>::_Getcat(void)
?_Getcat@?$numpunct@G@std@@SA_KXZ
; public: static unsigned __int64 __cdecl std::time_get<char,class std::istreambuf_iterator<char,struct std::char_traits<char> > >::_Getcat(void)
?_Getcat@?$time_get@DV?$istreambuf_iterator@DU?$char_traits@D@std@@@std@@@std@@SA_KXZ
; public: static unsigned __int64 __cdecl std::time_get<unsigned short,class std::istreambuf_iterator<unsigned short,struct std::char_traits<unsigned short> > >::_Getcat(void)
?_Getcat@?$time_get@GV?$istreambuf_iterator@GU?$char_traits@G@std@@@std@@@std@@SA_KXZ
; public: static unsigned __int64 __cdecl std::time_put<char,class std::ostreambuf_iterator<char,struct std::char_traits<char> > >::_Getcat(void)
?_Getcat@?$time_put@DV?$ostreambuf_iterator@DU?$char_traits@D@std@@@std@@@std@@SA_KXZ
; public: static unsigned __int64 __cdecl std::time_put<unsigned short,class std::ostreambuf_iterator<unsigned short,struct std::char_traits<unsigned short> > >::_Getcat(void)
?_Getcat@?$time_put@GV?$ostreambuf_iterator@GU?$char_traits@G@std@@@std@@@std@@SA_KXZ
; public: static unsigned __int64 __cdecl std::locale::facet::_Getcat(void)
?_Getcat@facet@locale@std@@SA_KXZ
; public: struct _Collvec  __cdecl std::_Locinfo::_Getcoll(void)const  __ptr64
?_Getcoll@_Locinfo@std@@QEBA?AU_Collvec@@XZ
; public: struct _Ctypevec  __cdecl std::_Locinfo::_Getctype(void)const  __ptr64
?_Getctype@_Locinfo@std@@QEBA?AU_Ctypevec@@XZ
; public: struct _Cvtvec  __cdecl std::_Locinfo::_Getcvt(void)const  __ptr64
?_Getcvt@_Locinfo@std@@QEBA?AU_Cvtvec@@XZ
; public: char const * __ptr64 __cdecl std::_Locinfo::_Getdays(void)const  __ptr64
?_Getdays@_Locinfo@std@@QEBAPEBDXZ
; public: class std::locale::facet const * __ptr64 __cdecl std::locale::_Getfacet(unsigned __int64,bool)const  __ptr64
?_Getfacet@locale@std@@QEBAPEBVfacet@12@_K_N@Z
; public: char const * __ptr64 __cdecl std::_Locinfo::_Getfalse(void)const  __ptr64
?_Getfalse@_Locinfo@std@@QEBAPEBDXZ
; private: static int __cdecl std::num_get<char,class std::istreambuf_iterator<char,struct std::char_traits<char> > >::_Getffld(char * __ptr64,class std::istreambuf_iterator<char,struct std::char_traits<char> > & __ptr64,class std::istreambuf_iterator<char,struct std::char_traits<char> > & __ptr64,class std::locale const & __ptr64)
?_Getffld@?$num_get@DV?$istreambuf_iterator@DU?$char_traits@D@std@@@std@@@std@@CAHPEADAEAV?$istreambuf_iterator@DU?$char_traits@D@std@@@2@1AEBVlocale@2@@Z
; private: static int __cdecl std::num_get<unsigned short,class std::istreambuf_iterator<unsigned short,struct std::char_traits<unsigned short> > >::_Getffld(char * __ptr64,class std::istreambuf_iterator<unsigned short,struct std::char_traits<unsigned short> > & __ptr64,class std::istreambuf_iterator<unsigned short,struct std::char_traits<unsigned short> > & __ptr64,class std::locale const & __ptr64)
?_Getffld@?$num_get@GV?$istreambuf_iterator@GU?$char_traits@G@std@@@std@@@std@@CAHPEADAEAV?$istreambuf_iterator@GU?$char_traits@G@std@@@2@1AEBVlocale@2@@Z
; private: static int __cdecl std::num_get<char,class std::istreambuf_iterator<char,struct std::char_traits<char> > >::_Getifld(char * __ptr64,class std::istreambuf_iterator<char,struct std::char_traits<char> > & __ptr64,class std::istreambuf_iterator<char,struct std::char_traits<char> > & __ptr64,int,class std::locale const & __ptr64)
?_Getifld@?$num_get@DV?$istreambuf_iterator@DU?$char_traits@D@std@@@std@@@std@@CAHPEADAEAV?$istreambuf_iterator@DU?$char_traits@D@std@@@2@1HAEBVlocale@2@@Z
; private: static int __cdecl std::num_get<unsigned short,class std::istreambuf_iterator<unsigned short,struct std::char_traits<unsigned short> > >::_Getifld(char * __ptr64,class std::istreambuf_iterator<unsigned short,struct std::char_traits<unsigned short> > & __ptr64,class std::istreambuf_iterator<unsigned short,struct std::char_traits<unsigned short> > & __ptr64,int,class std::locale const & __ptr64)
?_Getifld@?$num_get@GV?$istreambuf_iterator@GU?$char_traits@G@std@@@std@@@std@@CAHPEADAEAV?$istreambuf_iterator@GU?$char_traits@G@std@@@2@1HAEBVlocale@2@@Z
; private: static int __cdecl std::time_get<char,class std::istreambuf_iterator<char,struct std::char_traits<char> > >::_Getint(class std::istreambuf_iterator<char,struct std::char_traits<char> > & __ptr64,class std::istreambuf_iterator<char,struct std::char_traits<char> > & __ptr64,int,int,int & __ptr64)
?_Getint@?$time_get@DV?$istreambuf_iterator@DU?$char_traits@D@std@@@std@@@std@@CAHAEAV?$istreambuf_iterator@DU?$char_traits@D@std@@@2@0HHAEAH@Z
; private: static int __cdecl std::time_get<unsigned short,class std::istreambuf_iterator<unsigned short,struct std::char_traits<unsigned short> > >::_Getint(class std::istreambuf_iterator<unsigned short,struct std::char_traits<unsigned short> > & __ptr64,class std::istreambuf_iterator<unsigned short,struct std::char_traits<unsigned short> > & __ptr64,int,int,int & __ptr64)
?_Getint@?$time_get@GV?$istreambuf_iterator@GU?$char_traits@G@std@@@std@@@std@@CAHAEAV?$istreambuf_iterator@GU?$char_traits@G@std@@@2@0HHAEAH@Z
; public: struct lconv const * __ptr64 __cdecl std::_Locinfo::_Getlconv(void)const  __ptr64
?_Getlconv@_Locinfo@std@@QEBAPEBUlconv@@XZ
; private: class std::basic_string<char,struct std::char_traits<char>,class std::allocator<char> >  __cdecl std::money_get<char,class std::istreambuf_iterator<char,struct std::char_traits<char> > >::_Getmfld(class std::istreambuf_iterator<char,struct std::char_traits<char> > & __ptr64,class std::istreambuf_iterator<char,struct std::char_traits<char> > & __ptr64,bool,class std::ios_base & __ptr64)const  __ptr64
?_Getmfld@?$money_get@DV?$istreambuf_iterator@DU?$char_traits@D@std@@@std@@@std@@AEBA?AV?$basic_string@DU?$char_traits@D@std@@V?$allocator@D@2@@2@AEAV?$istreambuf_iterator@DU?$char_traits@D@std@@@2@0_NAEAVios_base@2@@Z
; private: class std::basic_string<unsigned short,struct std::char_traits<unsigned short>,class std::allocator<unsigned short> >  __cdecl std::money_get<unsigned short,class std::istreambuf_iterator<unsigned short,struct std::char_traits<unsigned short> > >::_Getmfld(class std::istreambuf_iterator<unsigned short,struct std::char_traits<unsigned short> > & __ptr64,class std::istreambuf_iterator<unsigned short,struct std::char_traits<unsigned short> > & __ptr64,bool,class std::ios_base & __ptr64)const  __ptr64
?_Getmfld@?$money_get@GV?$istreambuf_iterator@GU?$char_traits@G@std@@@std@@@std@@AEBA?AV?$basic_string@GU?$char_traits@G@std@@V?$allocator@G@2@@2@AEAV?$istreambuf_iterator@GU?$char_traits@G@std@@@2@0_NAEAVios_base@2@@Z
; public: char const * __ptr64 __cdecl std::_Locinfo::_Getmonths(void)const  __ptr64
?_Getmonths@_Locinfo@std@@QEBAPEBDXZ
; public: class std::basic_string<char,struct std::char_traits<char>,class std::allocator<char> >  __cdecl std::_Locinfo::_Getname(void)const  __ptr64
?_Getname@_Locinfo@std@@QEBA?AV?$basic_string@DU?$char_traits@D@std@@V?$allocator@D@2@@2@XZ
; public: char const * __ptr64 __cdecl std::_Locinfo::_Getno(void)const  __ptr64
?_Getno@_Locinfo@std@@QEBAPEBDXZ
; public: void * __ptr64 __cdecl std::_Timevec::_Getptr(void)const  __ptr64
?_Getptr@_Timevec@std@@QEBAPEAXXZ
; public: class std::_Timevec  __cdecl std::_Locinfo::_Gettnames(void)const  __ptr64
?_Gettnames@_Locinfo@std@@QEBA?AV_Timevec@2@XZ
; public: char const * __ptr64 __cdecl std::_Locinfo::_Gettrue(void)const  __ptr64
?_Gettrue@_Locinfo@std@@QEBAPEBDXZ
; public: char const * __ptr64 __cdecl std::_Locinfo::_Getyes(void)const  __ptr64
?_Getyes@_Locinfo@std@@QEBAPEBDXZ
; private: static class std::locale::_Locimp * __ptr64  __ptr64 std::locale::_Locimp::_Global
?_Global@_Locimp@locale@std@@0PEAV123@EA DATA
; protected: char * __ptr64 __cdecl std::basic_streambuf<char,struct std::char_traits<char> >::_Gndec(void) __ptr64
?_Gndec@?$basic_streambuf@DU?$char_traits@D@std@@@std@@IEAAPEADXZ
; protected: unsigned short * __ptr64 __cdecl std::basic_streambuf<unsigned short,struct std::char_traits<unsigned short> >::_Gndec(void) __ptr64
?_Gndec@?$basic_streambuf@GU?$char_traits@G@std@@@std@@IEAAPEAGXZ
; protected: char * __ptr64 __cdecl std::basic_streambuf<char,struct std::char_traits<char> >::_Gninc(void) __ptr64
?_Gninc@?$basic_streambuf@DU?$char_traits@D@std@@@std@@IEAAPEADXZ
; protected: unsigned short * __ptr64 __cdecl std::basic_streambuf<unsigned short,struct std::char_traits<unsigned short> >::_Gninc(void) __ptr64
?_Gninc@?$basic_streambuf@GU?$char_traits@G@std@@@std@@IEAAPEAGXZ
; private: bool __cdecl std::basic_string<char,struct std::char_traits<char>,class std::allocator<char> >::_Grow(unsigned __int64,bool) __ptr64
?_Grow@?$basic_string@DU?$char_traits@D@std@@V?$allocator@D@2@@std@@AEAA_N_K_N@Z
; private: bool __cdecl std::basic_string<unsigned short,struct std::char_traits<unsigned short>,class std::allocator<unsigned short> >::_Grow(unsigned __int64,bool) __ptr64
?_Grow@?$basic_string@GU?$char_traits@G@std@@V?$allocator@G@2@@std@@AEAA_N_K_N@Z
; private: static int  std::locale::id::_Id_cnt
?_Id_cnt@id@locale@std@@0HA DATA
; protected: static char * __ptr64 __cdecl std::num_put<char,class std::ostreambuf_iterator<char,struct std::char_traits<char> > >::_Ifmt(char * __ptr64,char,int)
?_Ifmt@?$num_put@DV?$ostreambuf_iterator@DU?$char_traits@D@std@@@std@@@std@@KAPEADPEADDH@Z
; protected: static char * __ptr64 __cdecl std::num_put<char,class std::ostreambuf_iterator<char,struct std::char_traits<char> > >::_Ifmt(char * __ptr64,char const * __ptr64,int)
?_Ifmt@?$num_put@DV?$ostreambuf_iterator@DU?$char_traits@D@std@@@std@@@std@@KAPEADPEADPEBDH@Z
; protected: static char * __ptr64 __cdecl std::num_put<unsigned short,class std::ostreambuf_iterator<unsigned short,struct std::char_traits<unsigned short> > >::_Ifmt(char * __ptr64,char,int)
?_Ifmt@?$num_put@GV?$ostreambuf_iterator@GU?$char_traits@G@std@@@std@@@std@@KAPEADPEADDH@Z
; protected: static char * __ptr64 __cdecl std::num_put<unsigned short,class std::ostreambuf_iterator<unsigned short,struct std::char_traits<unsigned short> > >::_Ifmt(char * __ptr64,char const * __ptr64,int)
?_Ifmt@?$num_put@GV?$ostreambuf_iterator@GU?$char_traits@G@std@@@std@@@std@@KAPEADPEADPEBDH@Z
; public: void __cdecl std::locale::facet::_Incref(void) __ptr64
?_Incref@facet@locale@std@@QEAAXXZ
; private: static int  std::ios_base::_Index
?_Index@ios_base@std@@0HA DATA
; public: static float __cdecl std::_Ctr<float>::_Infv(float)
?_Infv@?$_Ctr@M@std@@SAMM@Z
; public: static double __cdecl std::_Ctr<double>::_Infv(double)
?_Infv@?$_Ctr@N@std@@SANN@Z
; public: static long double __cdecl std::_Ctr<long double>::_Infv(long double)
?_Infv@?$_Ctr@O@std@@SAOO@Z
; protected: void __cdecl std::_Mpunct<char>::_Init(class std::_Locinfo const & __ptr64) __ptr64
?_Init@?$_Mpunct@D@std@@IEAAXAEBV_Locinfo@2@@Z
; protected: void __cdecl std::_Mpunct<unsigned short>::_Init(class std::_Locinfo const & __ptr64) __ptr64
?_Init@?$_Mpunct@G@std@@IEAAXAEBV_Locinfo@2@@Z
; protected: void __cdecl std::basic_filebuf<char,struct std::char_traits<char> >::_Init(struct _iobuf * __ptr64,enum std::basic_filebuf<char,struct std::char_traits<char> >::_Initfl) __ptr64
?_Init@?$basic_filebuf@DU?$char_traits@D@std@@@std@@IEAAXPEAU_iobuf@@W4_Initfl@12@@Z
; protected: void __cdecl std::basic_filebuf<unsigned short,struct std::char_traits<unsigned short> >::_Init(struct _iobuf * __ptr64,enum std::basic_filebuf<unsigned short,struct std::char_traits<unsigned short> >::_Initfl) __ptr64
?_Init@?$basic_filebuf@GU?$char_traits@G@std@@@std@@IEAAXPEAU_iobuf@@W4_Initfl@12@@Z
; protected: void __cdecl std::basic_streambuf<char,struct std::char_traits<char> >::_Init(char * __ptr64 * __ptr64,char * __ptr64 * __ptr64,int * __ptr64,char * __ptr64 * __ptr64,char * __ptr64 * __ptr64,int * __ptr64) __ptr64
?_Init@?$basic_streambuf@DU?$char_traits@D@std@@@std@@IEAAXPEAPEAD0PEAH001@Z
; protected: void __cdecl std::basic_streambuf<char,struct std::char_traits<char> >::_Init(void) __ptr64
?_Init@?$basic_streambuf@DU?$char_traits@D@std@@@std@@IEAAXXZ
; protected: void __cdecl std::basic_streambuf<unsigned short,struct std::char_traits<unsigned short> >::_Init(unsigned short * __ptr64 * __ptr64,unsigned short * __ptr64 * __ptr64,int * __ptr64,unsigned short * __ptr64 * __ptr64,unsigned short * __ptr64 * __ptr64,int * __ptr64) __ptr64
?_Init@?$basic_streambuf@GU?$char_traits@G@std@@@std@@IEAAXPEAPEAG0PEAH001@Z
; protected: void __cdecl std::basic_streambuf<unsigned short,struct std::char_traits<unsigned short> >::_Init(void) __ptr64
?_Init@?$basic_streambuf@GU?$char_traits@G@std@@@std@@IEAAXXZ
; protected: void __cdecl std::basic_stringbuf<char,struct std::char_traits<char>,class std::allocator<char> >::_Init(char const * __ptr64,unsigned __int64,int) __ptr64
?_Init@?$basic_stringbuf@DU?$char_traits@D@std@@V?$allocator@D@2@@std@@IEAAXPEBD_KH@Z
; protected: void __cdecl std::basic_stringbuf<unsigned short,struct std::char_traits<unsigned short>,class std::allocator<unsigned short> >::_Init(unsigned short const * __ptr64,unsigned __int64,int) __ptr64
?_Init@?$basic_stringbuf@GU?$char_traits@G@std@@V?$allocator@G@2@@std@@IEAAXPEBG_KH@Z
; protected: void __cdecl std::codecvt<char,char,int>::_Init(class std::_Locinfo const & __ptr64) __ptr64
?_Init@?$codecvt@DDH@std@@IEAAXAEBV_Locinfo@2@@Z
; protected: void __cdecl std::codecvt<unsigned short,char,int>::_Init(class std::_Locinfo const & __ptr64) __ptr64
?_Init@?$codecvt@GDH@std@@IEAAXAEBV_Locinfo@2@@Z
; protected: void __cdecl std::collate<char>::_Init(class std::_Locinfo const & __ptr64) __ptr64
?_Init@?$collate@D@std@@IEAAXAEBV_Locinfo@2@@Z
; protected: void __cdecl std::collate<unsigned short>::_Init(class std::_Locinfo const & __ptr64) __ptr64
?_Init@?$collate@G@std@@IEAAXAEBV_Locinfo@2@@Z
; protected: void __cdecl std::ctype<char>::_Init(class std::_Locinfo const & __ptr64) __ptr64
?_Init@?$ctype@D@std@@IEAAXAEBV_Locinfo@2@@Z
; protected: void __cdecl std::ctype<unsigned short>::_Init(class std::_Locinfo const & __ptr64) __ptr64
?_Init@?$ctype@G@std@@IEAAXAEBV_Locinfo@2@@Z
; protected: void __cdecl std::messages<char>::_Init(class std::_Locinfo const & __ptr64) __ptr64
?_Init@?$messages@D@std@@IEAAXAEBV_Locinfo@2@@Z
; protected: void __cdecl std::messages<unsigned short>::_Init(class std::_Locinfo const & __ptr64) __ptr64
?_Init@?$messages@G@std@@IEAAXAEBV_Locinfo@2@@Z
; protected: void __cdecl std::money_get<char,class std::istreambuf_iterator<char,struct std::char_traits<char> > >::_Init(class std::_Locinfo const & __ptr64) __ptr64
?_Init@?$money_get@DV?$istreambuf_iterator@DU?$char_traits@D@std@@@std@@@std@@IEAAXAEBV_Locinfo@2@@Z
; protected: void __cdecl std::money_get<unsigned short,class std::istreambuf_iterator<unsigned short,struct std::char_traits<unsigned short> > >::_Init(class std::_Locinfo const & __ptr64) __ptr64
?_Init@?$money_get@GV?$istreambuf_iterator@GU?$char_traits@G@std@@@std@@@std@@IEAAXAEBV_Locinfo@2@@Z
; protected: void __cdecl std::money_put<char,class std::ostreambuf_iterator<char,struct std::char_traits<char> > >::_Init(class std::_Locinfo const & __ptr64) __ptr64
?_Init@?$money_put@DV?$ostreambuf_iterator@DU?$char_traits@D@std@@@std@@@std@@IEAAXAEBV_Locinfo@2@@Z
; protected: void __cdecl std::money_put<unsigned short,class std::ostreambuf_iterator<unsigned short,struct std::char_traits<unsigned short> > >::_Init(class std::_Locinfo const & __ptr64) __ptr64
?_Init@?$money_put@GV?$ostreambuf_iterator@GU?$char_traits@G@std@@@std@@@std@@IEAAXAEBV_Locinfo@2@@Z
; protected: void __cdecl std::num_get<char,class std::istreambuf_iterator<char,struct std::char_traits<char> > >::_Init(class std::_Locinfo const & __ptr64) __ptr64
?_Init@?$num_get@DV?$istreambuf_iterator@DU?$char_traits@D@std@@@std@@@std@@IEAAXAEBV_Locinfo@2@@Z
; protected: void __cdecl std::num_get<unsigned short,class std::istreambuf_iterator<unsigned short,struct std::char_traits<unsigned short> > >::_Init(class std::_Locinfo const & __ptr64) __ptr64
?_Init@?$num_get@GV?$istreambuf_iterator@GU?$char_traits@G@std@@@std@@@std@@IEAAXAEBV_Locinfo@2@@Z
; protected: void __cdecl std::num_put<char,class std::ostreambuf_iterator<char,struct std::char_traits<char> > >::_Init(class std::_Locinfo const & __ptr64) __ptr64
?_Init@?$num_put@DV?$ostreambuf_iterator@DU?$char_traits@D@std@@@std@@@std@@IEAAXAEBV_Locinfo@2@@Z
; protected: void __cdecl std::num_put<unsigned short,class std::ostreambuf_iterator<unsigned short,struct std::char_traits<unsigned short> > >::_Init(class std::_Locinfo const & __ptr64) __ptr64
?_Init@?$num_put@GV?$ostreambuf_iterator@GU?$char_traits@G@std@@@std@@@std@@IEAAXAEBV_Locinfo@2@@Z
; protected: void __cdecl std::numpunct<char>::_Init(class std::_Locinfo const & __ptr64) __ptr64
?_Init@?$numpunct@D@std@@IEAAXAEBV_Locinfo@2@@Z
; protected: void __cdecl std::numpunct<unsigned short>::_Init(class std::_Locinfo const & __ptr64) __ptr64
?_Init@?$numpunct@G@std@@IEAAXAEBV_Locinfo@2@@Z
; protected: void __cdecl std::time_get<char,class std::istreambuf_iterator<char,struct std::char_traits<char> > >::_Init(class std::_Locinfo const & __ptr64) __ptr64
?_Init@?$time_get@DV?$istreambuf_iterator@DU?$char_traits@D@std@@@std@@@std@@IEAAXAEBV_Locinfo@2@@Z
; protected: void __cdecl std::time_get<unsigned short,class std::istreambuf_iterator<unsigned short,struct std::char_traits<unsigned short> > >::_Init(class std::_Locinfo const & __ptr64) __ptr64
?_Init@?$time_get@GV?$istreambuf_iterator@GU?$char_traits@G@std@@@std@@@std@@IEAAXAEBV_Locinfo@2@@Z
; protected: void __cdecl std::time_put<char,class std::ostreambuf_iterator<char,struct std::char_traits<char> > >::_Init(class std::_Locinfo const & __ptr64) __ptr64
?_Init@?$time_put@DV?$ostreambuf_iterator@DU?$char_traits@D@std@@@std@@@std@@IEAAXAEBV_Locinfo@2@@Z
; protected: void __cdecl std::time_put<unsigned short,class std::ostreambuf_iterator<unsigned short,struct std::char_traits<unsigned short> > >::_Init(class std::_Locinfo const & __ptr64) __ptr64
?_Init@?$time_put@GV?$ostreambuf_iterator@GU?$char_traits@G@std@@@std@@@std@@IEAAXAEBV_Locinfo@2@@Z
; protected: void __cdecl std::ios_base::_Init(void) __ptr64
?_Init@ios_base@std@@IEAAXXZ
; private: static class std::locale::_Locimp * __ptr64 __cdecl std::locale::_Init(void)
?_Init@locale@std@@CAPEAV_Locimp@12@XZ
; protected: void __cdecl std::strstreambuf::_Init(int,char * __ptr64,char * __ptr64,int) __ptr64
?_Init@strstreambuf@std@@IEAAXHPEAD0H@Z
; private: static int  std::ios_base::Init::_Init_cnt
?_Init_cnt@Init@ios_base@std@@0HA DATA
; private: static int  std::_Winit::_Init_cnt
?_Init_cnt@_Winit@std@@0HA DATA
; protected: void __cdecl std::basic_filebuf<char,struct std::char_traits<char> >::_Initcvt(void) __ptr64
?_Initcvt@?$basic_filebuf@DU?$char_traits@D@std@@@std@@IEAAXXZ
; protected: void __cdecl std::basic_filebuf<unsigned short,struct std::char_traits<unsigned short> >::_Initcvt(void) __ptr64
?_Initcvt@?$basic_filebuf@GU?$char_traits@G@std@@@std@@IEAAXXZ
; protected: static class std::ostreambuf_iterator<char,struct std::char_traits<char> >  __cdecl std::num_put<char,class std::ostreambuf_iterator<char,struct std::char_traits<char> > >::_Iput(class std::ostreambuf_iterator<char,struct std::char_traits<char> >,class std::ios_base & __ptr64,char,char * __ptr64,unsigned __int64)
?_Iput@?$num_put@DV?$ostreambuf_iterator@DU?$char_traits@D@std@@@std@@@std@@KA?AV?$ostreambuf_iterator@DU?$char_traits@D@std@@@2@V32@AEAVios_base@2@DPEAD_K@Z
; protected: static class std::ostreambuf_iterator<unsigned short,struct std::char_traits<unsigned short> >  __cdecl std::num_put<unsigned short,class std::ostreambuf_iterator<unsigned short,struct std::char_traits<unsigned short> > >::_Iput(class std::ostreambuf_iterator<unsigned short,struct std::char_traits<unsigned short> >,class std::ios_base & __ptr64,unsigned short,char * __ptr64,unsigned __int64)
?_Iput@?$num_put@GV?$ostreambuf_iterator@GU?$char_traits@G@std@@@std@@@std@@KA?AV?$ostreambuf_iterator@GU?$char_traits@G@std@@@2@V32@AEAVios_base@2@GPEAD_K@Z
; public: bool __cdecl std::locale::_Iscloc(void)const  __ptr64
?_Iscloc@locale@std@@QEBA_NXZ
; public: static bool __cdecl std::_Ctr<float>::_Isinf(float)
?_Isinf@?$_Ctr@M@std@@SA_NM@Z
; public: static bool __cdecl std::_Ctr<double>::_Isinf(double)
?_Isinf@?$_Ctr@N@std@@SA_NN@Z
; public: static bool __cdecl std::_Ctr<long double>::_Isinf(long double)
?_Isinf@?$_Ctr@O@std@@SA_NO@Z
; public: static bool __cdecl std::_Ctr<float>::_Isnan(float)
?_Isnan@?$_Ctr@M@std@@SA_NM@Z
; public: static bool __cdecl std::_Ctr<double>::_Isnan(double)
?_Isnan@?$_Ctr@N@std@@SA_NN@Z
; public: static bool __cdecl std::_Ctr<long double>::_Isnan(long double)
?_Isnan@?$_Ctr@O@std@@SA_NO@Z
; private: void __cdecl std::_Mpunct<char>::_Makpat(struct std::money_base::pattern & __ptr64,char,char,char) __ptr64
?_Makpat@?$_Mpunct@D@std@@AEAAXAEAUpattern@money_base@2@DDD@Z
; private: void __cdecl std::_Mpunct<unsigned short>::_Makpat(struct std::money_base::pattern & __ptr64,char,char,char) __ptr64
?_Makpat@?$_Mpunct@G@std@@AEAAXAEAUpattern@money_base@2@DDD@Z
; private: int __cdecl std::basic_stringbuf<char,struct std::char_traits<char>,class std::allocator<char> >::_Mode(int) __ptr64
?_Mode@?$basic_stringbuf@DU?$char_traits@D@std@@V?$allocator@D@2@@std@@AEAAHH@Z
; private: int __cdecl std::basic_stringbuf<unsigned short,struct std::char_traits<unsigned short>,class std::allocator<unsigned short> >::_Mode(int) __ptr64
?_Mode@?$basic_stringbuf@GU?$char_traits@G@std@@V?$allocator@G@2@@std@@AEAAHH@Z
; public: static float __cdecl std::_Ctr<float>::_Nanv(float)
?_Nanv@?$_Ctr@M@std@@SAMM@Z
; public: static double __cdecl std::_Ctr<double>::_Nanv(double)
?_Nanv@?$_Ctr@N@std@@SANN@Z
; public: static long double __cdecl std::_Ctr<long double>::_Nanv(long double)
?_Nanv@?$_Ctr@O@std@@SAOO@Z
; void __cdecl std::_Nomemory(void)
?_Nomemory@std@@YAXXZ
; private: static char const * __ptr64 __cdecl std::basic_string<char,struct std::char_traits<char>,class std::allocator<char> >::_Nullstr(void)
?_Nullstr@?$basic_string@DU?$char_traits@D@std@@V?$allocator@D@2@@std@@CAPEBDXZ
; private: static unsigned short const * __ptr64 __cdecl std::basic_string<unsigned short,struct std::char_traits<unsigned short>,class std::allocator<unsigned short> >::_Nullstr(void)
?_Nullstr@?$basic_string@GU?$char_traits@G@std@@V?$allocator@G@2@@std@@CAPEBGXZ
; private: static unsigned __int64 __cdecl std::basic_string<char,struct std::char_traits<char>,class std::allocator<char> >::_Pdif(char const * __ptr64,char const * __ptr64)
?_Pdif@?$basic_string@DU?$char_traits@D@std@@V?$allocator@D@2@@std@@CA_KPEBD0@Z
; private: static unsigned __int64 __cdecl std::basic_string<unsigned short,struct std::char_traits<unsigned short>,class std::allocator<unsigned short> >::_Pdif(unsigned short const * __ptr64,unsigned short const * __ptr64)
?_Pdif@?$basic_string@GU?$char_traits@G@std@@V?$allocator@G@2@@std@@CA_KPEBG0@Z
; protected: char * __ptr64 __cdecl std::basic_streambuf<char,struct std::char_traits<char> >::_Pninc(void) __ptr64
?_Pninc@?$basic_streambuf@DU?$char_traits@D@std@@@std@@IEAAPEADXZ
; protected: unsigned short * __ptr64 __cdecl std::basic_streambuf<unsigned short,struct std::char_traits<unsigned short> >::_Pninc(void) __ptr64
?_Pninc@?$basic_streambuf@GU?$char_traits@G@std@@@std@@IEAAPEAGXZ
; private: static char * __ptr64 __cdecl std::basic_string<char,struct std::char_traits<char>,class std::allocator<char> >::_Psum(char * __ptr64,unsigned __int64)
?_Psum@?$basic_string@DU?$char_traits@D@std@@V?$allocator@D@2@@std@@CAPEADPEAD_K@Z
; private: static char const * __ptr64 __cdecl std::basic_string<char,struct std::char_traits<char>,class std::allocator<char> >::_Psum(char const * __ptr64,unsigned __int64)
?_Psum@?$basic_string@DU?$char_traits@D@std@@V?$allocator@D@2@@std@@CAPEBDPEBD_K@Z
; private: static unsigned short * __ptr64 __cdecl std::basic_string<unsigned short,struct std::char_traits<unsigned short>,class std::allocator<unsigned short> >::_Psum(unsigned short * __ptr64,unsigned __int64)
?_Psum@?$basic_string@GU?$char_traits@G@std@@V?$allocator@G@2@@std@@CAPEAGPEAG_K@Z
; private: static unsigned short const * __ptr64 __cdecl std::basic_string<unsigned short,struct std::char_traits<unsigned short>,class std::allocator<unsigned short> >::_Psum(unsigned short const * __ptr64,unsigned __int64)
?_Psum@?$basic_string@GU?$char_traits@G@std@@V?$allocator@G@2@@std@@CAPEBGPEBG_K@Z
; private: static class std::ostreambuf_iterator<char,struct std::char_traits<char> >  __cdecl std::money_put<char,class std::ostreambuf_iterator<char,struct std::char_traits<char> > >::_Put(class std::ostreambuf_iterator<char,struct std::char_traits<char> >,char const * __ptr64,unsigned __int64)
?_Put@?$money_put@DV?$ostreambuf_iterator@DU?$char_traits@D@std@@@std@@@std@@CA?AV?$ostreambuf_iterator@DU?$char_traits@D@std@@@2@V32@PEBD_K@Z
; private: static class std::ostreambuf_iterator<unsigned short,struct std::char_traits<unsigned short> >  __cdecl std::money_put<unsigned short,class std::ostreambuf_iterator<unsigned short,struct std::char_traits<unsigned short> > >::_Put(class std::ostreambuf_iterator<unsigned short,struct std::char_traits<unsigned short> >,unsigned short const * __ptr64,unsigned __int64)
?_Put@?$money_put@GV?$ostreambuf_iterator@GU?$char_traits@G@std@@@std@@@std@@CA?AV?$ostreambuf_iterator@GU?$char_traits@G@std@@@2@V32@PEBG_K@Z
; protected: static class std::ostreambuf_iterator<char,struct std::char_traits<char> >  __cdecl std::num_put<char,class std::ostreambuf_iterator<char,struct std::char_traits<char> > >::_Put(class std::ostreambuf_iterator<char,struct std::char_traits<char> >,char const * __ptr64,unsigned __int64)
?_Put@?$num_put@DV?$ostreambuf_iterator@DU?$char_traits@D@std@@@std@@@std@@KA?AV?$ostreambuf_iterator@DU?$char_traits@D@std@@@2@V32@PEBD_K@Z
; protected: static class std::ostreambuf_iterator<unsigned short,struct std::char_traits<unsigned short> >  __cdecl std::num_put<unsigned short,class std::ostreambuf_iterator<unsigned short,struct std::char_traits<unsigned short> > >::_Put(class std::ostreambuf_iterator<unsigned short,struct std::char_traits<unsigned short> >,unsigned short const * __ptr64,unsigned __int64)
?_Put@?$num_put@GV?$ostreambuf_iterator@GU?$char_traits@G@std@@@std@@@std@@KA?AV?$ostreambuf_iterator@GU?$char_traits@G@std@@@2@V32@PEBG_K@Z
; protected: static class std::ostreambuf_iterator<char,struct std::char_traits<char> >  __cdecl std::num_put<char,class std::ostreambuf_iterator<char,struct std::char_traits<char> > >::_Putc(class std::ostreambuf_iterator<char,struct std::char_traits<char> >,char const * __ptr64,unsigned __int64)
?_Putc@?$num_put@DV?$ostreambuf_iterator@DU?$char_traits@D@std@@@std@@@std@@KA?AV?$ostreambuf_iterator@DU?$char_traits@D@std@@@2@V32@PEBD_K@Z
; protected: static class std::ostreambuf_iterator<unsigned short,struct std::char_traits<unsigned short> >  __cdecl std::num_put<unsigned short,class std::ostreambuf_iterator<unsigned short,struct std::char_traits<unsigned short> > >::_Putc(class std::ostreambuf_iterator<unsigned short,struct std::char_traits<unsigned short> >,char const * __ptr64,unsigned __int64)
?_Putc@?$num_put@GV?$ostreambuf_iterator@GU?$char_traits@G@std@@@std@@@std@@KA?AV?$ostreambuf_iterator@GU?$char_traits@G@std@@@2@V32@PEBD_K@Z
; private: class std::ostreambuf_iterator<char,struct std::char_traits<char> >  __cdecl std::money_put<char,class std::ostreambuf_iterator<char,struct std::char_traits<char> > >::_Putmfld(class std::ostreambuf_iterator<char,struct std::char_traits<char> >,bool,class std::ios_base & __ptr64,char,bool,class std::basic_string<char,struct std::char_traits<char>,class std::allocator<char> >)const  __ptr64
?_Putmfld@?$money_put@DV?$ostreambuf_iterator@DU?$char_traits@D@std@@@std@@@std@@AEBA?AV?$ostreambuf_iterator@DU?$char_traits@D@std@@@2@V32@_NAEAVios_base@2@D1V?$basic_string@DU?$char_traits@D@std@@V?$allocator@D@2@@2@@Z
; private: class std::ostreambuf_iterator<unsigned short,struct std::char_traits<unsigned short> >  __cdecl std::money_put<unsigned short,class std::ostreambuf_iterator<unsigned short,struct std::char_traits<unsigned short> > >::_Putmfld(class std::ostreambuf_iterator<unsigned short,struct std::char_traits<unsigned short> >,bool,class std::ios_base & __ptr64,unsigned short,bool,class std::basic_string<unsigned short,struct std::char_traits<unsigned short>,class std::allocator<unsigned short> >)const  __ptr64
?_Putmfld@?$money_put@GV?$ostreambuf_iterator@GU?$char_traits@G@std@@@std@@@std@@AEBA?AV?$ostreambuf_iterator@GU?$char_traits@G@std@@@2@V32@_NAEAVios_base@2@G1V?$basic_string@GU?$char_traits@G@std@@V?$allocator@G@2@@2@@Z
; ?BN@???$_Fabs@M@std::_R2(YAMAEBV?$complex@M@1@PEAH@Z@4MB)
?_R2@?BN@???$_Fabs@M@std@@YAMAEBV?$complex@M@1@PEAH@Z@4MB
; ?BN@???$_Fabs@N@std::_R2(YANAEBV?$complex@N@1@PEAH@Z@4NB)
?_R2@?BN@???$_Fabs@N@std@@YANAEBV?$complex@N@1@PEAH@Z@4NB
; private: unsigned char & __ptr64 __cdecl std::basic_string<char,struct std::char_traits<char>,class std::allocator<char> >::_Refcnt(char const * __ptr64) __ptr64
?_Refcnt@?$basic_string@DU?$char_traits@D@std@@V?$allocator@D@2@@std@@AEAAAEAEPEBD@Z
; private: unsigned char & __ptr64 __cdecl std::basic_string<unsigned short,struct std::char_traits<unsigned short>,class std::allocator<unsigned short> >::_Refcnt(unsigned short const * __ptr64) __ptr64
?_Refcnt@?$basic_string@GU?$char_traits@G@std@@V?$allocator@G@2@@std@@AEAAAEAEPEBG@Z
; private: static class std::ostreambuf_iterator<char,struct std::char_traits<char> >  __cdecl std::money_put<char,class std::ostreambuf_iterator<char,struct std::char_traits<char> > >::_Rep(class std::ostreambuf_iterator<char,struct std::char_traits<char> >,char,unsigned __int64)
?_Rep@?$money_put@DV?$ostreambuf_iterator@DU?$char_traits@D@std@@@std@@@std@@CA?AV?$ostreambuf_iterator@DU?$char_traits@D@std@@@2@V32@D_K@Z
; private: static class std::ostreambuf_iterator<unsigned short,struct std::char_traits<unsigned short> >  __cdecl std::money_put<unsigned short,class std::ostreambuf_iterator<unsigned short,struct std::char_traits<unsigned short> > >::_Rep(class std::ostreambuf_iterator<unsigned short,struct std::char_traits<unsigned short> >,unsigned short,unsigned __int64)
?_Rep@?$money_put@GV?$ostreambuf_iterator@GU?$char_traits@G@std@@@std@@@std@@CA?AV?$ostreambuf_iterator@GU?$char_traits@G@std@@@2@V32@G_K@Z
; protected: static class std::ostreambuf_iterator<char,struct std::char_traits<char> >  __cdecl std::num_put<char,class std::ostreambuf_iterator<char,struct std::char_traits<char> > >::_Rep(class std::ostreambuf_iterator<char,struct std::char_traits<char> >,char,unsigned __int64)
?_Rep@?$num_put@DV?$ostreambuf_iterator@DU?$char_traits@D@std@@@std@@@std@@KA?AV?$ostreambuf_iterator@DU?$char_traits@D@std@@@2@V32@D_K@Z
; protected: static class std::ostreambuf_iterator<unsigned short,struct std::char_traits<unsigned short> >  __cdecl std::num_put<unsigned short,class std::ostreambuf_iterator<unsigned short,struct std::char_traits<unsigned short> > >::_Rep(class std::ostreambuf_iterator<unsigned short,struct std::char_traits<unsigned short> >,unsigned short,unsigned __int64)
?_Rep@?$num_put@GV?$ostreambuf_iterator@GU?$char_traits@G@std@@@std@@@std@@KA?AV?$ostreambuf_iterator@GU?$char_traits@G@std@@@2@V32@G_K@Z
; public: static float __cdecl std::_Ctr<float>::_Sinh(float,float)
?_Sinh@?$_Ctr@M@std@@SAMMM@Z
; public: static double __cdecl std::_Ctr<double>::_Sinh(double,double)
?_Sinh@?$_Ctr@N@std@@SANNN@Z
; public: static long double __cdecl std::_Ctr<long double>::_Sinh(long double,long double)
?_Sinh@?$_Ctr@O@std@@SAOOO@Z
; private: void __cdecl std::basic_string<char,struct std::char_traits<char>,class std::allocator<char> >::_Split(void) __ptr64
?_Split@?$basic_string@DU?$char_traits@D@std@@V?$allocator@D@2@@std@@AEAAXXZ
; private: void __cdecl std::basic_string<unsigned short,struct std::char_traits<unsigned short>,class std::allocator<unsigned short> >::_Split(void) __ptr64
?_Split@?$basic_string@GU?$char_traits@G@std@@V?$allocator@G@2@@std@@AEAAXXZ
; int  `protected: void __cdecl std::basic_filebuf<char,struct std::char_traits<char> >::_Init(struct _iobuf * __ptr64,enum std::basic_filebuf<char,struct std::char_traits<char> >::_Initfl) __ptr64'::`2'::_Stinit
?_Stinit@?1??_Init@?$basic_filebuf@DU?$char_traits@D@std@@@std@@IEAAXPEAU_iobuf@@W4_Initfl@23@@Z@4HA DATA
; int  `protected: void __cdecl std::basic_filebuf<unsigned short,struct std::char_traits<unsigned short> >::_Init(struct _iobuf * __ptr64,enum std::basic_filebuf<unsigned short,struct std::char_traits<unsigned short> >::_Initfl) __ptr64'::`2'::_Stinit
?_Stinit@?1??_Init@?$basic_filebuf@GU?$char_traits@G@std@@@std@@IEAAXPEAU_iobuf@@W4_Initfl@23@@Z@4HA DATA
; private: static bool  std::ios_base::_Sync
?_Sync@ios_base@std@@0_NA DATA
; protected: static void __cdecl std::ctype<char>::_Term(void)
?_Term@?$ctype@D@std@@KAXXZ
; private: void __cdecl std::basic_string<char,struct std::char_traits<char>,class std::allocator<char> >::_Tidy(bool) __ptr64
?_Tidy@?$basic_string@DU?$char_traits@D@std@@V?$allocator@D@2@@std@@AEAAX_N@Z
; private: void __cdecl std::basic_string<unsigned short,struct std::char_traits<unsigned short>,class std::allocator<unsigned short> >::_Tidy(bool) __ptr64
?_Tidy@?$basic_string@GU?$char_traits@G@std@@V?$allocator@G@2@@std@@AEAAX_N@Z
; protected: void __cdecl std::basic_stringbuf<char,struct std::char_traits<char>,class std::allocator<char> >::_Tidy(void) __ptr64
?_Tidy@?$basic_stringbuf@DU?$char_traits@D@std@@V?$allocator@D@2@@std@@IEAAXXZ
; protected: void __cdecl std::basic_stringbuf<unsigned short,struct std::char_traits<unsigned short>,class std::allocator<unsigned short> >::_Tidy(void) __ptr64
?_Tidy@?$basic_stringbuf@GU?$char_traits@G@std@@V?$allocator@G@2@@std@@IEAAXXZ
; private: void __cdecl std::ios_base::_Tidy(void) __ptr64
?_Tidy@ios_base@std@@AEAAXXZ
; private: static void __cdecl std::locale::_Tidy(void)
?_Tidy@locale@std@@CAXXZ
; protected: void __cdecl std::strstreambuf::_Tidy(void) __ptr64
?_Tidy@strstreambuf@std@@IEAAXXZ
; ?BN@???$_Fabs@M@std::_Xh(YAMAEBV?$complex@M@1@PEAH@Z@4MB)
?_Xh@?BN@???$_Fabs@M@std@@YAMAEBV?$complex@M@1@PEAH@Z@4MB
; ?BN@???$_Fabs@N@std::_Xh(YANAEBV?$complex@N@1@PEAH@Z@4NB)
?_Xh@?BN@???$_Fabs@N@std@@YANAEBV?$complex@N@1@PEAH@Z@4NB
; ?BN@???$_Fabs@M@std::_Xl(YAMAEBV?$complex@M@1@PEAH@Z@4MB)
?_Xl@?BN@???$_Fabs@M@std@@YAMAEBV?$complex@M@1@PEAH@Z@4MB
; ?BN@???$_Fabs@N@std::_Xl(YANAEBV?$complex@N@1@PEAH@Z@4NB)
?_Xl@?BN@???$_Fabs@N@std@@YANAEBV?$complex@N@1@PEAH@Z@4NB
; void __cdecl std::_Xlen(void)
?_Xlen@std@@YAXXZ
; void __cdecl std::_Xran(void)
?_Xran@std@@YAXXZ
; struct _iobuf * __ptr64 __cdecl std::__Fiopen(char const * __ptr64,int)
?__Fiopen@std@@YAPEAU_iobuf@@PEBDH@Z
; float __cdecl std::abs(class std::complex<float> const & __ptr64)
?abs@std@@YAMAEBV?$complex@M@1@@Z
; double __cdecl std::abs(class std::complex<double> const & __ptr64)
?abs@std@@YANAEBV?$complex@N@1@@Z
; long double __cdecl std::abs(class std::complex<long double> const & __ptr64)
?abs@std@@YAOAEBV?$complex@O@1@@Z
; public: bool __cdecl std::codecvt_base::always_noconv(void)const  __ptr64
?always_noconv@codecvt_base@std@@QEBA_NXZ
; public: class std::basic_string<char,struct std::char_traits<char>,class std::allocator<char> > & __ptr64 __cdecl std::basic_string<char,struct std::char_traits<char>,class std::allocator<char> >::append(class std::basic_string<char,struct std::char_traits<char>,class std::allocator<char> > const & __ptr64) __ptr64
?append@?$basic_string@DU?$char_traits@D@std@@V?$allocator@D@2@@std@@QEAAAEAV12@AEBV12@@Z
; public: class std::basic_string<char,struct std::char_traits<char>,class std::allocator<char> > & __ptr64 __cdecl std::basic_string<char,struct std::char_traits<char>,class std::allocator<char> >::append(class std::basic_string<char,struct std::char_traits<char>,class std::allocator<char> > const & __ptr64,unsigned __int64,unsigned __int64) __ptr64
?append@?$basic_string@DU?$char_traits@D@std@@V?$allocator@D@2@@std@@QEAAAEAV12@AEBV12@_K1@Z
; public: class std::basic_string<char,struct std::char_traits<char>,class std::allocator<char> > & __ptr64 __cdecl std::basic_string<char,struct std::char_traits<char>,class std::allocator<char> >::append(char const * __ptr64,char const * __ptr64) __ptr64
?append@?$basic_string@DU?$char_traits@D@std@@V?$allocator@D@2@@std@@QEAAAEAV12@PEBD0@Z
; public: class std::basic_string<char,struct std::char_traits<char>,class std::allocator<char> > & __ptr64 __cdecl std::basic_string<char,struct std::char_traits<char>,class std::allocator<char> >::append(char const * __ptr64) __ptr64
?append@?$basic_string@DU?$char_traits@D@std@@V?$allocator@D@2@@std@@QEAAAEAV12@PEBD@Z
; public: class std::basic_string<char,struct std::char_traits<char>,class std::allocator<char> > & __ptr64 __cdecl std::basic_string<char,struct std::char_traits<char>,class std::allocator<char> >::append(char const * __ptr64,unsigned __int64) __ptr64
?append@?$basic_string@DU?$char_traits@D@std@@V?$allocator@D@2@@std@@QEAAAEAV12@PEBD_K@Z
; public: class std::basic_string<char,struct std::char_traits<char>,class std::allocator<char> > & __ptr64 __cdecl std::basic_string<char,struct std::char_traits<char>,class std::allocator<char> >::append(unsigned __int64,char) __ptr64
?append@?$basic_string@DU?$char_traits@D@std@@V?$allocator@D@2@@std@@QEAAAEAV12@_KD@Z
; public: class std::basic_string<unsigned short,struct std::char_traits<unsigned short>,class std::allocator<unsigned short> > & __ptr64 __cdecl std::basic_string<unsigned short,struct std::char_traits<unsigned short>,class std::allocator<unsigned short> >::append(class std::basic_string<unsigned short,struct std::char_traits<unsigned short>,class std::allocator<unsigned short> > const & __ptr64) __ptr64
?append@?$basic_string@GU?$char_traits@G@std@@V?$allocator@G@2@@std@@QEAAAEAV12@AEBV12@@Z
; public: class std::basic_string<unsigned short,struct std::char_traits<unsigned short>,class std::allocator<unsigned short> > & __ptr64 __cdecl std::basic_string<unsigned short,struct std::char_traits<unsigned short>,class std::allocator<unsigned short> >::append(class std::basic_string<unsigned short,struct std::char_traits<unsigned short>,class std::allocator<unsigned short> > const & __ptr64,unsigned __int64,unsigned __int64) __ptr64
?append@?$basic_string@GU?$char_traits@G@std@@V?$allocator@G@2@@std@@QEAAAEAV12@AEBV12@_K1@Z
; public: class std::basic_string<unsigned short,struct std::char_traits<unsigned short>,class std::allocator<unsigned short> > & __ptr64 __cdecl std::basic_string<unsigned short,struct std::char_traits<unsigned short>,class std::allocator<unsigned short> >::append(unsigned short const * __ptr64,unsigned short const * __ptr64) __ptr64
?append@?$basic_string@GU?$char_traits@G@std@@V?$allocator@G@2@@std@@QEAAAEAV12@PEBG0@Z
; public: class std::basic_string<unsigned short,struct std::char_traits<unsigned short>,class std::allocator<unsigned short> > & __ptr64 __cdecl std::basic_string<unsigned short,struct std::char_traits<unsigned short>,class std::allocator<unsigned short> >::append(unsigned short const * __ptr64) __ptr64
?append@?$basic_string@GU?$char_traits@G@std@@V?$allocator@G@2@@std@@QEAAAEAV12@PEBG@Z
; public: class std::basic_string<unsigned short,struct std::char_traits<unsigned short>,class std::allocator<unsigned short> > & __ptr64 __cdecl std::basic_string<unsigned short,struct std::char_traits<unsigned short>,class std::allocator<unsigned short> >::append(unsigned short const * __ptr64,unsigned __int64) __ptr64
?append@?$basic_string@GU?$char_traits@G@std@@V?$allocator@G@2@@std@@QEAAAEAV12@PEBG_K@Z
; public: class std::basic_string<unsigned short,struct std::char_traits<unsigned short>,class std::allocator<unsigned short> > & __ptr64 __cdecl std::basic_string<unsigned short,struct std::char_traits<unsigned short>,class std::allocator<unsigned short> >::append(unsigned __int64,unsigned short) __ptr64
?append@?$basic_string@GU?$char_traits@G@std@@V?$allocator@G@2@@std@@QEAAAEAV12@_KG@Z
; float __cdecl std::arg(class std::complex<float> const & __ptr64)
?arg@std@@YAMAEBV?$complex@M@1@@Z
; double __cdecl std::arg(class std::complex<double> const & __ptr64)
?arg@std@@YANAEBV?$complex@N@1@@Z
; long double __cdecl std::arg(class std::complex<long double> const & __ptr64)
?arg@std@@YAOAEBV?$complex@O@1@@Z
; public: class std::basic_string<char,struct std::char_traits<char>,class std::allocator<char> > & __ptr64 __cdecl std::basic_string<char,struct std::char_traits<char>,class std::allocator<char> >::assign(class std::basic_string<char,struct std::char_traits<char>,class std::allocator<char> > const & __ptr64) __ptr64
?assign@?$basic_string@DU?$char_traits@D@std@@V?$allocator@D@2@@std@@QEAAAEAV12@AEBV12@@Z
; public: class std::basic_string<char,struct std::char_traits<char>,class std::allocator<char> > & __ptr64 __cdecl std::basic_string<char,struct std::char_traits<char>,class std::allocator<char> >::assign(class std::basic_string<char,struct std::char_traits<char>,class std::allocator<char> > const & __ptr64,unsigned __int64,unsigned __int64) __ptr64
?assign@?$basic_string@DU?$char_traits@D@std@@V?$allocator@D@2@@std@@QEAAAEAV12@AEBV12@_K1@Z
; public: class std::basic_string<char,struct std::char_traits<char>,class std::allocator<char> > & __ptr64 __cdecl std::basic_string<char,struct std::char_traits<char>,class std::allocator<char> >::assign(char const * __ptr64,char const * __ptr64) __ptr64
?assign@?$basic_string@DU?$char_traits@D@std@@V?$allocator@D@2@@std@@QEAAAEAV12@PEBD0@Z
; public: class std::basic_string<char,struct std::char_traits<char>,class std::allocator<char> > & __ptr64 __cdecl std::basic_string<char,struct std::char_traits<char>,class std::allocator<char> >::assign(char const * __ptr64) __ptr64
?assign@?$basic_string@DU?$char_traits@D@std@@V?$allocator@D@2@@std@@QEAAAEAV12@PEBD@Z
; public: class std::basic_string<char,struct std::char_traits<char>,class std::allocator<char> > & __ptr64 __cdecl std::basic_string<char,struct std::char_traits<char>,class std::allocator<char> >::assign(char const * __ptr64,unsigned __int64) __ptr64
?assign@?$basic_string@DU?$char_traits@D@std@@V?$allocator@D@2@@std@@QEAAAEAV12@PEBD_K@Z
; public: class std::basic_string<char,struct std::char_traits<char>,class std::allocator<char> > & __ptr64 __cdecl std::basic_string<char,struct std::char_traits<char>,class std::allocator<char> >::assign(unsigned __int64,char) __ptr64
?assign@?$basic_string@DU?$char_traits@D@std@@V?$allocator@D@2@@std@@QEAAAEAV12@_KD@Z
; public: class std::basic_string<unsigned short,struct std::char_traits<unsigned short>,class std::allocator<unsigned short> > & __ptr64 __cdecl std::basic_string<unsigned short,struct std::char_traits<unsigned short>,class std::allocator<unsigned short> >::assign(class std::basic_string<unsigned short,struct std::char_traits<unsigned short>,class std::allocator<unsigned short> > const & __ptr64) __ptr64
?assign@?$basic_string@GU?$char_traits@G@std@@V?$allocator@G@2@@std@@QEAAAEAV12@AEBV12@@Z
; public: class std::basic_string<unsigned short,struct std::char_traits<unsigned short>,class std::allocator<unsigned short> > & __ptr64 __cdecl std::basic_string<unsigned short,struct std::char_traits<unsigned short>,class std::allocator<unsigned short> >::assign(class std::basic_string<unsigned short,struct std::char_traits<unsigned short>,class std::allocator<unsigned short> > const & __ptr64,unsigned __int64,unsigned __int64) __ptr64
?assign@?$basic_string@GU?$char_traits@G@std@@V?$allocator@G@2@@std@@QEAAAEAV12@AEBV12@_K1@Z
; public: class std::basic_string<unsigned short,struct std::char_traits<unsigned short>,class std::allocator<unsigned short> > & __ptr64 __cdecl std::basic_string<unsigned short,struct std::char_traits<unsigned short>,class std::allocator<unsigned short> >::assign(unsigned short const * __ptr64,unsigned short const * __ptr64) __ptr64
?assign@?$basic_string@GU?$char_traits@G@std@@V?$allocator@G@2@@std@@QEAAAEAV12@PEBG0@Z
; public: class std::basic_string<unsigned short,struct std::char_traits<unsigned short>,class std::allocator<unsigned short> > & __ptr64 __cdecl std::basic_string<unsigned short,struct std::char_traits<unsigned short>,class std::allocator<unsigned short> >::assign(unsigned short const * __ptr64) __ptr64
?assign@?$basic_string@GU?$char_traits@G@std@@V?$allocator@G@2@@std@@QEAAAEAV12@PEBG@Z
; public: class std::basic_string<unsigned short,struct std::char_traits<unsigned short>,class std::allocator<unsigned short> > & __ptr64 __cdecl std::basic_string<unsigned short,struct std::char_traits<unsigned short>,class std::allocator<unsigned short> >::assign(unsigned short const * __ptr64,unsigned __int64) __ptr64
?assign@?$basic_string@GU?$char_traits@G@std@@V?$allocator@G@2@@std@@QEAAAEAV12@PEBG_K@Z
; public: class std::basic_string<unsigned short,struct std::char_traits<unsigned short>,class std::allocator<unsigned short> > & __ptr64 __cdecl std::basic_string<unsigned short,struct std::char_traits<unsigned short>,class std::allocator<unsigned short> >::assign(unsigned __int64,unsigned short) __ptr64
?assign@?$basic_string@GU?$char_traits@G@std@@V?$allocator@G@2@@std@@QEAAAEAV12@_KG@Z
; public: static char * __ptr64 __cdecl std::char_traits<char>::assign(char * __ptr64,unsigned __int64,char const & __ptr64)
?assign@?$char_traits@D@std@@SAPEADPEAD_KAEBD@Z
; public: static void __cdecl std::char_traits<char>::assign(char & __ptr64,char const & __ptr64)
?assign@?$char_traits@D@std@@SAXAEADAEBD@Z
; public: static unsigned short * __ptr64 __cdecl std::char_traits<unsigned short>::assign(unsigned short * __ptr64,unsigned __int64,unsigned short const & __ptr64)
?assign@?$char_traits@G@std@@SAPEAGPEAG_KAEBG@Z
; public: static void __cdecl std::char_traits<unsigned short>::assign(unsigned short & __ptr64,unsigned short const & __ptr64)
?assign@?$char_traits@G@std@@SAXAEAGAEBG@Z
; public: char & __ptr64 __cdecl std::basic_string<char,struct std::char_traits<char>,class std::allocator<char> >::at(unsigned __int64) __ptr64
?at@?$basic_string@DU?$char_traits@D@std@@V?$allocator@D@2@@std@@QEAAAEAD_K@Z
; public: char const & __ptr64 __cdecl std::basic_string<char,struct std::char_traits<char>,class std::allocator<char> >::at(unsigned __int64)const  __ptr64
?at@?$basic_string@DU?$char_traits@D@std@@V?$allocator@D@2@@std@@QEBAAEBD_K@Z
; public: unsigned short & __ptr64 __cdecl std::basic_string<unsigned short,struct std::char_traits<unsigned short>,class std::allocator<unsigned short> >::at(unsigned __int64) __ptr64
?at@?$basic_string@GU?$char_traits@G@std@@V?$allocator@G@2@@std@@QEAAAEAG_K@Z
; public: unsigned short const & __ptr64 __cdecl std::basic_string<unsigned short,struct std::char_traits<unsigned short>,class std::allocator<unsigned short> >::at(unsigned __int64)const  __ptr64
?at@?$basic_string@GU?$char_traits@G@std@@V?$allocator@G@2@@std@@QEBAAEBG_K@Z
; public: static float __cdecl std::_Ctr<float>::atan2(float,float)
?atan2@?$_Ctr@M@std@@SAMMM@Z
; public: static double __cdecl std::_Ctr<double>::atan2(double,double)
?atan2@?$_Ctr@N@std@@SANNN@Z
; public: static long double __cdecl std::_Ctr<long double>::atan2(long double,long double)
?atan2@?$_Ctr@O@std@@SAOOO@Z
; public: bool __cdecl std::ios_base::bad(void)const  __ptr64
?bad@ios_base@std@@QEBA_NXZ
; public: char * __ptr64 __cdecl std::basic_string<char,struct std::char_traits<char>,class std::allocator<char> >::begin(void) __ptr64
?begin@?$basic_string@DU?$char_traits@D@std@@V?$allocator@D@2@@std@@QEAAPEADXZ
; public: char const * __ptr64 __cdecl std::basic_string<char,struct std::char_traits<char>,class std::allocator<char> >::begin(void)const  __ptr64
?begin@?$basic_string@DU?$char_traits@D@std@@V?$allocator@D@2@@std@@QEBAPEBDXZ
; public: unsigned short * __ptr64 __cdecl std::basic_string<unsigned short,struct std::char_traits<unsigned short>,class std::allocator<unsigned short> >::begin(void) __ptr64
?begin@?$basic_string@GU?$char_traits@G@std@@V?$allocator@G@2@@std@@QEAAPEAGXZ
; public: unsigned short const * __ptr64 __cdecl std::basic_string<unsigned short,struct std::char_traits<unsigned short>,class std::allocator<unsigned short> >::begin(void)const  __ptr64
?begin@?$basic_string@GU?$char_traits@G@std@@V?$allocator@G@2@@std@@QEBAPEBGXZ
; public: char const * __ptr64 __cdecl std::basic_string<char,struct std::char_traits<char>,class std::allocator<char> >::c_str(void)const  __ptr64
?c_str@?$basic_string@DU?$char_traits@D@std@@V?$allocator@D@2@@std@@QEBAPEBDXZ
; public: unsigned short const * __ptr64 __cdecl std::basic_string<unsigned short,struct std::char_traits<unsigned short>,class std::allocator<unsigned short> >::c_str(void)const  __ptr64
?c_str@?$basic_string@GU?$char_traits@G@std@@V?$allocator@G@2@@std@@QEBAPEBGXZ
; public: unsigned __int64 __cdecl std::basic_string<char,struct std::char_traits<char>,class std::allocator<char> >::capacity(void)const  __ptr64
?capacity@?$basic_string@DU?$char_traits@D@std@@V?$allocator@D@2@@std@@QEBA_KXZ
; public: unsigned __int64 __cdecl std::basic_string<unsigned short,struct std::char_traits<unsigned short>,class std::allocator<unsigned short> >::capacity(void)const  __ptr64
?capacity@?$basic_string@GU?$char_traits@G@std@@V?$allocator@G@2@@std@@QEBA_KXZ
; class std::basic_ostream<char,struct std::char_traits<char> >  std::cerr
?cerr@std@@3V?$basic_ostream@DU?$char_traits@D@std@@@1@A DATA
; class std::basic_istream<char,struct std::char_traits<char> >  std::cin
?cin@std@@3V?$basic_istream@DU?$char_traits@D@std@@@1@A DATA
; public: static class std::locale const & __ptr64 __cdecl std::locale::classic(void)
?classic@locale@std@@SAAEBV12@XZ
; protected: static short const * __ptr64 __cdecl std::ctype<char>::classic_table(void)
?classic_table@?$ctype@D@std@@KAPEBFXZ
; public: void __cdecl std::basic_ios<char,struct std::char_traits<char> >::clear(short) __ptr64
?clear@?$basic_ios@DU?$char_traits@D@std@@@std@@QEAAXF@Z
; public: void __cdecl std::basic_ios<char,struct std::char_traits<char> >::clear(int,bool) __ptr64
?clear@?$basic_ios@DU?$char_traits@D@std@@@std@@QEAAXH_N@Z
; public: void __cdecl std::basic_ios<unsigned short,struct std::char_traits<unsigned short> >::clear(short) __ptr64
?clear@?$basic_ios@GU?$char_traits@G@std@@@std@@QEAAXF@Z
; public: void __cdecl std::basic_ios<unsigned short,struct std::char_traits<unsigned short> >::clear(int,bool) __ptr64
?clear@?$basic_ios@GU?$char_traits@G@std@@@std@@QEAAXH_N@Z
; public: void __cdecl std::ios_base::clear(short) __ptr64
?clear@ios_base@std@@QEAAXF@Z
; public: void __cdecl std::ios_base::clear(int,bool) __ptr64
?clear@ios_base@std@@QEAAXH_N@Z
; class std::basic_ostream<char,struct std::char_traits<char> >  std::clog
?clog@std@@3V?$basic_ostream@DU?$char_traits@D@std@@@1@A DATA
; public: class std::basic_filebuf<char,struct std::char_traits<char> > * __ptr64 __cdecl std::basic_filebuf<char,struct std::char_traits<char> >::close(void) __ptr64
?close@?$basic_filebuf@DU?$char_traits@D@std@@@std@@QEAAPEAV12@XZ
; public: class std::basic_filebuf<unsigned short,struct std::char_traits<unsigned short> > * __ptr64 __cdecl std::basic_filebuf<unsigned short,struct std::char_traits<unsigned short> >::close(void) __ptr64
?close@?$basic_filebuf@GU?$char_traits@G@std@@@std@@QEAAPEAV12@XZ
; public: void __cdecl std::basic_fstream<char,struct std::char_traits<char> >::close(void) __ptr64
?close@?$basic_fstream@DU?$char_traits@D@std@@@std@@QEAAXXZ
; public: void __cdecl std::basic_fstream<unsigned short,struct std::char_traits<unsigned short> >::close(void) __ptr64
?close@?$basic_fstream@GU?$char_traits@G@std@@@std@@QEAAXXZ
; public: void __cdecl std::basic_ifstream<char,struct std::char_traits<char> >::close(void) __ptr64
?close@?$basic_ifstream@DU?$char_traits@D@std@@@std@@QEAAXXZ
; public: void __cdecl std::basic_ifstream<unsigned short,struct std::char_traits<unsigned short> >::close(void) __ptr64
?close@?$basic_ifstream@GU?$char_traits@G@std@@@std@@QEAAXXZ
; public: void __cdecl std::basic_ofstream<char,struct std::char_traits<char> >::close(void) __ptr64
?close@?$basic_ofstream@DU?$char_traits@D@std@@@std@@QEAAXXZ
; public: void __cdecl std::basic_ofstream<unsigned short,struct std::char_traits<unsigned short> >::close(void) __ptr64
?close@?$basic_ofstream@GU?$char_traits@G@std@@@std@@QEAAXXZ
; public: void __cdecl std::messages<char>::close(int)const  __ptr64
?close@?$messages@D@std@@QEBAXH@Z
; public: void __cdecl std::messages<unsigned short>::close(int)const  __ptr64
?close@?$messages@G@std@@QEBAXH@Z
; public: int __cdecl std::basic_string<char,struct std::char_traits<char>,class std::allocator<char> >::compare(class std::basic_string<char,struct std::char_traits<char>,class std::allocator<char> > const & __ptr64)const  __ptr64
?compare@?$basic_string@DU?$char_traits@D@std@@V?$allocator@D@2@@std@@QEBAHAEBV12@@Z
; public: int __cdecl std::basic_string<char,struct std::char_traits<char>,class std::allocator<char> >::compare(char const * __ptr64)const  __ptr64
?compare@?$basic_string@DU?$char_traits@D@std@@V?$allocator@D@2@@std@@QEBAHPEBD@Z
; public: int __cdecl std::basic_string<char,struct std::char_traits<char>,class std::allocator<char> >::compare(unsigned __int64,unsigned __int64,class std::basic_string<char,struct std::char_traits<char>,class std::allocator<char> > const & __ptr64,unsigned __int64,unsigned __int64)const  __ptr64
?compare@?$basic_string@DU?$char_traits@D@std@@V?$allocator@D@2@@std@@QEBAH_K0AEBV12@00@Z
; public: int __cdecl std::basic_string<char,struct std::char_traits<char>,class std::allocator<char> >::compare(unsigned __int64,unsigned __int64,class std::basic_string<char,struct std::char_traits<char>,class std::allocator<char> > const & __ptr64)const  __ptr64
?compare@?$basic_string@DU?$char_traits@D@std@@V?$allocator@D@2@@std@@QEBAH_K0AEBV12@@Z
; public: int __cdecl std::basic_string<char,struct std::char_traits<char>,class std::allocator<char> >::compare(unsigned __int64,unsigned __int64,char const * __ptr64,unsigned __int64)const  __ptr64
?compare@?$basic_string@DU?$char_traits@D@std@@V?$allocator@D@2@@std@@QEBAH_K0PEBD0@Z
; public: int __cdecl std::basic_string<char,struct std::char_traits<char>,class std::allocator<char> >::compare(unsigned __int64,unsigned __int64,char const * __ptr64)const  __ptr64
?compare@?$basic_string@DU?$char_traits@D@std@@V?$allocator@D@2@@std@@QEBAH_K0PEBD@Z
; public: int __cdecl std::basic_string<unsigned short,struct std::char_traits<unsigned short>,class std::allocator<unsigned short> >::compare(class std::basic_string<unsigned short,struct std::char_traits<unsigned short>,class std::allocator<unsigned short> > const & __ptr64)const  __ptr64
?compare@?$basic_string@GU?$char_traits@G@std@@V?$allocator@G@2@@std@@QEBAHAEBV12@@Z
; public: int __cdecl std::basic_string<unsigned short,struct std::char_traits<unsigned short>,class std::allocator<unsigned short> >::compare(unsigned short const * __ptr64)const  __ptr64
?compare@?$basic_string@GU?$char_traits@G@std@@V?$allocator@G@2@@std@@QEBAHPEBG@Z
; public: int __cdecl std::basic_string<unsigned short,struct std::char_traits<unsigned short>,class std::allocator<unsigned short> >::compare(unsigned __int64,unsigned __int64,class std::basic_string<unsigned short,struct std::char_traits<unsigned short>,class std::allocator<unsigned short> > const & __ptr64,unsigned __int64,unsigned __int64)const  __ptr64
?compare@?$basic_string@GU?$char_traits@G@std@@V?$allocator@G@2@@std@@QEBAH_K0AEBV12@00@Z
; public: int __cdecl std::basic_string<unsigned short,struct std::char_traits<unsigned short>,class std::allocator<unsigned short> >::compare(unsigned __int64,unsigned __int64,class std::basic_string<unsigned short,struct std::char_traits<unsigned short>,class std::allocator<unsigned short> > const & __ptr64)const  __ptr64
?compare@?$basic_string@GU?$char_traits@G@std@@V?$allocator@G@2@@std@@QEBAH_K0AEBV12@@Z
; public: int __cdecl std::basic_string<unsigned short,struct std::char_traits<unsigned short>,class std::allocator<unsigned short> >::compare(unsigned __int64,unsigned __int64,unsigned short const * __ptr64,unsigned __int64)const  __ptr64
?compare@?$basic_string@GU?$char_traits@G@std@@V?$allocator@G@2@@std@@QEBAH_K0PEBG0@Z
; public: int __cdecl std::basic_string<unsigned short,struct std::char_traits<unsigned short>,class std::allocator<unsigned short> >::compare(unsigned __int64,unsigned __int64,unsigned short const * __ptr64)const  __ptr64
?compare@?$basic_string@GU?$char_traits@G@std@@V?$allocator@G@2@@std@@QEBAH_K0PEBG@Z
; public: static int __cdecl std::char_traits<char>::compare(char const * __ptr64,char const * __ptr64,unsigned __int64)
?compare@?$char_traits@D@std@@SAHPEBD0_K@Z
; public: static int __cdecl std::char_traits<unsigned short>::compare(unsigned short const * __ptr64,unsigned short const * __ptr64,unsigned __int64)
?compare@?$char_traits@G@std@@SAHPEBG0_K@Z
; public: int __cdecl std::collate<char>::compare(char const * __ptr64,char const * __ptr64,char const * __ptr64,char const * __ptr64)const  __ptr64
?compare@?$collate@D@std@@QEBAHPEBD000@Z
; public: int __cdecl std::collate<unsigned short>::compare(unsigned short const * __ptr64,unsigned short const * __ptr64,unsigned short const * __ptr64,unsigned short const * __ptr64)const  __ptr64
?compare@?$collate@G@std@@QEBAHPEBG000@Z
; class std::complex<float>  __cdecl std::conj(class std::complex<float> const & __ptr64)
?conj@std@@YA?AV?$complex@M@1@AEBV21@@Z
; class std::complex<double>  __cdecl std::conj(class std::complex<double> const & __ptr64)
?conj@std@@YA?AV?$complex@N@1@AEBV21@@Z
; class std::complex<long double>  __cdecl std::conj(class std::complex<long double> const & __ptr64)
?conj@std@@YA?AV?$complex@O@1@AEBV21@@Z
; public: unsigned __int64 __cdecl std::basic_string<char,struct std::char_traits<char>,class std::allocator<char> >::copy(char * __ptr64,unsigned __int64,unsigned __int64)const  __ptr64
?copy@?$basic_string@DU?$char_traits@D@std@@V?$allocator@D@2@@std@@QEBA_KPEAD_K1@Z
; public: unsigned __int64 __cdecl std::basic_string<unsigned short,struct std::char_traits<unsigned short>,class std::allocator<unsigned short> >::copy(unsigned short * __ptr64,unsigned __int64,unsigned __int64)const  __ptr64
?copy@?$basic_string@GU?$char_traits@G@std@@V?$allocator@G@2@@std@@QEBA_KPEAG_K1@Z
; public: static char * __ptr64 __cdecl std::char_traits<char>::copy(char * __ptr64,char const * __ptr64,unsigned __int64)
?copy@?$char_traits@D@std@@SAPEADPEADPEBD_K@Z
; public: static unsigned short * __ptr64 __cdecl std::char_traits<unsigned short>::copy(unsigned short * __ptr64,unsigned short const * __ptr64,unsigned __int64)
?copy@?$char_traits@G@std@@SAPEAGPEAGPEBG_K@Z
; public: class std::basic_ios<char,struct std::char_traits<char> > & __ptr64 __cdecl std::basic_ios<char,struct std::char_traits<char> >::copyfmt(class std::basic_ios<char,struct std::char_traits<char> > const & __ptr64) __ptr64
?copyfmt@?$basic_ios@DU?$char_traits@D@std@@@std@@QEAAAEAV12@AEBV12@@Z
; public: class std::basic_ios<unsigned short,struct std::char_traits<unsigned short> > & __ptr64 __cdecl std::basic_ios<unsigned short,struct std::char_traits<unsigned short> >::copyfmt(class std::basic_ios<unsigned short,struct std::char_traits<unsigned short> > const & __ptr64) __ptr64
?copyfmt@?$basic_ios@GU?$char_traits@G@std@@@std@@QEAAAEAV12@AEBV12@@Z
; public: class std::ios_base & __ptr64 __cdecl std::ios_base::copyfmt(class std::ios_base const & __ptr64) __ptr64
?copyfmt@ios_base@std@@QEAAAEAV12@AEBV12@@Z
; public: static float __cdecl std::_Ctr<float>::cos(float)
?cos@?$_Ctr@M@std@@SAMM@Z
; public: static double __cdecl std::_Ctr<double>::cos(double)
?cos@?$_Ctr@N@std@@SANN@Z
; public: static long double __cdecl std::_Ctr<long double>::cos(long double)
?cos@?$_Ctr@O@std@@SAOO@Z
; class std::complex<float>  __cdecl std::cos(class std::complex<float> const & __ptr64)
?cos@std@@YA?AV?$complex@M@1@AEBV21@@Z
; class std::complex<double>  __cdecl std::cos(class std::complex<double> const & __ptr64)
?cos@std@@YA?AV?$complex@N@1@AEBV21@@Z
; class std::complex<long double>  __cdecl std::cos(class std::complex<long double> const & __ptr64)
?cos@std@@YA?AV?$complex@O@1@AEBV21@@Z
; class std::complex<float>  __cdecl std::cosh(class std::complex<float> const & __ptr64)
?cosh@std@@YA?AV?$complex@M@1@AEBV21@@Z
; class std::complex<double>  __cdecl std::cosh(class std::complex<double> const & __ptr64)
?cosh@std@@YA?AV?$complex@N@1@AEBV21@@Z
; class std::complex<long double>  __cdecl std::cosh(class std::complex<long double> const & __ptr64)
?cosh@std@@YA?AV?$complex@O@1@AEBV21@@Z
; class std::basic_ostream<char,struct std::char_traits<char> >  std::cout
?cout@std@@3V?$basic_ostream@DU?$char_traits@D@std@@@1@A DATA
; public: class std::basic_string<char,struct std::char_traits<char>,class std::allocator<char> >  __cdecl std::_Mpunct<char>::curr_symbol(void)const  __ptr64
?curr_symbol@?$_Mpunct@D@std@@QEBA?AV?$basic_string@DU?$char_traits@D@std@@V?$allocator@D@2@@2@XZ
; public: class std::basic_string<unsigned short,struct std::char_traits<unsigned short>,class std::allocator<unsigned short> >  __cdecl std::_Mpunct<unsigned short>::curr_symbol(void)const  __ptr64
?curr_symbol@?$_Mpunct@G@std@@QEBA?AV?$basic_string@GU?$char_traits@G@std@@V?$allocator@G@2@@2@XZ
; public: char const * __ptr64 __cdecl std::basic_string<char,struct std::char_traits<char>,class std::allocator<char> >::data(void)const  __ptr64
?data@?$basic_string@DU?$char_traits@D@std@@V?$allocator@D@2@@std@@QEBAPEBDXZ
; public: unsigned short const * __ptr64 __cdecl std::basic_string<unsigned short,struct std::char_traits<unsigned short>,class std::allocator<unsigned short> >::data(void)const  __ptr64
?data@?$basic_string@GU?$char_traits@G@std@@V?$allocator@G@2@@std@@QEBAPEBGXZ
; public: int __cdecl std::time_get<char,class std::istreambuf_iterator<char,struct std::char_traits<char> > >::date_order(void)const  __ptr64
?date_order@?$time_get@DV?$istreambuf_iterator@DU?$char_traits@D@std@@@std@@@std@@QEBAHXZ
; public: int __cdecl std::time_get<unsigned short,class std::istreambuf_iterator<unsigned short,struct std::char_traits<unsigned short> > >::date_order(void)const  __ptr64
?date_order@?$time_get@GV?$istreambuf_iterator@GU?$char_traits@G@std@@@std@@@std@@QEBAHXZ
; public: char __cdecl std::_Mpunct<char>::decimal_point(void)const  __ptr64
?decimal_point@?$_Mpunct@D@std@@QEBADXZ
; public: unsigned short __cdecl std::_Mpunct<unsigned short>::decimal_point(void)const  __ptr64
?decimal_point@?$_Mpunct@G@std@@QEBAGXZ
; public: char __cdecl std::numpunct<char>::decimal_point(void)const  __ptr64
?decimal_point@?$numpunct@D@std@@QEBADXZ
; public: unsigned short __cdecl std::numpunct<unsigned short>::decimal_point(void)const  __ptr64
?decimal_point@?$numpunct@G@std@@QEBAGXZ
; public: static signed char __cdecl std::numeric_limits<signed char>::denorm_min(void)
?denorm_min@?$numeric_limits@C@std@@SACXZ
; public: static char __cdecl std::numeric_limits<char>::denorm_min(void)
?denorm_min@?$numeric_limits@D@std@@SADXZ
; public: static unsigned char __cdecl std::numeric_limits<unsigned char>::denorm_min(void)
?denorm_min@?$numeric_limits@E@std@@SAEXZ
; public: static short __cdecl std::numeric_limits<short>::denorm_min(void)
?denorm_min@?$numeric_limits@F@std@@SAFXZ
; public: static unsigned short __cdecl std::numeric_limits<unsigned short>::denorm_min(void)
?denorm_min@?$numeric_limits@G@std@@SAGXZ
; public: static int __cdecl std::numeric_limits<int>::denorm_min(void)
?denorm_min@?$numeric_limits@H@std@@SAHXZ
; public: static unsigned int __cdecl std::numeric_limits<unsigned int>::denorm_min(void)
?denorm_min@?$numeric_limits@I@std@@SAIXZ
; public: static long __cdecl std::numeric_limits<long>::denorm_min(void)
?denorm_min@?$numeric_limits@J@std@@SAJXZ
; public: static unsigned long __cdecl std::numeric_limits<unsigned long>::denorm_min(void)
?denorm_min@?$numeric_limits@K@std@@SAKXZ
; public: static float __cdecl std::numeric_limits<float>::denorm_min(void)
?denorm_min@?$numeric_limits@M@std@@SAMXZ
; public: static double __cdecl std::numeric_limits<double>::denorm_min(void)
?denorm_min@?$numeric_limits@N@std@@SANXZ
; public: static long double __cdecl std::numeric_limits<long double>::denorm_min(void)
?denorm_min@?$numeric_limits@O@std@@SAOXZ
; public: static bool __cdecl std::numeric_limits<bool>::denorm_min(void)
?denorm_min@?$numeric_limits@_N@std@@SA_NXZ
; protected: virtual bool __cdecl std::codecvt<unsigned short,char,int>::do_always_noconv(void)const  __ptr64
?do_always_noconv@?$codecvt@GDH@std@@MEBA_NXZ
; protected: virtual bool __cdecl std::codecvt_base::do_always_noconv(void)const  __ptr64
?do_always_noconv@codecvt_base@std@@MEBA_NXZ
; protected: virtual void __cdecl std::messages<char>::do_close(int)const  __ptr64
?do_close@?$messages@D@std@@MEBAXH@Z
; protected: virtual void __cdecl std::messages<unsigned short>::do_close(int)const  __ptr64
?do_close@?$messages@G@std@@MEBAXH@Z
; protected: virtual int __cdecl std::collate<char>::do_compare(char const * __ptr64,char const * __ptr64,char const * __ptr64,char const * __ptr64)const  __ptr64
?do_compare@?$collate@D@std@@MEBAHPEBD000@Z
; protected: virtual int __cdecl std::collate<unsigned short>::do_compare(unsigned short const * __ptr64,unsigned short const * __ptr64,unsigned short const * __ptr64,unsigned short const * __ptr64)const  __ptr64
?do_compare@?$collate@G@std@@MEBAHPEBG000@Z
; protected: virtual class std::basic_string<char,struct std::char_traits<char>,class std::allocator<char> >  __cdecl std::_Mpunct<char>::do_curr_symbol(void)const  __ptr64
?do_curr_symbol@?$_Mpunct@D@std@@MEBA?AV?$basic_string@DU?$char_traits@D@std@@V?$allocator@D@2@@2@XZ
; protected: virtual class std::basic_string<unsigned short,struct std::char_traits<unsigned short>,class std::allocator<unsigned short> >  __cdecl std::_Mpunct<unsigned short>::do_curr_symbol(void)const  __ptr64
?do_curr_symbol@?$_Mpunct@G@std@@MEBA?AV?$basic_string@GU?$char_traits@G@std@@V?$allocator@G@2@@2@XZ
; protected: virtual int __cdecl std::time_get<char,class std::istreambuf_iterator<char,struct std::char_traits<char> > >::do_date_order(void)const  __ptr64
?do_date_order@?$time_get@DV?$istreambuf_iterator@DU?$char_traits@D@std@@@std@@@std@@MEBAHXZ
; protected: virtual int __cdecl std::time_get<unsigned short,class std::istreambuf_iterator<unsigned short,struct std::char_traits<unsigned short> > >::do_date_order(void)const  __ptr64
?do_date_order@?$time_get@GV?$istreambuf_iterator@GU?$char_traits@G@std@@@std@@@std@@MEBAHXZ
; protected: virtual char __cdecl std::_Mpunct<char>::do_decimal_point(void)const  __ptr64
?do_decimal_point@?$_Mpunct@D@std@@MEBADXZ
; protected: virtual unsigned short __cdecl std::_Mpunct<unsigned short>::do_decimal_point(void)const  __ptr64
?do_decimal_point@?$_Mpunct@G@std@@MEBAGXZ
; protected: virtual char __cdecl std::numpunct<char>::do_decimal_point(void)const  __ptr64
?do_decimal_point@?$numpunct@D@std@@MEBADXZ
; protected: virtual unsigned short __cdecl std::numpunct<unsigned short>::do_decimal_point(void)const  __ptr64
?do_decimal_point@?$numpunct@G@std@@MEBAGXZ
; protected: virtual int __cdecl std::codecvt<unsigned short,char,int>::do_encoding(void)const  __ptr64
?do_encoding@?$codecvt@GDH@std@@MEBAHXZ
; protected: virtual int __cdecl std::codecvt_base::do_encoding(void)const  __ptr64
?do_encoding@codecvt_base@std@@MEBAHXZ
; protected: virtual class std::basic_string<char,struct std::char_traits<char>,class std::allocator<char> >  __cdecl std::numpunct<char>::do_falsename(void)const  __ptr64
?do_falsename@?$numpunct@D@std@@MEBA?AV?$basic_string@DU?$char_traits@D@std@@V?$allocator@D@2@@2@XZ
; protected: virtual class std::basic_string<unsigned short,struct std::char_traits<unsigned short>,class std::allocator<unsigned short> >  __cdecl std::numpunct<unsigned short>::do_falsename(void)const  __ptr64
?do_falsename@?$numpunct@G@std@@MEBA?AV?$basic_string@GU?$char_traits@G@std@@V?$allocator@G@2@@2@XZ
; protected: virtual int __cdecl std::_Mpunct<char>::do_frac_digits(void)const  __ptr64
?do_frac_digits@?$_Mpunct@D@std@@MEBAHXZ
; protected: virtual int __cdecl std::_Mpunct<unsigned short>::do_frac_digits(void)const  __ptr64
?do_frac_digits@?$_Mpunct@G@std@@MEBAHXZ
; protected: virtual class std::basic_string<char,struct std::char_traits<char>,class std::allocator<char> >  __cdecl std::messages<char>::do_get(int,int,int,class std::basic_string<char,struct std::char_traits<char>,class std::allocator<char> > const & __ptr64)const  __ptr64
?do_get@?$messages@D@std@@MEBA?AV?$basic_string@DU?$char_traits@D@std@@V?$allocator@D@2@@2@HHHAEBV32@@Z
; protected: virtual class std::basic_string<unsigned short,struct std::char_traits<unsigned short>,class std::allocator<unsigned short> >  __cdecl std::messages<unsigned short>::do_get(int,int,int,class std::basic_string<unsigned short,struct std::char_traits<unsigned short>,class std::allocator<unsigned short> > const & __ptr64)const  __ptr64
?do_get@?$messages@G@std@@MEBA?AV?$basic_string@GU?$char_traits@G@std@@V?$allocator@G@2@@2@HHHAEBV32@@Z
; protected: virtual class std::istreambuf_iterator<char,struct std::char_traits<char> >  __cdecl std::money_get<char,class std::istreambuf_iterator<char,struct std::char_traits<char> > >::do_get(class std::istreambuf_iterator<char,struct std::char_traits<char> >,class std::istreambuf_iterator<char,struct std::char_traits<char> >,bool,class std::ios_base & __ptr64,int & __ptr64,long double & __ptr64)const  __ptr64
?do_get@?$money_get@DV?$istreambuf_iterator@DU?$char_traits@D@std@@@std@@@std@@MEBA?AV?$istreambuf_iterator@DU?$char_traits@D@std@@@2@V32@0_NAEAVios_base@2@AEAHAEAO@Z
; protected: virtual class std::istreambuf_iterator<char,struct std::char_traits<char> >  __cdecl std::money_get<char,class std::istreambuf_iterator<char,struct std::char_traits<char> > >::do_get(class std::istreambuf_iterator<char,struct std::char_traits<char> >,class std::istreambuf_iterator<char,struct std::char_traits<char> >,bool,class std::ios_base & __ptr64,int & __ptr64,class std::basic_string<char,struct std::char_traits<char>,class std::allocator<char> > & __ptr64)const  __ptr64
?do_get@?$money_get@DV?$istreambuf_iterator@DU?$char_traits@D@std@@@std@@@std@@MEBA?AV?$istreambuf_iterator@DU?$char_traits@D@std@@@2@V32@0_NAEAVios_base@2@AEAHAEAV?$basic_string@DU?$char_traits@D@std@@V?$allocator@D@2@@2@@Z
; protected: virtual class std::istreambuf_iterator<unsigned short,struct std::char_traits<unsigned short> >  __cdecl std::money_get<unsigned short,class std::istreambuf_iterator<unsigned short,struct std::char_traits<unsigned short> > >::do_get(class std::istreambuf_iterator<unsigned short,struct std::char_traits<unsigned short> >,class std::istreambuf_iterator<unsigned short,struct std::char_traits<unsigned short> >,bool,class std::ios_base & __ptr64,int & __ptr64,long double & __ptr64)const  __ptr64
?do_get@?$money_get@GV?$istreambuf_iterator@GU?$char_traits@G@std@@@std@@@std@@MEBA?AV?$istreambuf_iterator@GU?$char_traits@G@std@@@2@V32@0_NAEAVios_base@2@AEAHAEAO@Z
; protected: virtual class std::istreambuf_iterator<unsigned short,struct std::char_traits<unsigned short> >  __cdecl std::money_get<unsigned short,class std::istreambuf_iterator<unsigned short,struct std::char_traits<unsigned short> > >::do_get(class std::istreambuf_iterator<unsigned short,struct std::char_traits<unsigned short> >,class std::istreambuf_iterator<unsigned short,struct std::char_traits<unsigned short> >,bool,class std::ios_base & __ptr64,int & __ptr64,class std::basic_string<unsigned short,struct std::char_traits<unsigned short>,class std::allocator<unsigned short> > & __ptr64)const  __ptr64
?do_get@?$money_get@GV?$istreambuf_iterator@GU?$char_traits@G@std@@@std@@@std@@MEBA?AV?$istreambuf_iterator@GU?$char_traits@G@std@@@2@V32@0_NAEAVios_base@2@AEAHAEAV?$basic_string@GU?$char_traits@G@std@@V?$allocator@G@2@@2@@Z
; protected: virtual class std::istreambuf_iterator<char,struct std::char_traits<char> >  __cdecl std::num_get<char,class std::istreambuf_iterator<char,struct std::char_traits<char> > >::do_get(class std::istreambuf_iterator<char,struct std::char_traits<char> >,class std::istreambuf_iterator<char,struct std::char_traits<char> >,class std::ios_base & __ptr64,int & __ptr64,unsigned short & __ptr64)const  __ptr64
?do_get@?$num_get@DV?$istreambuf_iterator@DU?$char_traits@D@std@@@std@@@std@@MEBA?AV?$istreambuf_iterator@DU?$char_traits@D@std@@@2@V32@0AEAVios_base@2@AEAHAEAG@Z
; protected: virtual class std::istreambuf_iterator<char,struct std::char_traits<char> >  __cdecl std::num_get<char,class std::istreambuf_iterator<char,struct std::char_traits<char> > >::do_get(class std::istreambuf_iterator<char,struct std::char_traits<char> >,class std::istreambuf_iterator<char,struct std::char_traits<char> >,class std::ios_base & __ptr64,int & __ptr64,unsigned int & __ptr64)const  __ptr64
?do_get@?$num_get@DV?$istreambuf_iterator@DU?$char_traits@D@std@@@std@@@std@@MEBA?AV?$istreambuf_iterator@DU?$char_traits@D@std@@@2@V32@0AEAVios_base@2@AEAHAEAI@Z
; protected: virtual class std::istreambuf_iterator<char,struct std::char_traits<char> >  __cdecl std::num_get<char,class std::istreambuf_iterator<char,struct std::char_traits<char> > >::do_get(class std::istreambuf_iterator<char,struct std::char_traits<char> >,class std::istreambuf_iterator<char,struct std::char_traits<char> >,class std::ios_base & __ptr64,int & __ptr64,long & __ptr64)const  __ptr64
?do_get@?$num_get@DV?$istreambuf_iterator@DU?$char_traits@D@std@@@std@@@std@@MEBA?AV?$istreambuf_iterator@DU?$char_traits@D@std@@@2@V32@0AEAVios_base@2@AEAHAEAJ@Z
; protected: virtual class std::istreambuf_iterator<char,struct std::char_traits<char> >  __cdecl std::num_get<char,class std::istreambuf_iterator<char,struct std::char_traits<char> > >::do_get(class std::istreambuf_iterator<char,struct std::char_traits<char> >,class std::istreambuf_iterator<char,struct std::char_traits<char> >,class std::ios_base & __ptr64,int & __ptr64,unsigned long & __ptr64)const  __ptr64
?do_get@?$num_get@DV?$istreambuf_iterator@DU?$char_traits@D@std@@@std@@@std@@MEBA?AV?$istreambuf_iterator@DU?$char_traits@D@std@@@2@V32@0AEAVios_base@2@AEAHAEAK@Z
; protected: virtual class std::istreambuf_iterator<char,struct std::char_traits<char> >  __cdecl std::num_get<char,class std::istreambuf_iterator<char,struct std::char_traits<char> > >::do_get(class std::istreambuf_iterator<char,struct std::char_traits<char> >,class std::istreambuf_iterator<char,struct std::char_traits<char> >,class std::ios_base & __ptr64,int & __ptr64,float & __ptr64)const  __ptr64
?do_get@?$num_get@DV?$istreambuf_iterator@DU?$char_traits@D@std@@@std@@@std@@MEBA?AV?$istreambuf_iterator@DU?$char_traits@D@std@@@2@V32@0AEAVios_base@2@AEAHAEAM@Z
; protected: virtual class std::istreambuf_iterator<char,struct std::char_traits<char> >  __cdecl std::num_get<char,class std::istreambuf_iterator<char,struct std::char_traits<char> > >::do_get(class std::istreambuf_iterator<char,struct std::char_traits<char> >,class std::istreambuf_iterator<char,struct std::char_traits<char> >,class std::ios_base & __ptr64,int & __ptr64,double & __ptr64)const  __ptr64
?do_get@?$num_get@DV?$istreambuf_iterator@DU?$char_traits@D@std@@@std@@@std@@MEBA?AV?$istreambuf_iterator@DU?$char_traits@D@std@@@2@V32@0AEAVios_base@2@AEAHAEAN@Z
; protected: virtual class std::istreambuf_iterator<char,struct std::char_traits<char> >  __cdecl std::num_get<char,class std::istreambuf_iterator<char,struct std::char_traits<char> > >::do_get(class std::istreambuf_iterator<char,struct std::char_traits<char> >,class std::istreambuf_iterator<char,struct std::char_traits<char> >,class std::ios_base & __ptr64,int & __ptr64,long double & __ptr64)const  __ptr64
?do_get@?$num_get@DV?$istreambuf_iterator@DU?$char_traits@D@std@@@std@@@std@@MEBA?AV?$istreambuf_iterator@DU?$char_traits@D@std@@@2@V32@0AEAVios_base@2@AEAHAEAO@Z
; protected: virtual class std::istreambuf_iterator<char,struct std::char_traits<char> >  __cdecl std::num_get<char,class std::istreambuf_iterator<char,struct std::char_traits<char> > >::do_get(class std::istreambuf_iterator<char,struct std::char_traits<char> >,class std::istreambuf_iterator<char,struct std::char_traits<char> >,class std::ios_base & __ptr64,int & __ptr64,void * __ptr64 & __ptr64)const  __ptr64
?do_get@?$num_get@DV?$istreambuf_iterator@DU?$char_traits@D@std@@@std@@@std@@MEBA?AV?$istreambuf_iterator@DU?$char_traits@D@std@@@2@V32@0AEAVios_base@2@AEAHAEAPEAX@Z
; protected: virtual class std::istreambuf_iterator<char,struct std::char_traits<char> >  __cdecl std::num_get<char,class std::istreambuf_iterator<char,struct std::char_traits<char> > >::do_get(class std::istreambuf_iterator<char,struct std::char_traits<char> >,class std::istreambuf_iterator<char,struct std::char_traits<char> >,class std::ios_base & __ptr64,int & __ptr64,__int64 & __ptr64)const  __ptr64
?do_get@?$num_get@DV?$istreambuf_iterator@DU?$char_traits@D@std@@@std@@@std@@MEBA?AV?$istreambuf_iterator@DU?$char_traits@D@std@@@2@V32@0AEAVios_base@2@AEAHAEA_J@Z
; protected: virtual class std::istreambuf_iterator<char,struct std::char_traits<char> >  __cdecl std::num_get<char,class std::istreambuf_iterator<char,struct std::char_traits<char> > >::do_get(class std::istreambuf_iterator<char,struct std::char_traits<char> >,class std::istreambuf_iterator<char,struct std::char_traits<char> >,class std::ios_base & __ptr64,int & __ptr64,unsigned __int64 & __ptr64)const  __ptr64
?do_get@?$num_get@DV?$istreambuf_iterator@DU?$char_traits@D@std@@@std@@@std@@MEBA?AV?$istreambuf_iterator@DU?$char_traits@D@std@@@2@V32@0AEAVios_base@2@AEAHAEA_K@Z
; protected: virtual class std::istreambuf_iterator<char,struct std::char_traits<char> >  __cdecl std::num_get<char,class std::istreambuf_iterator<char,struct std::char_traits<char> > >::do_get(class std::istreambuf_iterator<char,struct std::char_traits<char> >,class std::istreambuf_iterator<char,struct std::char_traits<char> >,class std::ios_base & __ptr64,int & __ptr64,bool & __ptr64)const  __ptr64
?do_get@?$num_get@DV?$istreambuf_iterator@DU?$char_traits@D@std@@@std@@@std@@MEBA?AV?$istreambuf_iterator@DU?$char_traits@D@std@@@2@V32@0AEAVios_base@2@AEAHAEA_N@Z
; protected: virtual class std::istreambuf_iterator<unsigned short,struct std::char_traits<unsigned short> >  __cdecl std::num_get<unsigned short,class std::istreambuf_iterator<unsigned short,struct std::char_traits<unsigned short> > >::do_get(class std::istreambuf_iterator<unsigned short,struct std::char_traits<unsigned short> >,class std::istreambuf_iterator<unsigned short,struct std::char_traits<unsigned short> >,class std::ios_base & __ptr64,int & __ptr64,unsigned short & __ptr64)const  __ptr64
?do_get@?$num_get@GV?$istreambuf_iterator@GU?$char_traits@G@std@@@std@@@std@@MEBA?AV?$istreambuf_iterator@GU?$char_traits@G@std@@@2@V32@0AEAVios_base@2@AEAHAEAG@Z
; protected: virtual class std::istreambuf_iterator<unsigned short,struct std::char_traits<unsigned short> >  __cdecl std::num_get<unsigned short,class std::istreambuf_iterator<unsigned short,struct std::char_traits<unsigned short> > >::do_get(class std::istreambuf_iterator<unsigned short,struct std::char_traits<unsigned short> >,class std::istreambuf_iterator<unsigned short,struct std::char_traits<unsigned short> >,class std::ios_base & __ptr64,int & __ptr64,unsigned int & __ptr64)const  __ptr64
?do_get@?$num_get@GV?$istreambuf_iterator@GU?$char_traits@G@std@@@std@@@std@@MEBA?AV?$istreambuf_iterator@GU?$char_traits@G@std@@@2@V32@0AEAVios_base@2@AEAHAEAI@Z
; protected: virtual class std::istreambuf_iterator<unsigned short,struct std::char_traits<unsigned short> >  __cdecl std::num_get<unsigned short,class std::istreambuf_iterator<unsigned short,struct std::char_traits<unsigned short> > >::do_get(class std::istreambuf_iterator<unsigned short,struct std::char_traits<unsigned short> >,class std::istreambuf_iterator<unsigned short,struct std::char_traits<unsigned short> >,class std::ios_base & __ptr64,int & __ptr64,long & __ptr64)const  __ptr64
?do_get@?$num_get@GV?$istreambuf_iterator@GU?$char_traits@G@std@@@std@@@std@@MEBA?AV?$istreambuf_iterator@GU?$char_traits@G@std@@@2@V32@0AEAVios_base@2@AEAHAEAJ@Z
; protected: virtual class std::istreambuf_iterator<unsigned short,struct std::char_traits<unsigned short> >  __cdecl std::num_get<unsigned short,class std::istreambuf_iterator<unsigned short,struct std::char_traits<unsigned short> > >::do_get(class std::istreambuf_iterator<unsigned short,struct std::char_traits<unsigned short> >,class std::istreambuf_iterator<unsigned short,struct std::char_traits<unsigned short> >,class std::ios_base & __ptr64,int & __ptr64,unsigned long & __ptr64)const  __ptr64
?do_get@?$num_get@GV?$istreambuf_iterator@GU?$char_traits@G@std@@@std@@@std@@MEBA?AV?$istreambuf_iterator@GU?$char_traits@G@std@@@2@V32@0AEAVios_base@2@AEAHAEAK@Z
; protected: virtual class std::istreambuf_iterator<unsigned short,struct std::char_traits<unsigned short> >  __cdecl std::num_get<unsigned short,class std::istreambuf_iterator<unsigned short,struct std::char_traits<unsigned short> > >::do_get(class std::istreambuf_iterator<unsigned short,struct std::char_traits<unsigned short> >,class std::istreambuf_iterator<unsigned short,struct std::char_traits<unsigned short> >,class std::ios_base & __ptr64,int & __ptr64,float & __ptr64)const  __ptr64
?do_get@?$num_get@GV?$istreambuf_iterator@GU?$char_traits@G@std@@@std@@@std@@MEBA?AV?$istreambuf_iterator@GU?$char_traits@G@std@@@2@V32@0AEAVios_base@2@AEAHAEAM@Z
; protected: virtual class std::istreambuf_iterator<unsigned short,struct std::char_traits<unsigned short> >  __cdecl std::num_get<unsigned short,class std::istreambuf_iterator<unsigned short,struct std::char_traits<unsigned short> > >::do_get(class std::istreambuf_iterator<unsigned short,struct std::char_traits<unsigned short> >,class std::istreambuf_iterator<unsigned short,struct std::char_traits<unsigned short> >,class std::ios_base & __ptr64,int & __ptr64,double & __ptr64)const  __ptr64
?do_get@?$num_get@GV?$istreambuf_iterator@GU?$char_traits@G@std@@@std@@@std@@MEBA?AV?$istreambuf_iterator@GU?$char_traits@G@std@@@2@V32@0AEAVios_base@2@AEAHAEAN@Z
; protected: virtual class std::istreambuf_iterator<unsigned short,struct std::char_traits<unsigned short> >  __cdecl std::num_get<unsigned short,class std::istreambuf_iterator<unsigned short,struct std::char_traits<unsigned short> > >::do_get(class std::istreambuf_iterator<unsigned short,struct std::char_traits<unsigned short> >,class std::istreambuf_iterator<unsigned short,struct std::char_traits<unsigned short> >,class std::ios_base & __ptr64,int & __ptr64,long double & __ptr64)const  __ptr64
?do_get@?$num_get@GV?$istreambuf_iterator@GU?$char_traits@G@std@@@std@@@std@@MEBA?AV?$istreambuf_iterator@GU?$char_traits@G@std@@@2@V32@0AEAVios_base@2@AEAHAEAO@Z
; protected: virtual class std::istreambuf_iterator<unsigned short,struct std::char_traits<unsigned short> >  __cdecl std::num_get<unsigned short,class std::istreambuf_iterator<unsigned short,struct std::char_traits<unsigned short> > >::do_get(class std::istreambuf_iterator<unsigned short,struct std::char_traits<unsigned short> >,class std::istreambuf_iterator<unsigned short,struct std::char_traits<unsigned short> >,class std::ios_base & __ptr64,int & __ptr64,void * __ptr64 & __ptr64)const  __ptr64
?do_get@?$num_get@GV?$istreambuf_iterator@GU?$char_traits@G@std@@@std@@@std@@MEBA?AV?$istreambuf_iterator@GU?$char_traits@G@std@@@2@V32@0AEAVios_base@2@AEAHAEAPEAX@Z
; protected: virtual class std::istreambuf_iterator<unsigned short,struct std::char_traits<unsigned short> >  __cdecl std::num_get<unsigned short,class std::istreambuf_iterator<unsigned short,struct std::char_traits<unsigned short> > >::do_get(class std::istreambuf_iterator<unsigned short,struct std::char_traits<unsigned short> >,class std::istreambuf_iterator<unsigned short,struct std::char_traits<unsigned short> >,class std::ios_base & __ptr64,int & __ptr64,__int64 & __ptr64)const  __ptr64
?do_get@?$num_get@GV?$istreambuf_iterator@GU?$char_traits@G@std@@@std@@@std@@MEBA?AV?$istreambuf_iterator@GU?$char_traits@G@std@@@2@V32@0AEAVios_base@2@AEAHAEA_J@Z
; protected: virtual class std::istreambuf_iterator<unsigned short,struct std::char_traits<unsigned short> >  __cdecl std::num_get<unsigned short,class std::istreambuf_iterator<unsigned short,struct std::char_traits<unsigned short> > >::do_get(class std::istreambuf_iterator<unsigned short,struct std::char_traits<unsigned short> >,class std::istreambuf_iterator<unsigned short,struct std::char_traits<unsigned short> >,class std::ios_base & __ptr64,int & __ptr64,unsigned __int64 & __ptr64)const  __ptr64
?do_get@?$num_get@GV?$istreambuf_iterator@GU?$char_traits@G@std@@@std@@@std@@MEBA?AV?$istreambuf_iterator@GU?$char_traits@G@std@@@2@V32@0AEAVios_base@2@AEAHAEA_K@Z
; protected: virtual class std::istreambuf_iterator<unsigned short,struct std::char_traits<unsigned short> >  __cdecl std::num_get<unsigned short,class std::istreambuf_iterator<unsigned short,struct std::char_traits<unsigned short> > >::do_get(class std::istreambuf_iterator<unsigned short,struct std::char_traits<unsigned short> >,class std::istreambuf_iterator<unsigned short,struct std::char_traits<unsigned short> >,class std::ios_base & __ptr64,int & __ptr64,bool & __ptr64)const  __ptr64
?do_get@?$num_get@GV?$istreambuf_iterator@GU?$char_traits@G@std@@@std@@@std@@MEBA?AV?$istreambuf_iterator@GU?$char_traits@G@std@@@2@V32@0AEAVios_base@2@AEAHAEA_N@Z
; protected: virtual class std::istreambuf_iterator<char,struct std::char_traits<char> >  __cdecl std::time_get<char,class std::istreambuf_iterator<char,struct std::char_traits<char> > >::do_get_date(class std::istreambuf_iterator<char,struct std::char_traits<char> >,class std::istreambuf_iterator<char,struct std::char_traits<char> >,class std::ios_base & __ptr64,int & __ptr64,struct tm * __ptr64)const  __ptr64
?do_get_date@?$time_get@DV?$istreambuf_iterator@DU?$char_traits@D@std@@@std@@@std@@MEBA?AV?$istreambuf_iterator@DU?$char_traits@D@std@@@2@V32@0AEAVios_base@2@AEAHPEAUtm@@@Z
; protected: virtual class std::istreambuf_iterator<unsigned short,struct std::char_traits<unsigned short> >  __cdecl std::time_get<unsigned short,class std::istreambuf_iterator<unsigned short,struct std::char_traits<unsigned short> > >::do_get_date(class std::istreambuf_iterator<unsigned short,struct std::char_traits<unsigned short> >,class std::istreambuf_iterator<unsigned short,struct std::char_traits<unsigned short> >,class std::ios_base & __ptr64,int & __ptr64,struct tm * __ptr64)const  __ptr64
?do_get_date@?$time_get@GV?$istreambuf_iterator@GU?$char_traits@G@std@@@std@@@std@@MEBA?AV?$istreambuf_iterator@GU?$char_traits@G@std@@@2@V32@0AEAVios_base@2@AEAHPEAUtm@@@Z
; protected: virtual class std::istreambuf_iterator<char,struct std::char_traits<char> >  __cdecl std::time_get<char,class std::istreambuf_iterator<char,struct std::char_traits<char> > >::do_get_monthname(class std::istreambuf_iterator<char,struct std::char_traits<char> >,class std::istreambuf_iterator<char,struct std::char_traits<char> >,class std::ios_base & __ptr64,int & __ptr64,struct tm * __ptr64)const  __ptr64
?do_get_monthname@?$time_get@DV?$istreambuf_iterator@DU?$char_traits@D@std@@@std@@@std@@MEBA?AV?$istreambuf_iterator@DU?$char_traits@D@std@@@2@V32@0AEAVios_base@2@AEAHPEAUtm@@@Z
; protected: virtual class std::istreambuf_iterator<unsigned short,struct std::char_traits<unsigned short> >  __cdecl std::time_get<unsigned short,class std::istreambuf_iterator<unsigned short,struct std::char_traits<unsigned short> > >::do_get_monthname(class std::istreambuf_iterator<unsigned short,struct std::char_traits<unsigned short> >,class std::istreambuf_iterator<unsigned short,struct std::char_traits<unsigned short> >,class std::ios_base & __ptr64,int & __ptr64,struct tm * __ptr64)const  __ptr64
?do_get_monthname@?$time_get@GV?$istreambuf_iterator@GU?$char_traits@G@std@@@std@@@std@@MEBA?AV?$istreambuf_iterator@GU?$char_traits@G@std@@@2@V32@0AEAVios_base@2@AEAHPEAUtm@@@Z
; protected: virtual class std::istreambuf_iterator<char,struct std::char_traits<char> >  __cdecl std::time_get<char,class std::istreambuf_iterator<char,struct std::char_traits<char> > >::do_get_time(class std::istreambuf_iterator<char,struct std::char_traits<char> >,class std::istreambuf_iterator<char,struct std::char_traits<char> >,class std::ios_base & __ptr64,int & __ptr64,struct tm * __ptr64)const  __ptr64
?do_get_time@?$time_get@DV?$istreambuf_iterator@DU?$char_traits@D@std@@@std@@@std@@MEBA?AV?$istreambuf_iterator@DU?$char_traits@D@std@@@2@V32@0AEAVios_base@2@AEAHPEAUtm@@@Z
; protected: virtual class std::istreambuf_iterator<unsigned short,struct std::char_traits<unsigned short> >  __cdecl std::time_get<unsigned short,class std::istreambuf_iterator<unsigned short,struct std::char_traits<unsigned short> > >::do_get_time(class std::istreambuf_iterator<unsigned short,struct std::char_traits<unsigned short> >,class std::istreambuf_iterator<unsigned short,struct std::char_traits<unsigned short> >,class std::ios_base & __ptr64,int & __ptr64,struct tm * __ptr64)const  __ptr64
?do_get_time@?$time_get@GV?$istreambuf_iterator@GU?$char_traits@G@std@@@std@@@std@@MEBA?AV?$istreambuf_iterator@GU?$char_traits@G@std@@@2@V32@0AEAVios_base@2@AEAHPEAUtm@@@Z
; protected: virtual class std::istreambuf_iterator<char,struct std::char_traits<char> >  __cdecl std::time_get<char,class std::istreambuf_iterator<char,struct std::char_traits<char> > >::do_get_weekday(class std::istreambuf_iterator<char,struct std::char_traits<char> >,class std::istreambuf_iterator<char,struct std::char_traits<char> >,class std::ios_base & __ptr64,int & __ptr64,struct tm * __ptr64)const  __ptr64
?do_get_weekday@?$time_get@DV?$istreambuf_iterator@DU?$char_traits@D@std@@@std@@@std@@MEBA?AV?$istreambuf_iterator@DU?$char_traits@D@std@@@2@V32@0AEAVios_base@2@AEAHPEAUtm@@@Z
; protected: virtual class std::istreambuf_iterator<unsigned short,struct std::char_traits<unsigned short> >  __cdecl std::time_get<unsigned short,class std::istreambuf_iterator<unsigned short,struct std::char_traits<unsigned short> > >::do_get_weekday(class std::istreambuf_iterator<unsigned short,struct std::char_traits<unsigned short> >,class std::istreambuf_iterator<unsigned short,struct std::char_traits<unsigned short> >,class std::ios_base & __ptr64,int & __ptr64,struct tm * __ptr64)const  __ptr64
?do_get_weekday@?$time_get@GV?$istreambuf_iterator@GU?$char_traits@G@std@@@std@@@std@@MEBA?AV?$istreambuf_iterator@GU?$char_traits@G@std@@@2@V32@0AEAVios_base@2@AEAHPEAUtm@@@Z
; protected: virtual class std::istreambuf_iterator<char,struct std::char_traits<char> >  __cdecl std::time_get<char,class std::istreambuf_iterator<char,struct std::char_traits<char> > >::do_get_year(class std::istreambuf_iterator<char,struct std::char_traits<char> >,class std::istreambuf_iterator<char,struct std::char_traits<char> >,class std::ios_base & __ptr64,int & __ptr64,struct tm * __ptr64)const  __ptr64
?do_get_year@?$time_get@DV?$istreambuf_iterator@DU?$char_traits@D@std@@@std@@@std@@MEBA?AV?$istreambuf_iterator@DU?$char_traits@D@std@@@2@V32@0AEAVios_base@2@AEAHPEAUtm@@@Z
; protected: virtual class std::istreambuf_iterator<unsigned short,struct std::char_traits<unsigned short> >  __cdecl std::time_get<unsigned short,class std::istreambuf_iterator<unsigned short,struct std::char_traits<unsigned short> > >::do_get_year(class std::istreambuf_iterator<unsigned short,struct std::char_traits<unsigned short> >,class std::istreambuf_iterator<unsigned short,struct std::char_traits<unsigned short> >,class std::ios_base & __ptr64,int & __ptr64,struct tm * __ptr64)const  __ptr64
?do_get_year@?$time_get@GV?$istreambuf_iterator@GU?$char_traits@G@std@@@std@@@std@@MEBA?AV?$istreambuf_iterator@GU?$char_traits@G@std@@@2@V32@0AEAVios_base@2@AEAHPEAUtm@@@Z
; protected: virtual class std::basic_string<char,struct std::char_traits<char>,class std::allocator<char> >  __cdecl std::_Mpunct<char>::do_grouping(void)const  __ptr64
?do_grouping@?$_Mpunct@D@std@@MEBA?AV?$basic_string@DU?$char_traits@D@std@@V?$allocator@D@2@@2@XZ
; protected: virtual class std::basic_string<char,struct std::char_traits<char>,class std::allocator<char> >  __cdecl std::_Mpunct<unsigned short>::do_grouping(void)const  __ptr64
?do_grouping@?$_Mpunct@G@std@@MEBA?AV?$basic_string@DU?$char_traits@D@std@@V?$allocator@D@2@@2@XZ
; protected: virtual class std::basic_string<char,struct std::char_traits<char>,class std::allocator<char> >  __cdecl std::numpunct<char>::do_grouping(void)const  __ptr64
?do_grouping@?$numpunct@D@std@@MEBA?AV?$basic_string@DU?$char_traits@D@std@@V?$allocator@D@2@@2@XZ
; protected: virtual class std::basic_string<char,struct std::char_traits<char>,class std::allocator<char> >  __cdecl std::numpunct<unsigned short>::do_grouping(void)const  __ptr64
?do_grouping@?$numpunct@G@std@@MEBA?AV?$basic_string@DU?$char_traits@D@std@@V?$allocator@D@2@@2@XZ
; protected: virtual long __cdecl std::collate<char>::do_hash(char const * __ptr64,char const * __ptr64)const  __ptr64
?do_hash@?$collate@D@std@@MEBAJPEBD0@Z
; protected: virtual long __cdecl std::collate<unsigned short>::do_hash(unsigned short const * __ptr64,unsigned short const * __ptr64)const  __ptr64
?do_hash@?$collate@G@std@@MEBAJPEBG0@Z
; protected: virtual int __cdecl std::codecvt<char,char,int>::do_in(int & __ptr64,char const * __ptr64,char const * __ptr64,char const * __ptr64 & __ptr64,char * __ptr64,char * __ptr64,char * __ptr64 & __ptr64)const  __ptr64
?do_in@?$codecvt@DDH@std@@MEBAHAEAHPEBD1AEAPEBDPEAD3AEAPEAD@Z
; protected: virtual int __cdecl std::codecvt<unsigned short,char,int>::do_in(int & __ptr64,char const * __ptr64,char const * __ptr64,char const * __ptr64 & __ptr64,unsigned short * __ptr64,unsigned short * __ptr64,unsigned short * __ptr64 & __ptr64)const  __ptr64
?do_in@?$codecvt@GDH@std@@MEBAHAEAHPEBD1AEAPEBDPEAG3AEAPEAG@Z
; protected: virtual unsigned short const * __ptr64 __cdecl std::ctype<unsigned short>::do_is(unsigned short const * __ptr64,unsigned short const * __ptr64,short * __ptr64)const  __ptr64
?do_is@?$ctype@G@std@@MEBAPEBGPEBG0PEAF@Z
; protected: virtual bool __cdecl std::ctype<unsigned short>::do_is(short,unsigned short)const  __ptr64
?do_is@?$ctype@G@std@@MEBA_NFG@Z
; protected: virtual int __cdecl std::codecvt<char,char,int>::do_length(int & __ptr64,char const * __ptr64,char const * __ptr64,unsigned __int64)const  __ptr64
?do_length@?$codecvt@DDH@std@@MEBAHAEAHPEBD1_K@Z
; protected: virtual int __cdecl std::codecvt<unsigned short,char,int>::do_length(int & __ptr64,unsigned short const * __ptr64,unsigned short const * __ptr64,unsigned __int64)const  __ptr64
?do_length@?$codecvt@GDH@std@@MEBAHAEAHPEBG1_K@Z
; protected: virtual int __cdecl std::codecvt<unsigned short,char,int>::do_max_length(void)const  __ptr64
?do_max_length@?$codecvt@GDH@std@@MEBAHXZ
; protected: virtual int __cdecl std::codecvt_base::do_max_length(void)const  __ptr64
?do_max_length@codecvt_base@std@@MEBAHXZ
; protected: virtual char __cdecl std::ctype<unsigned short>::do_narrow(unsigned short,char)const  __ptr64
?do_narrow@?$ctype@G@std@@MEBADGD@Z
; protected: virtual unsigned short const * __ptr64 __cdecl std::ctype<unsigned short>::do_narrow(unsigned short const * __ptr64,unsigned short const * __ptr64,char,char * __ptr64)const  __ptr64
?do_narrow@?$ctype@G@std@@MEBAPEBGPEBG0DPEAD@Z
; protected: virtual struct std::money_base::pattern  __cdecl std::_Mpunct<char>::do_neg_format(void)const  __ptr64
?do_neg_format@?$_Mpunct@D@std@@MEBA?AUpattern@money_base@2@XZ
; protected: virtual struct std::money_base::pattern  __cdecl std::_Mpunct<unsigned short>::do_neg_format(void)const  __ptr64
?do_neg_format@?$_Mpunct@G@std@@MEBA?AUpattern@money_base@2@XZ
; protected: virtual class std::basic_string<char,struct std::char_traits<char>,class std::allocator<char> >  __cdecl std::_Mpunct<char>::do_negative_sign(void)const  __ptr64
?do_negative_sign@?$_Mpunct@D@std@@MEBA?AV?$basic_string@DU?$char_traits@D@std@@V?$allocator@D@2@@2@XZ
; protected: virtual class std::basic_string<unsigned short,struct std::char_traits<unsigned short>,class std::allocator<unsigned short> >  __cdecl std::_Mpunct<unsigned short>::do_negative_sign(void)const  __ptr64
?do_negative_sign@?$_Mpunct@G@std@@MEBA?AV?$basic_string@GU?$char_traits@G@std@@V?$allocator@G@2@@2@XZ
; protected: virtual int __cdecl std::messages<char>::do_open(class std::basic_string<char,struct std::char_traits<char>,class std::allocator<char> > const & __ptr64,class std::locale const & __ptr64)const  __ptr64
?do_open@?$messages@D@std@@MEBAHAEBV?$basic_string@DU?$char_traits@D@std@@V?$allocator@D@2@@2@AEBVlocale@2@@Z
; protected: virtual int __cdecl std::messages<unsigned short>::do_open(class std::basic_string<char,struct std::char_traits<char>,class std::allocator<char> > const & __ptr64,class std::locale const & __ptr64)const  __ptr64
?do_open@?$messages@G@std@@MEBAHAEBV?$basic_string@DU?$char_traits@D@std@@V?$allocator@D@2@@2@AEBVlocale@2@@Z
; protected: virtual int __cdecl std::codecvt<char,char,int>::do_out(int & __ptr64,char const * __ptr64,char const * __ptr64,char const * __ptr64 & __ptr64,char * __ptr64,char * __ptr64,char * __ptr64 & __ptr64)const  __ptr64
?do_out@?$codecvt@DDH@std@@MEBAHAEAHPEBD1AEAPEBDPEAD3AEAPEAD@Z
; protected: virtual int __cdecl std::codecvt<unsigned short,char,int>::do_out(int & __ptr64,unsigned short const * __ptr64,unsigned short const * __ptr64,unsigned short const * __ptr64 & __ptr64,char * __ptr64,char * __ptr64,char * __ptr64 & __ptr64)const  __ptr64
?do_out@?$codecvt@GDH@std@@MEBAHAEAHPEBG1AEAPEBGPEAD3AEAPEAD@Z
; protected: virtual struct std::money_base::pattern  __cdecl std::_Mpunct<char>::do_pos_format(void)const  __ptr64
?do_pos_format@?$_Mpunct@D@std@@MEBA?AUpattern@money_base@2@XZ
; protected: virtual struct std::money_base::pattern  __cdecl std::_Mpunct<unsigned short>::do_pos_format(void)const  __ptr64
?do_pos_format@?$_Mpunct@G@std@@MEBA?AUpattern@money_base@2@XZ
; protected: virtual class std::basic_string<char,struct std::char_traits<char>,class std::allocator<char> >  __cdecl std::_Mpunct<char>::do_positive_sign(void)const  __ptr64
?do_positive_sign@?$_Mpunct@D@std@@MEBA?AV?$basic_string@DU?$char_traits@D@std@@V?$allocator@D@2@@2@XZ
; protected: virtual class std::basic_string<unsigned short,struct std::char_traits<unsigned short>,class std::allocator<unsigned short> >  __cdecl std::_Mpunct<unsigned short>::do_positive_sign(void)const  __ptr64
?do_positive_sign@?$_Mpunct@G@std@@MEBA?AV?$basic_string@GU?$char_traits@G@std@@V?$allocator@G@2@@2@XZ
; protected: virtual class std::ostreambuf_iterator<char,struct std::char_traits<char> >  __cdecl std::money_put<char,class std::ostreambuf_iterator<char,struct std::char_traits<char> > >::do_put(class std::ostreambuf_iterator<char,struct std::char_traits<char> >,bool,class std::ios_base & __ptr64,char,class std::basic_string<char,struct std::char_traits<char>,class std::allocator<char> > const & __ptr64)const  __ptr64
?do_put@?$money_put@DV?$ostreambuf_iterator@DU?$char_traits@D@std@@@std@@@std@@MEBA?AV?$ostreambuf_iterator@DU?$char_traits@D@std@@@2@V32@_NAEAVios_base@2@DAEBV?$basic_string@DU?$char_traits@D@std@@V?$allocator@D@2@@2@@Z
; protected: virtual class std::ostreambuf_iterator<char,struct std::char_traits<char> >  __cdecl std::money_put<char,class std::ostreambuf_iterator<char,struct std::char_traits<char> > >::do_put(class std::ostreambuf_iterator<char,struct std::char_traits<char> >,bool,class std::ios_base & __ptr64,char,long double)const  __ptr64
?do_put@?$money_put@DV?$ostreambuf_iterator@DU?$char_traits@D@std@@@std@@@std@@MEBA?AV?$ostreambuf_iterator@DU?$char_traits@D@std@@@2@V32@_NAEAVios_base@2@DO@Z
; protected: virtual class std::ostreambuf_iterator<unsigned short,struct std::char_traits<unsigned short> >  __cdecl std::money_put<unsigned short,class std::ostreambuf_iterator<unsigned short,struct std::char_traits<unsigned short> > >::do_put(class std::ostreambuf_iterator<unsigned short,struct std::char_traits<unsigned short> >,bool,class std::ios_base & __ptr64,unsigned short,class std::basic_string<unsigned short,struct std::char_traits<unsigned short>,class std::allocator<unsigned short> > const & __ptr64)const  __ptr64
?do_put@?$money_put@GV?$ostreambuf_iterator@GU?$char_traits@G@std@@@std@@@std@@MEBA?AV?$ostreambuf_iterator@GU?$char_traits@G@std@@@2@V32@_NAEAVios_base@2@GAEBV?$basic_string@GU?$char_traits@G@std@@V?$allocator@G@2@@2@@Z
; protected: virtual class std::ostreambuf_iterator<unsigned short,struct std::char_traits<unsigned short> >  __cdecl std::money_put<unsigned short,class std::ostreambuf_iterator<unsigned short,struct std::char_traits<unsigned short> > >::do_put(class std::ostreambuf_iterator<unsigned short,struct std::char_traits<unsigned short> >,bool,class std::ios_base & __ptr64,unsigned short,long double)const  __ptr64
?do_put@?$money_put@GV?$ostreambuf_iterator@GU?$char_traits@G@std@@@std@@@std@@MEBA?AV?$ostreambuf_iterator@GU?$char_traits@G@std@@@2@V32@_NAEAVios_base@2@GO@Z
; protected: virtual class std::ostreambuf_iterator<char,struct std::char_traits<char> >  __cdecl std::num_put<char,class std::ostreambuf_iterator<char,struct std::char_traits<char> > >::do_put(class std::ostreambuf_iterator<char,struct std::char_traits<char> >,class std::ios_base & __ptr64,char,long)const  __ptr64
?do_put@?$num_put@DV?$ostreambuf_iterator@DU?$char_traits@D@std@@@std@@@std@@MEBA?AV?$ostreambuf_iterator@DU?$char_traits@D@std@@@2@V32@AEAVios_base@2@DJ@Z
; protected: virtual class std::ostreambuf_iterator<char,struct std::char_traits<char> >  __cdecl std::num_put<char,class std::ostreambuf_iterator<char,struct std::char_traits<char> > >::do_put(class std::ostreambuf_iterator<char,struct std::char_traits<char> >,class std::ios_base & __ptr64,char,unsigned long)const  __ptr64
?do_put@?$num_put@DV?$ostreambuf_iterator@DU?$char_traits@D@std@@@std@@@std@@MEBA?AV?$ostreambuf_iterator@DU?$char_traits@D@std@@@2@V32@AEAVios_base@2@DK@Z
; protected: virtual class std::ostreambuf_iterator<char,struct std::char_traits<char> >  __cdecl std::num_put<char,class std::ostreambuf_iterator<char,struct std::char_traits<char> > >::do_put(class std::ostreambuf_iterator<char,struct std::char_traits<char> >,class std::ios_base & __ptr64,char,double)const  __ptr64
?do_put@?$num_put@DV?$ostreambuf_iterator@DU?$char_traits@D@std@@@std@@@std@@MEBA?AV?$ostreambuf_iterator@DU?$char_traits@D@std@@@2@V32@AEAVios_base@2@DN@Z
; protected: virtual class std::ostreambuf_iterator<char,struct std::char_traits<char> >  __cdecl std::num_put<char,class std::ostreambuf_iterator<char,struct std::char_traits<char> > >::do_put(class std::ostreambuf_iterator<char,struct std::char_traits<char> >,class std::ios_base & __ptr64,char,long double)const  __ptr64
?do_put@?$num_put@DV?$ostreambuf_iterator@DU?$char_traits@D@std@@@std@@@std@@MEBA?AV?$ostreambuf_iterator@DU?$char_traits@D@std@@@2@V32@AEAVios_base@2@DO@Z
; protected: virtual class std::ostreambuf_iterator<char,struct std::char_traits<char> >  __cdecl std::num_put<char,class std::ostreambuf_iterator<char,struct std::char_traits<char> > >::do_put(class std::ostreambuf_iterator<char,struct std::char_traits<char> >,class std::ios_base & __ptr64,char,void const * __ptr64)const  __ptr64
?do_put@?$num_put@DV?$ostreambuf_iterator@DU?$char_traits@D@std@@@std@@@std@@MEBA?AV?$ostreambuf_iterator@DU?$char_traits@D@std@@@2@V32@AEAVios_base@2@DPEBX@Z
; protected: virtual class std::ostreambuf_iterator<char,struct std::char_traits<char> >  __cdecl std::num_put<char,class std::ostreambuf_iterator<char,struct std::char_traits<char> > >::do_put(class std::ostreambuf_iterator<char,struct std::char_traits<char> >,class std::ios_base & __ptr64,char,__int64)const  __ptr64
?do_put@?$num_put@DV?$ostreambuf_iterator@DU?$char_traits@D@std@@@std@@@std@@MEBA?AV?$ostreambuf_iterator@DU?$char_traits@D@std@@@2@V32@AEAVios_base@2@D_J@Z
; protected: virtual class std::ostreambuf_iterator<char,struct std::char_traits<char> >  __cdecl std::num_put<char,class std::ostreambuf_iterator<char,struct std::char_traits<char> > >::do_put(class std::ostreambuf_iterator<char,struct std::char_traits<char> >,class std::ios_base & __ptr64,char,unsigned __int64)const  __ptr64
?do_put@?$num_put@DV?$ostreambuf_iterator@DU?$char_traits@D@std@@@std@@@std@@MEBA?AV?$ostreambuf_iterator@DU?$char_traits@D@std@@@2@V32@AEAVios_base@2@D_K@Z
; protected: virtual class std::ostreambuf_iterator<char,struct std::char_traits<char> >  __cdecl std::num_put<char,class std::ostreambuf_iterator<char,struct std::char_traits<char> > >::do_put(class std::ostreambuf_iterator<char,struct std::char_traits<char> >,class std::ios_base & __ptr64,char,bool)const  __ptr64
?do_put@?$num_put@DV?$ostreambuf_iterator@DU?$char_traits@D@std@@@std@@@std@@MEBA?AV?$ostreambuf_iterator@DU?$char_traits@D@std@@@2@V32@AEAVios_base@2@D_N@Z
; protected: virtual class std::ostreambuf_iterator<unsigned short,struct std::char_traits<unsigned short> >  __cdecl std::num_put<unsigned short,class std::ostreambuf_iterator<unsigned short,struct std::char_traits<unsigned short> > >::do_put(class std::ostreambuf_iterator<unsigned short,struct std::char_traits<unsigned short> >,class std::ios_base & __ptr64,unsigned short,long)const  __ptr64
?do_put@?$num_put@GV?$ostreambuf_iterator@GU?$char_traits@G@std@@@std@@@std@@MEBA?AV?$ostreambuf_iterator@GU?$char_traits@G@std@@@2@V32@AEAVios_base@2@GJ@Z
; protected: virtual class std::ostreambuf_iterator<unsigned short,struct std::char_traits<unsigned short> >  __cdecl std::num_put<unsigned short,class std::ostreambuf_iterator<unsigned short,struct std::char_traits<unsigned short> > >::do_put(class std::ostreambuf_iterator<unsigned short,struct std::char_traits<unsigned short> >,class std::ios_base & __ptr64,unsigned short,unsigned long)const  __ptr64
?do_put@?$num_put@GV?$ostreambuf_iterator@GU?$char_traits@G@std@@@std@@@std@@MEBA?AV?$ostreambuf_iterator@GU?$char_traits@G@std@@@2@V32@AEAVios_base@2@GK@Z
; protected: virtual class std::ostreambuf_iterator<unsigned short,struct std::char_traits<unsigned short> >  __cdecl std::num_put<unsigned short,class std::ostreambuf_iterator<unsigned short,struct std::char_traits<unsigned short> > >::do_put(class std::ostreambuf_iterator<unsigned short,struct std::char_traits<unsigned short> >,class std::ios_base & __ptr64,unsigned short,double)const  __ptr64
?do_put@?$num_put@GV?$ostreambuf_iterator@GU?$char_traits@G@std@@@std@@@std@@MEBA?AV?$ostreambuf_iterator@GU?$char_traits@G@std@@@2@V32@AEAVios_base@2@GN@Z
; protected: virtual class std::ostreambuf_iterator<unsigned short,struct std::char_traits<unsigned short> >  __cdecl std::num_put<unsigned short,class std::ostreambuf_iterator<unsigned short,struct std::char_traits<unsigned short> > >::do_put(class std::ostreambuf_iterator<unsigned short,struct std::char_traits<unsigned short> >,class std::ios_base & __ptr64,unsigned short,long double)const  __ptr64
?do_put@?$num_put@GV?$ostreambuf_iterator@GU?$char_traits@G@std@@@std@@@std@@MEBA?AV?$ostreambuf_iterator@GU?$char_traits@G@std@@@2@V32@AEAVios_base@2@GO@Z
; protected: virtual class std::ostreambuf_iterator<unsigned short,struct std::char_traits<unsigned short> >  __cdecl std::num_put<unsigned short,class std::ostreambuf_iterator<unsigned short,struct std::char_traits<unsigned short> > >::do_put(class std::ostreambuf_iterator<unsigned short,struct std::char_traits<unsigned short> >,class std::ios_base & __ptr64,unsigned short,void const * __ptr64)const  __ptr64
?do_put@?$num_put@GV?$ostreambuf_iterator@GU?$char_traits@G@std@@@std@@@std@@MEBA?AV?$ostreambuf_iterator@GU?$char_traits@G@std@@@2@V32@AEAVios_base@2@GPEBX@Z
; protected: virtual class std::ostreambuf_iterator<unsigned short,struct std::char_traits<unsigned short> >  __cdecl std::num_put<unsigned short,class std::ostreambuf_iterator<unsigned short,struct std::char_traits<unsigned short> > >::do_put(class std::ostreambuf_iterator<unsigned short,struct std::char_traits<unsigned short> >,class std::ios_base & __ptr64,unsigned short,__int64)const  __ptr64
?do_put@?$num_put@GV?$ostreambuf_iterator@GU?$char_traits@G@std@@@std@@@std@@MEBA?AV?$ostreambuf_iterator@GU?$char_traits@G@std@@@2@V32@AEAVios_base@2@G_J@Z
; protected: virtual class std::ostreambuf_iterator<unsigned short,struct std::char_traits<unsigned short> >  __cdecl std::num_put<unsigned short,class std::ostreambuf_iterator<unsigned short,struct std::char_traits<unsigned short> > >::do_put(class std::ostreambuf_iterator<unsigned short,struct std::char_traits<unsigned short> >,class std::ios_base & __ptr64,unsigned short,unsigned __int64)const  __ptr64
?do_put@?$num_put@GV?$ostreambuf_iterator@GU?$char_traits@G@std@@@std@@@std@@MEBA?AV?$ostreambuf_iterator@GU?$char_traits@G@std@@@2@V32@AEAVios_base@2@G_K@Z
; protected: virtual class std::ostreambuf_iterator<unsigned short,struct std::char_traits<unsigned short> >  __cdecl std::num_put<unsigned short,class std::ostreambuf_iterator<unsigned short,struct std::char_traits<unsigned short> > >::do_put(class std::ostreambuf_iterator<unsigned short,struct std::char_traits<unsigned short> >,class std::ios_base & __ptr64,unsigned short,bool)const  __ptr64
?do_put@?$num_put@GV?$ostreambuf_iterator@GU?$char_traits@G@std@@@std@@@std@@MEBA?AV?$ostreambuf_iterator@GU?$char_traits@G@std@@@2@V32@AEAVios_base@2@G_N@Z
; protected: virtual class std::ostreambuf_iterator<char,struct std::char_traits<char> >  __cdecl std::time_put<char,class std::ostreambuf_iterator<char,struct std::char_traits<char> > >::do_put(class std::ostreambuf_iterator<char,struct std::char_traits<char> >,class std::ios_base & __ptr64,struct tm const * __ptr64,char,char)const  __ptr64
?do_put@?$time_put@DV?$ostreambuf_iterator@DU?$char_traits@D@std@@@std@@@std@@MEBA?AV?$ostreambuf_iterator@DU?$char_traits@D@std@@@2@V32@AEAVios_base@2@PEBUtm@@DD@Z
; protected: virtual class std::ostreambuf_iterator<unsigned short,struct std::char_traits<unsigned short> >  __cdecl std::time_put<unsigned short,class std::ostreambuf_iterator<unsigned short,struct std::char_traits<unsigned short> > >::do_put(class std::ostreambuf_iterator<unsigned short,struct std::char_traits<unsigned short> >,class std::ios_base & __ptr64,struct tm const * __ptr64,char,char)const  __ptr64
?do_put@?$time_put@GV?$ostreambuf_iterator@GU?$char_traits@G@std@@@std@@@std@@MEBA?AV?$ostreambuf_iterator@GU?$char_traits@G@std@@@2@V32@AEAVios_base@2@PEBUtm@@DD@Z
; protected: virtual unsigned short const * __ptr64 __cdecl std::ctype<unsigned short>::do_scan_is(short,unsigned short const * __ptr64,unsigned short const * __ptr64)const  __ptr64
?do_scan_is@?$ctype@G@std@@MEBAPEBGFPEBG0@Z
; protected: virtual unsigned short const * __ptr64 __cdecl std::ctype<unsigned short>::do_scan_not(short,unsigned short const * __ptr64,unsigned short const * __ptr64)const  __ptr64
?do_scan_not@?$ctype@G@std@@MEBAPEBGFPEBG0@Z
; protected: virtual char __cdecl std::_Mpunct<char>::do_thousands_sep(void)const  __ptr64
?do_thousands_sep@?$_Mpunct@D@std@@MEBADXZ
; protected: virtual unsigned short __cdecl std::_Mpunct<unsigned short>::do_thousands_sep(void)const  __ptr64
?do_thousands_sep@?$_Mpunct@G@std@@MEBAGXZ
; protected: virtual char __cdecl std::numpunct<char>::do_thousands_sep(void)const  __ptr64
?do_thousands_sep@?$numpunct@D@std@@MEBADXZ
; protected: virtual unsigned short __cdecl std::numpunct<unsigned short>::do_thousands_sep(void)const  __ptr64
?do_thousands_sep@?$numpunct@G@std@@MEBAGXZ
; protected: virtual char __cdecl std::ctype<char>::do_tolower(char)const  __ptr64
?do_tolower@?$ctype@D@std@@MEBADD@Z
; protected: virtual char const * __ptr64 __cdecl std::ctype<char>::do_tolower(char * __ptr64,char const * __ptr64)const  __ptr64
?do_tolower@?$ctype@D@std@@MEBAPEBDPEADPEBD@Z
; protected: virtual unsigned short __cdecl std::ctype<unsigned short>::do_tolower(unsigned short)const  __ptr64
?do_tolower@?$ctype@G@std@@MEBAGG@Z
; protected: virtual unsigned short const * __ptr64 __cdecl std::ctype<unsigned short>::do_tolower(unsigned short * __ptr64,unsigned short const * __ptr64)const  __ptr64
?do_tolower@?$ctype@G@std@@MEBAPEBGPEAGPEBG@Z
; protected: virtual char __cdecl std::ctype<char>::do_toupper(char)const  __ptr64
?do_toupper@?$ctype@D@std@@MEBADD@Z
; protected: virtual char const * __ptr64 __cdecl std::ctype<char>::do_toupper(char * __ptr64,char const * __ptr64)const  __ptr64
?do_toupper@?$ctype@D@std@@MEBAPEBDPEADPEBD@Z
; protected: virtual unsigned short __cdecl std::ctype<unsigned short>::do_toupper(unsigned short)const  __ptr64
?do_toupper@?$ctype@G@std@@MEBAGG@Z
; protected: virtual unsigned short const * __ptr64 __cdecl std::ctype<unsigned short>::do_toupper(unsigned short * __ptr64,unsigned short const * __ptr64)const  __ptr64
?do_toupper@?$ctype@G@std@@MEBAPEBGPEAGPEBG@Z
; protected: virtual class std::basic_string<char,struct std::char_traits<char>,class std::allocator<char> >  __cdecl std::collate<char>::do_transform(char const * __ptr64,char const * __ptr64)const  __ptr64
?do_transform@?$collate@D@std@@MEBA?AV?$basic_string@DU?$char_traits@D@std@@V?$allocator@D@2@@2@PEBD0@Z
; protected: virtual class std::basic_string<unsigned short,struct std::char_traits<unsigned short>,class std::allocator<unsigned short> >  __cdecl std::collate<unsigned short>::do_transform(unsigned short const * __ptr64,unsigned short const * __ptr64)const  __ptr64
?do_transform@?$collate@G@std@@MEBA?AV?$basic_string@GU?$char_traits@G@std@@V?$allocator@G@2@@2@PEBG0@Z
; protected: virtual class std::basic_string<char,struct std::char_traits<char>,class std::allocator<char> >  __cdecl std::numpunct<char>::do_truename(void)const  __ptr64
?do_truename@?$numpunct@D@std@@MEBA?AV?$basic_string@DU?$char_traits@D@std@@V?$allocator@D@2@@2@XZ
; protected: virtual class std::basic_string<unsigned short,struct std::char_traits<unsigned short>,class std::allocator<unsigned short> >  __cdecl std::numpunct<unsigned short>::do_truename(void)const  __ptr64
?do_truename@?$numpunct@G@std@@MEBA?AV?$basic_string@GU?$char_traits@G@std@@V?$allocator@G@2@@2@XZ
; protected: virtual unsigned short __cdecl std::ctype<unsigned short>::do_widen(char)const  __ptr64
?do_widen@?$ctype@G@std@@MEBAGD@Z
; protected: virtual char const * __ptr64 __cdecl std::ctype<unsigned short>::do_widen(char const * __ptr64,char const * __ptr64,unsigned short * __ptr64)const  __ptr64
?do_widen@?$ctype@G@std@@MEBAPEBDPEBD0PEAG@Z
; protected: char * __ptr64 __cdecl std::basic_streambuf<char,struct std::char_traits<char> >::eback(void)const  __ptr64
?eback@?$basic_streambuf@DU?$char_traits@D@std@@@std@@IEBAPEADXZ
; protected: unsigned short * __ptr64 __cdecl std::basic_streambuf<unsigned short,struct std::char_traits<unsigned short> >::eback(void)const  __ptr64
?eback@?$basic_streambuf@GU?$char_traits@G@std@@@std@@IEBAPEAGXZ
; protected: char * __ptr64 __cdecl std::basic_streambuf<char,struct std::char_traits<char> >::egptr(void)const  __ptr64
?egptr@?$basic_streambuf@DU?$char_traits@D@std@@@std@@IEBAPEADXZ
; protected: unsigned short * __ptr64 __cdecl std::basic_streambuf<unsigned short,struct std::char_traits<unsigned short> >::egptr(void)const  __ptr64
?egptr@?$basic_streambuf@GU?$char_traits@G@std@@@std@@IEBAPEAGXZ
; public: bool __cdecl std::basic_string<char,struct std::char_traits<char>,class std::allocator<char> >::empty(void)const  __ptr64
?empty@?$basic_string@DU?$char_traits@D@std@@V?$allocator@D@2@@std@@QEBA_NXZ
; public: bool __cdecl std::basic_string<unsigned short,struct std::char_traits<unsigned short>,class std::allocator<unsigned short> >::empty(void)const  __ptr64
?empty@?$basic_string@GU?$char_traits@G@std@@V?$allocator@G@2@@std@@QEBA_NXZ
; public: static class std::locale  __cdecl std::locale::empty(void)
?empty@locale@std@@SA?AV12@XZ
; public: int __cdecl std::codecvt_base::encoding(void)const  __ptr64
?encoding@codecvt_base@std@@QEBAHXZ
; public: char * __ptr64 __cdecl std::basic_string<char,struct std::char_traits<char>,class std::allocator<char> >::end(void) __ptr64
?end@?$basic_string@DU?$char_traits@D@std@@V?$allocator@D@2@@std@@QEAAPEADXZ
; public: char const * __ptr64 __cdecl std::basic_string<char,struct std::char_traits<char>,class std::allocator<char> >::end(void)const  __ptr64
?end@?$basic_string@DU?$char_traits@D@std@@V?$allocator@D@2@@std@@QEBAPEBDXZ
; public: unsigned short * __ptr64 __cdecl std::basic_string<unsigned short,struct std::char_traits<unsigned short>,class std::allocator<unsigned short> >::end(void) __ptr64
?end@?$basic_string@GU?$char_traits@G@std@@V?$allocator@G@2@@std@@QEAAPEAGXZ
; public: unsigned short const * __ptr64 __cdecl std::basic_string<unsigned short,struct std::char_traits<unsigned short>,class std::allocator<unsigned short> >::end(void)const  __ptr64
?end@?$basic_string@GU?$char_traits@G@std@@V?$allocator@G@2@@std@@QEBAPEBGXZ
; class std::basic_ostream<char,struct std::char_traits<char> > & __ptr64 __cdecl std::endl(class std::basic_ostream<char,struct std::char_traits<char> > & __ptr64)
?endl@std@@YAAEAV?$basic_ostream@DU?$char_traits@D@std@@@1@AEAV21@@Z
; class std::basic_ostream<unsigned short,struct std::char_traits<unsigned short> > & __ptr64 __cdecl std::endl(class std::basic_ostream<unsigned short,struct std::char_traits<unsigned short> > & __ptr64)
?endl@std@@YAAEAV?$basic_ostream@GU?$char_traits@G@std@@@1@AEAV21@@Z
; class std::basic_ostream<char,struct std::char_traits<char> > & __ptr64 __cdecl std::ends(class std::basic_ostream<char,struct std::char_traits<char> > & __ptr64)
?ends@std@@YAAEAV?$basic_ostream@DU?$char_traits@D@std@@@1@AEAV21@@Z
; class std::basic_ostream<unsigned short,struct std::char_traits<unsigned short> > & __ptr64 __cdecl std::ends(class std::basic_ostream<unsigned short,struct std::char_traits<unsigned short> > & __ptr64)
?ends@std@@YAAEAV?$basic_ostream@GU?$char_traits@G@std@@@1@AEAV21@@Z
; public: static int __cdecl std::char_traits<char>::eof(void)
?eof@?$char_traits@D@std@@SAHXZ
; public: static unsigned short __cdecl std::char_traits<unsigned short>::eof(void)
?eof@?$char_traits@G@std@@SAGXZ
; public: bool __cdecl std::ios_base::eof(void)const  __ptr64
?eof@ios_base@std@@QEBA_NXZ
; protected: char * __ptr64 __cdecl std::basic_streambuf<char,struct std::char_traits<char> >::epptr(void)const  __ptr64
?epptr@?$basic_streambuf@DU?$char_traits@D@std@@@std@@IEBAPEADXZ
; protected: unsigned short * __ptr64 __cdecl std::basic_streambuf<unsigned short,struct std::char_traits<unsigned short> >::epptr(void)const  __ptr64
?epptr@?$basic_streambuf@GU?$char_traits@G@std@@@std@@IEBAPEAGXZ
; public: static signed char __cdecl std::numeric_limits<signed char>::epsilon(void)
?epsilon@?$numeric_limits@C@std@@SACXZ
; public: static char __cdecl std::numeric_limits<char>::epsilon(void)
?epsilon@?$numeric_limits@D@std@@SADXZ
; public: static unsigned char __cdecl std::numeric_limits<unsigned char>::epsilon(void)
?epsilon@?$numeric_limits@E@std@@SAEXZ
; public: static short __cdecl std::numeric_limits<short>::epsilon(void)
?epsilon@?$numeric_limits@F@std@@SAFXZ
; public: static unsigned short __cdecl std::numeric_limits<unsigned short>::epsilon(void)
?epsilon@?$numeric_limits@G@std@@SAGXZ
; public: static int __cdecl std::numeric_limits<int>::epsilon(void)
?epsilon@?$numeric_limits@H@std@@SAHXZ
; public: static unsigned int __cdecl std::numeric_limits<unsigned int>::epsilon(void)
?epsilon@?$numeric_limits@I@std@@SAIXZ
; public: static long __cdecl std::numeric_limits<long>::epsilon(void)
?epsilon@?$numeric_limits@J@std@@SAJXZ
; public: static unsigned long __cdecl std::numeric_limits<unsigned long>::epsilon(void)
?epsilon@?$numeric_limits@K@std@@SAKXZ
; public: static float __cdecl std::numeric_limits<float>::epsilon(void)
?epsilon@?$numeric_limits@M@std@@SAMXZ
; public: static double __cdecl std::numeric_limits<double>::epsilon(void)
?epsilon@?$numeric_limits@N@std@@SANXZ
; public: static long double __cdecl std::numeric_limits<long double>::epsilon(void)
?epsilon@?$numeric_limits@O@std@@SAOXZ
; public: static bool __cdecl std::numeric_limits<bool>::epsilon(void)
?epsilon@?$numeric_limits@_N@std@@SA_NXZ
; public: static bool __cdecl std::char_traits<char>::eq(char const & __ptr64,char const & __ptr64)
?eq@?$char_traits@D@std@@SA_NAEBD0@Z
; public: static bool __cdecl std::char_traits<unsigned short>::eq(unsigned short const & __ptr64,unsigned short const & __ptr64)
?eq@?$char_traits@G@std@@SA_NAEBG0@Z
; public: static bool __cdecl std::char_traits<char>::eq_int_type(int const & __ptr64,int const & __ptr64)
?eq_int_type@?$char_traits@D@std@@SA_NAEBH0@Z
; public: static bool __cdecl std::char_traits<unsigned short>::eq_int_type(unsigned short const & __ptr64,unsigned short const & __ptr64)
?eq_int_type@?$char_traits@G@std@@SA_NAEBG0@Z
; public: class std::basic_string<char,struct std::char_traits<char>,class std::allocator<char> > & __ptr64 __cdecl std::basic_string<char,struct std::char_traits<char>,class std::allocator<char> >::erase(unsigned __int64,unsigned __int64) __ptr64
?erase@?$basic_string@DU?$char_traits@D@std@@V?$allocator@D@2@@std@@QEAAAEAV12@_K0@Z
; public: char * __ptr64 __cdecl std::basic_string<char,struct std::char_traits<char>,class std::allocator<char> >::erase(char * __ptr64,char * __ptr64) __ptr64
?erase@?$basic_string@DU?$char_traits@D@std@@V?$allocator@D@2@@std@@QEAAPEADPEAD0@Z
; public: char * __ptr64 __cdecl std::basic_string<char,struct std::char_traits<char>,class std::allocator<char> >::erase(char * __ptr64) __ptr64
?erase@?$basic_string@DU?$char_traits@D@std@@V?$allocator@D@2@@std@@QEAAPEADPEAD@Z
; public: class std::basic_string<unsigned short,struct std::char_traits<unsigned short>,class std::allocator<unsigned short> > & __ptr64 __cdecl std::basic_string<unsigned short,struct std::char_traits<unsigned short>,class std::allocator<unsigned short> >::erase(unsigned __int64,unsigned __int64) __ptr64
?erase@?$basic_string@GU?$char_traits@G@std@@V?$allocator@G@2@@std@@QEAAAEAV12@_K0@Z
; public: unsigned short * __ptr64 __cdecl std::basic_string<unsigned short,struct std::char_traits<unsigned short>,class std::allocator<unsigned short> >::erase(unsigned short * __ptr64,unsigned short * __ptr64) __ptr64
?erase@?$basic_string@GU?$char_traits@G@std@@V?$allocator@G@2@@std@@QEAAPEAGPEAG0@Z
; public: unsigned short * __ptr64 __cdecl std::basic_string<unsigned short,struct std::char_traits<unsigned short>,class std::allocator<unsigned short> >::erase(unsigned short * __ptr64) __ptr64
?erase@?$basic_string@GU?$char_traits@G@std@@V?$allocator@G@2@@std@@QEAAPEAGPEAG@Z
; public: void __cdecl std::ios_base::exceptions(short) __ptr64
?exceptions@ios_base@std@@QEAAXF@Z
; public: void __cdecl std::ios_base::exceptions(int) __ptr64
?exceptions@ios_base@std@@QEAAXH@Z
; public: int __cdecl std::ios_base::exceptions(void)const  __ptr64
?exceptions@ios_base@std@@QEBAHXZ
; public: static float __cdecl std::_Ctr<float>::exp(float)
?exp@?$_Ctr@M@std@@SAMM@Z
; public: static double __cdecl std::_Ctr<double>::exp(double)
?exp@?$_Ctr@N@std@@SANN@Z
; public: static long double __cdecl std::_Ctr<long double>::exp(long double)
?exp@?$_Ctr@O@std@@SAOO@Z
; class std::complex<float>  __cdecl std::exp(class std::complex<float> const & __ptr64)
?exp@std@@YA?AV?$complex@M@1@AEBV21@@Z
; class std::complex<double>  __cdecl std::exp(class std::complex<double> const & __ptr64)
?exp@std@@YA?AV?$complex@N@1@AEBV21@@Z
; class std::complex<long double>  __cdecl std::exp(class std::complex<long double> const & __ptr64)
?exp@std@@YA?AV?$complex@O@1@AEBV21@@Z
; public: bool __cdecl std::ios_base::fail(void)const  __ptr64
?fail@ios_base@std@@QEBA_NXZ
; public: class std::basic_string<char,struct std::char_traits<char>,class std::allocator<char> >  __cdecl std::numpunct<char>::falsename(void)const  __ptr64
?falsename@?$numpunct@D@std@@QEBA?AV?$basic_string@DU?$char_traits@D@std@@V?$allocator@D@2@@2@XZ
; public: class std::basic_string<unsigned short,struct std::char_traits<unsigned short>,class std::allocator<unsigned short> >  __cdecl std::numpunct<unsigned short>::falsename(void)const  __ptr64
?falsename@?$numpunct@G@std@@QEBA?AV?$basic_string@GU?$char_traits@G@std@@V?$allocator@G@2@@2@XZ
; public: char __cdecl std::basic_ios<char,struct std::char_traits<char> >::fill(char) __ptr64
?fill@?$basic_ios@DU?$char_traits@D@std@@@std@@QEAADD@Z
; public: char __cdecl std::basic_ios<char,struct std::char_traits<char> >::fill(void)const  __ptr64
?fill@?$basic_ios@DU?$char_traits@D@std@@@std@@QEBADXZ
; public: unsigned short __cdecl std::basic_ios<unsigned short,struct std::char_traits<unsigned short> >::fill(unsigned short) __ptr64
?fill@?$basic_ios@GU?$char_traits@G@std@@@std@@QEAAGG@Z
; public: unsigned short __cdecl std::basic_ios<unsigned short,struct std::char_traits<unsigned short> >::fill(void)const  __ptr64
?fill@?$basic_ios@GU?$char_traits@G@std@@@std@@QEBAGXZ
; public: unsigned __int64 __cdecl std::basic_string<char,struct std::char_traits<char>,class std::allocator<char> >::find(class std::basic_string<char,struct std::char_traits<char>,class std::allocator<char> > const & __ptr64,unsigned __int64)const  __ptr64
?find@?$basic_string@DU?$char_traits@D@std@@V?$allocator@D@2@@std@@QEBA_KAEBV12@_K@Z
; public: unsigned __int64 __cdecl std::basic_string<char,struct std::char_traits<char>,class std::allocator<char> >::find(char,unsigned __int64)const  __ptr64
?find@?$basic_string@DU?$char_traits@D@std@@V?$allocator@D@2@@std@@QEBA_KD_K@Z
; public: unsigned __int64 __cdecl std::basic_string<char,struct std::char_traits<char>,class std::allocator<char> >::find(char const * __ptr64,unsigned __int64,unsigned __int64)const  __ptr64
?find@?$basic_string@DU?$char_traits@D@std@@V?$allocator@D@2@@std@@QEBA_KPEBD_K1@Z
; public: unsigned __int64 __cdecl std::basic_string<char,struct std::char_traits<char>,class std::allocator<char> >::find(char const * __ptr64,unsigned __int64)const  __ptr64
?find@?$basic_string@DU?$char_traits@D@std@@V?$allocator@D@2@@std@@QEBA_KPEBD_K@Z
; public: unsigned __int64 __cdecl std::basic_string<unsigned short,struct std::char_traits<unsigned short>,class std::allocator<unsigned short> >::find(class std::basic_string<unsigned short,struct std::char_traits<unsigned short>,class std::allocator<unsigned short> > const & __ptr64,unsigned __int64)const  __ptr64
?find@?$basic_string@GU?$char_traits@G@std@@V?$allocator@G@2@@std@@QEBA_KAEBV12@_K@Z
; public: unsigned __int64 __cdecl std::basic_string<unsigned short,struct std::char_traits<unsigned short>,class std::allocator<unsigned short> >::find(unsigned short,unsigned __int64)const  __ptr64
?find@?$basic_string@GU?$char_traits@G@std@@V?$allocator@G@2@@std@@QEBA_KG_K@Z
; public: unsigned __int64 __cdecl std::basic_string<unsigned short,struct std::char_traits<unsigned short>,class std::allocator<unsigned short> >::find(unsigned short const * __ptr64,unsigned __int64,unsigned __int64)const  __ptr64
?find@?$basic_string@GU?$char_traits@G@std@@V?$allocator@G@2@@std@@QEBA_KPEBG_K1@Z
; public: unsigned __int64 __cdecl std::basic_string<unsigned short,struct std::char_traits<unsigned short>,class std::allocator<unsigned short> >::find(unsigned short const * __ptr64,unsigned __int64)const  __ptr64
?find@?$basic_string@GU?$char_traits@G@std@@V?$allocator@G@2@@std@@QEBA_KPEBG_K@Z
; public: static char const * __ptr64 __cdecl std::char_traits<char>::find(char const * __ptr64,unsigned __int64,char const & __ptr64)
?find@?$char_traits@D@std@@SAPEBDPEBD_KAEBD@Z
; public: static unsigned short const * __ptr64 __cdecl std::char_traits<unsigned short>::find(unsigned short const * __ptr64,unsigned __int64,unsigned short const & __ptr64)
?find@?$char_traits@G@std@@SAPEBGPEBG_KAEBG@Z
; public: unsigned __int64 __cdecl std::basic_string<char,struct std::char_traits<char>,class std::allocator<char> >::find_first_not_of(class std::basic_string<char,struct std::char_traits<char>,class std::allocator<char> > const & __ptr64,unsigned __int64)const  __ptr64
?find_first_not_of@?$basic_string@DU?$char_traits@D@std@@V?$allocator@D@2@@std@@QEBA_KAEBV12@_K@Z
; public: unsigned __int64 __cdecl std::basic_string<char,struct std::char_traits<char>,class std::allocator<char> >::find_first_not_of(char,unsigned __int64)const  __ptr64
?find_first_not_of@?$basic_string@DU?$char_traits@D@std@@V?$allocator@D@2@@std@@QEBA_KD_K@Z
; public: unsigned __int64 __cdecl std::basic_string<char,struct std::char_traits<char>,class std::allocator<char> >::find_first_not_of(char const * __ptr64,unsigned __int64,unsigned __int64)const  __ptr64
?find_first_not_of@?$basic_string@DU?$char_traits@D@std@@V?$allocator@D@2@@std@@QEBA_KPEBD_K1@Z
; public: unsigned __int64 __cdecl std::basic_string<char,struct std::char_traits<char>,class std::allocator<char> >::find_first_not_of(char const * __ptr64,unsigned __int64)const  __ptr64
?find_first_not_of@?$basic_string@DU?$char_traits@D@std@@V?$allocator@D@2@@std@@QEBA_KPEBD_K@Z
; public: unsigned __int64 __cdecl std::basic_string<unsigned short,struct std::char_traits<unsigned short>,class std::allocator<unsigned short> >::find_first_not_of(class std::basic_string<unsigned short,struct std::char_traits<unsigned short>,class std::allocator<unsigned short> > const & __ptr64,unsigned __int64)const  __ptr64
?find_first_not_of@?$basic_string@GU?$char_traits@G@std@@V?$allocator@G@2@@std@@QEBA_KAEBV12@_K@Z
; public: unsigned __int64 __cdecl std::basic_string<unsigned short,struct std::char_traits<unsigned short>,class std::allocator<unsigned short> >::find_first_not_of(unsigned short,unsigned __int64)const  __ptr64
?find_first_not_of@?$basic_string@GU?$char_traits@G@std@@V?$allocator@G@2@@std@@QEBA_KG_K@Z
; public: unsigned __int64 __cdecl std::basic_string<unsigned short,struct std::char_traits<unsigned short>,class std::allocator<unsigned short> >::find_first_not_of(unsigned short const * __ptr64,unsigned __int64,unsigned __int64)const  __ptr64
?find_first_not_of@?$basic_string@GU?$char_traits@G@std@@V?$allocator@G@2@@std@@QEBA_KPEBG_K1@Z
; public: unsigned __int64 __cdecl std::basic_string<unsigned short,struct std::char_traits<unsigned short>,class std::allocator<unsigned short> >::find_first_not_of(unsigned short const * __ptr64,unsigned __int64)const  __ptr64
?find_first_not_of@?$basic_string@GU?$char_traits@G@std@@V?$allocator@G@2@@std@@QEBA_KPEBG_K@Z
; public: unsigned __int64 __cdecl std::basic_string<char,struct std::char_traits<char>,class std::allocator<char> >::find_first_of(class std::basic_string<char,struct std::char_traits<char>,class std::allocator<char> > const & __ptr64,unsigned __int64)const  __ptr64
?find_first_of@?$basic_string@DU?$char_traits@D@std@@V?$allocator@D@2@@std@@QEBA_KAEBV12@_K@Z
; public: unsigned __int64 __cdecl std::basic_string<char,struct std::char_traits<char>,class std::allocator<char> >::find_first_of(char,unsigned __int64)const  __ptr64
?find_first_of@?$basic_string@DU?$char_traits@D@std@@V?$allocator@D@2@@std@@QEBA_KD_K@Z
; public: unsigned __int64 __cdecl std::basic_string<char,struct std::char_traits<char>,class std::allocator<char> >::find_first_of(char const * __ptr64,unsigned __int64,unsigned __int64)const  __ptr64
?find_first_of@?$basic_string@DU?$char_traits@D@std@@V?$allocator@D@2@@std@@QEBA_KPEBD_K1@Z
; public: unsigned __int64 __cdecl std::basic_string<char,struct std::char_traits<char>,class std::allocator<char> >::find_first_of(char const * __ptr64,unsigned __int64)const  __ptr64
?find_first_of@?$basic_string@DU?$char_traits@D@std@@V?$allocator@D@2@@std@@QEBA_KPEBD_K@Z
; public: unsigned __int64 __cdecl std::basic_string<unsigned short,struct std::char_traits<unsigned short>,class std::allocator<unsigned short> >::find_first_of(class std::basic_string<unsigned short,struct std::char_traits<unsigned short>,class std::allocator<unsigned short> > const & __ptr64,unsigned __int64)const  __ptr64
?find_first_of@?$basic_string@GU?$char_traits@G@std@@V?$allocator@G@2@@std@@QEBA_KAEBV12@_K@Z
; public: unsigned __int64 __cdecl std::basic_string<unsigned short,struct std::char_traits<unsigned short>,class std::allocator<unsigned short> >::find_first_of(unsigned short,unsigned __int64)const  __ptr64
?find_first_of@?$basic_string@GU?$char_traits@G@std@@V?$allocator@G@2@@std@@QEBA_KG_K@Z
; public: unsigned __int64 __cdecl std::basic_string<unsigned short,struct std::char_traits<unsigned short>,class std::allocator<unsigned short> >::find_first_of(unsigned short const * __ptr64,unsigned __int64,unsigned __int64)const  __ptr64
?find_first_of@?$basic_string@GU?$char_traits@G@std@@V?$allocator@G@2@@std@@QEBA_KPEBG_K1@Z
; public: unsigned __int64 __cdecl std::basic_string<unsigned short,struct std::char_traits<unsigned short>,class std::allocator<unsigned short> >::find_first_of(unsigned short const * __ptr64,unsigned __int64)const  __ptr64
?find_first_of@?$basic_string@GU?$char_traits@G@std@@V?$allocator@G@2@@std@@QEBA_KPEBG_K@Z
; public: unsigned __int64 __cdecl std::basic_string<char,struct std::char_traits<char>,class std::allocator<char> >::find_last_not_of(class std::basic_string<char,struct std::char_traits<char>,class std::allocator<char> > const & __ptr64,unsigned __int64)const  __ptr64
?find_last_not_of@?$basic_string@DU?$char_traits@D@std@@V?$allocator@D@2@@std@@QEBA_KAEBV12@_K@Z
; public: unsigned __int64 __cdecl std::basic_string<char,struct std::char_traits<char>,class std::allocator<char> >::find_last_not_of(char,unsigned __int64)const  __ptr64
?find_last_not_of@?$basic_string@DU?$char_traits@D@std@@V?$allocator@D@2@@std@@QEBA_KD_K@Z
; public: unsigned __int64 __cdecl std::basic_string<char,struct std::char_traits<char>,class std::allocator<char> >::find_last_not_of(char const * __ptr64,unsigned __int64,unsigned __int64)const  __ptr64
?find_last_not_of@?$basic_string@DU?$char_traits@D@std@@V?$allocator@D@2@@std@@QEBA_KPEBD_K1@Z
; public: unsigned __int64 __cdecl std::basic_string<char,struct std::char_traits<char>,class std::allocator<char> >::find_last_not_of(char const * __ptr64,unsigned __int64)const  __ptr64
?find_last_not_of@?$basic_string@DU?$char_traits@D@std@@V?$allocator@D@2@@std@@QEBA_KPEBD_K@Z
; public: unsigned __int64 __cdecl std::basic_string<unsigned short,struct std::char_traits<unsigned short>,class std::allocator<unsigned short> >::find_last_not_of(class std::basic_string<unsigned short,struct std::char_traits<unsigned short>,class std::allocator<unsigned short> > const & __ptr64,unsigned __int64)const  __ptr64
?find_last_not_of@?$basic_string@GU?$char_traits@G@std@@V?$allocator@G@2@@std@@QEBA_KAEBV12@_K@Z
; public: unsigned __int64 __cdecl std::basic_string<unsigned short,struct std::char_traits<unsigned short>,class std::allocator<unsigned short> >::find_last_not_of(unsigned short,unsigned __int64)const  __ptr64
?find_last_not_of@?$basic_string@GU?$char_traits@G@std@@V?$allocator@G@2@@std@@QEBA_KG_K@Z
; public: unsigned __int64 __cdecl std::basic_string<unsigned short,struct std::char_traits<unsigned short>,class std::allocator<unsigned short> >::find_last_not_of(unsigned short const * __ptr64,unsigned __int64,unsigned __int64)const  __ptr64
?find_last_not_of@?$basic_string@GU?$char_traits@G@std@@V?$allocator@G@2@@std@@QEBA_KPEBG_K1@Z
; public: unsigned __int64 __cdecl std::basic_string<unsigned short,struct std::char_traits<unsigned short>,class std::allocator<unsigned short> >::find_last_not_of(unsigned short const * __ptr64,unsigned __int64)const  __ptr64
?find_last_not_of@?$basic_string@GU?$char_traits@G@std@@V?$allocator@G@2@@std@@QEBA_KPEBG_K@Z
; public: unsigned __int64 __cdecl std::basic_string<char,struct std::char_traits<char>,class std::allocator<char> >::find_last_of(class std::basic_string<char,struct std::char_traits<char>,class std::allocator<char> > const & __ptr64,unsigned __int64)const  __ptr64
?find_last_of@?$basic_string@DU?$char_traits@D@std@@V?$allocator@D@2@@std@@QEBA_KAEBV12@_K@Z
; public: unsigned __int64 __cdecl std::basic_string<char,struct std::char_traits<char>,class std::allocator<char> >::find_last_of(char,unsigned __int64)const  __ptr64
?find_last_of@?$basic_string@DU?$char_traits@D@std@@V?$allocator@D@2@@std@@QEBA_KD_K@Z
; public: unsigned __int64 __cdecl std::basic_string<char,struct std::char_traits<char>,class std::allocator<char> >::find_last_of(char const * __ptr64,unsigned __int64,unsigned __int64)const  __ptr64
?find_last_of@?$basic_string@DU?$char_traits@D@std@@V?$allocator@D@2@@std@@QEBA_KPEBD_K1@Z
; public: unsigned __int64 __cdecl std::basic_string<char,struct std::char_traits<char>,class std::allocator<char> >::find_last_of(char const * __ptr64,unsigned __int64)const  __ptr64
?find_last_of@?$basic_string@DU?$char_traits@D@std@@V?$allocator@D@2@@std@@QEBA_KPEBD_K@Z
; public: unsigned __int64 __cdecl std::basic_string<unsigned short,struct std::char_traits<unsigned short>,class std::allocator<unsigned short> >::find_last_of(class std::basic_string<unsigned short,struct std::char_traits<unsigned short>,class std::allocator<unsigned short> > const & __ptr64,unsigned __int64)const  __ptr64
?find_last_of@?$basic_string@GU?$char_traits@G@std@@V?$allocator@G@2@@std@@QEBA_KAEBV12@_K@Z
; public: unsigned __int64 __cdecl std::basic_string<unsigned short,struct std::char_traits<unsigned short>,class std::allocator<unsigned short> >::find_last_of(unsigned short,unsigned __int64)const  __ptr64
?find_last_of@?$basic_string@GU?$char_traits@G@std@@V?$allocator@G@2@@std@@QEBA_KG_K@Z
; public: unsigned __int64 __cdecl std::basic_string<unsigned short,struct std::char_traits<unsigned short>,class std::allocator<unsigned short> >::find_last_of(unsigned short const * __ptr64,unsigned __int64,unsigned __int64)const  __ptr64
?find_last_of@?$basic_string@GU?$char_traits@G@std@@V?$allocator@G@2@@std@@QEBA_KPEBG_K1@Z
; public: unsigned __int64 __cdecl std::basic_string<unsigned short,struct std::char_traits<unsigned short>,class std::allocator<unsigned short> >::find_last_of(unsigned short const * __ptr64,unsigned __int64)const  __ptr64
?find_last_of@?$basic_string@GU?$char_traits@G@std@@V?$allocator@G@2@@std@@QEBA_KPEBG_K@Z
; public: int __cdecl std::ios_base::flags(int) __ptr64
?flags@ios_base@std@@QEAAHH@Z
; public: int __cdecl std::ios_base::flags(void)const  __ptr64
?flags@ios_base@std@@QEBAHXZ
; public: class std::basic_ostream<char,struct std::char_traits<char> > & __ptr64 __cdecl std::basic_ostream<char,struct std::char_traits<char> >::flush(void) __ptr64
?flush@?$basic_ostream@DU?$char_traits@D@std@@@std@@QEAAAEAV12@XZ
; public: class std::basic_ostream<unsigned short,struct std::char_traits<unsigned short> > & __ptr64 __cdecl std::basic_ostream<unsigned short,struct std::char_traits<unsigned short> >::flush(void) __ptr64
?flush@?$basic_ostream@GU?$char_traits@G@std@@@std@@QEAAAEAV12@XZ
; class std::basic_ostream<char,struct std::char_traits<char> > & __ptr64 __cdecl std::flush(class std::basic_ostream<char,struct std::char_traits<char> > & __ptr64)
?flush@std@@YAAEAV?$basic_ostream@DU?$char_traits@D@std@@@1@AEAV21@@Z
; class std::basic_ostream<unsigned short,struct std::char_traits<unsigned short> > & __ptr64 __cdecl std::flush(class std::basic_ostream<unsigned short,struct std::char_traits<unsigned short> > & __ptr64)
?flush@std@@YAAEAV?$basic_ostream@GU?$char_traits@G@std@@@1@AEAV21@@Z
; public: int __cdecl std::_Mpunct<char>::frac_digits(void)const  __ptr64
?frac_digits@?$_Mpunct@D@std@@QEBAHXZ
; public: int __cdecl std::_Mpunct<unsigned short>::frac_digits(void)const  __ptr64
?frac_digits@?$_Mpunct@G@std@@QEBAHXZ
; public: void __cdecl std::strstreambuf::freeze(bool) __ptr64
?freeze@strstreambuf@std@@QEAAX_N@Z
; protected: void __cdecl std::basic_streambuf<char,struct std::char_traits<char> >::gbump(int) __ptr64
?gbump@?$basic_streambuf@DU?$char_traits@D@std@@@std@@IEAAXH@Z
; protected: void __cdecl std::basic_streambuf<unsigned short,struct std::char_traits<unsigned short> >::gbump(int) __ptr64
?gbump@?$basic_streambuf@GU?$char_traits@G@std@@@std@@IEAAXH@Z
; public: __int64 __cdecl std::basic_istream<char,struct std::char_traits<char> >::gcount(void)const  __ptr64
?gcount@?$basic_istream@DU?$char_traits@D@std@@@std@@QEBA_JXZ
; public: __int64 __cdecl std::basic_istream<unsigned short,struct std::char_traits<unsigned short> >::gcount(void)const  __ptr64
?gcount@?$basic_istream@GU?$char_traits@G@std@@@std@@QEBA_JXZ
; public: class std::basic_istream<char,struct std::char_traits<char> > & __ptr64 __cdecl std::basic_istream<char,struct std::char_traits<char> >::get(char & __ptr64) __ptr64
?get@?$basic_istream@DU?$char_traits@D@std@@@std@@QEAAAEAV12@AEAD@Z
; public: class std::basic_istream<char,struct std::char_traits<char> > & __ptr64 __cdecl std::basic_istream<char,struct std::char_traits<char> >::get(class std::basic_streambuf<char,struct std::char_traits<char> > & __ptr64) __ptr64
?get@?$basic_istream@DU?$char_traits@D@std@@@std@@QEAAAEAV12@AEAV?$basic_streambuf@DU?$char_traits@D@std@@@2@@Z
; public: class std::basic_istream<char,struct std::char_traits<char> > & __ptr64 __cdecl std::basic_istream<char,struct std::char_traits<char> >::get(class std::basic_streambuf<char,struct std::char_traits<char> > & __ptr64,char) __ptr64
?get@?$basic_istream@DU?$char_traits@D@std@@@std@@QEAAAEAV12@AEAV?$basic_streambuf@DU?$char_traits@D@std@@@2@D@Z
; public: class std::basic_istream<char,struct std::char_traits<char> > & __ptr64 __cdecl std::basic_istream<char,struct std::char_traits<char> >::get(char * __ptr64,__int64) __ptr64
?get@?$basic_istream@DU?$char_traits@D@std@@@std@@QEAAAEAV12@PEAD_J@Z
; public: class std::basic_istream<char,struct std::char_traits<char> > & __ptr64 __cdecl std::basic_istream<char,struct std::char_traits<char> >::get(char * __ptr64,__int64,char) __ptr64
?get@?$basic_istream@DU?$char_traits@D@std@@@std@@QEAAAEAV12@PEAD_JD@Z
; public: int __cdecl std::basic_istream<char,struct std::char_traits<char> >::get(void) __ptr64
?get@?$basic_istream@DU?$char_traits@D@std@@@std@@QEAAHXZ
; public: class std::basic_istream<unsigned short,struct std::char_traits<unsigned short> > & __ptr64 __cdecl std::basic_istream<unsigned short,struct std::char_traits<unsigned short> >::get(unsigned short & __ptr64) __ptr64
?get@?$basic_istream@GU?$char_traits@G@std@@@std@@QEAAAEAV12@AEAG@Z
; public: class std::basic_istream<unsigned short,struct std::char_traits<unsigned short> > & __ptr64 __cdecl std::basic_istream<unsigned short,struct std::char_traits<unsigned short> >::get(class std::basic_streambuf<unsigned short,struct std::char_traits<unsigned short> > & __ptr64) __ptr64
?get@?$basic_istream@GU?$char_traits@G@std@@@std@@QEAAAEAV12@AEAV?$basic_streambuf@GU?$char_traits@G@std@@@2@@Z
; public: class std::basic_istream<unsigned short,struct std::char_traits<unsigned short> > & __ptr64 __cdecl std::basic_istream<unsigned short,struct std::char_traits<unsigned short> >::get(class std::basic_streambuf<unsigned short,struct std::char_traits<unsigned short> > & __ptr64,unsigned short) __ptr64
?get@?$basic_istream@GU?$char_traits@G@std@@@std@@QEAAAEAV12@AEAV?$basic_streambuf@GU?$char_traits@G@std@@@2@G@Z
; public: class std::basic_istream<unsigned short,struct std::char_traits<unsigned short> > & __ptr64 __cdecl std::basic_istream<unsigned short,struct std::char_traits<unsigned short> >::get(unsigned short * __ptr64,__int64) __ptr64
?get@?$basic_istream@GU?$char_traits@G@std@@@std@@QEAAAEAV12@PEAG_J@Z
; public: class std::basic_istream<unsigned short,struct std::char_traits<unsigned short> > & __ptr64 __cdecl std::basic_istream<unsigned short,struct std::char_traits<unsigned short> >::get(unsigned short * __ptr64,__int64,unsigned short) __ptr64
?get@?$basic_istream@GU?$char_traits@G@std@@@std@@QEAAAEAV12@PEAG_JG@Z
; public: unsigned short __cdecl std::basic_istream<unsigned short,struct std::char_traits<unsigned short> >::get(void) __ptr64
?get@?$basic_istream@GU?$char_traits@G@std@@@std@@QEAAGXZ
; public: class std::basic_string<char,struct std::char_traits<char>,class std::allocator<char> >  __cdecl std::messages<char>::get(int,int,int,class std::basic_string<char,struct std::char_traits<char>,class std::allocator<char> > const & __ptr64)const  __ptr64
?get@?$messages@D@std@@QEBA?AV?$basic_string@DU?$char_traits@D@std@@V?$allocator@D@2@@2@HHHAEBV32@@Z
; public: class std::basic_string<unsigned short,struct std::char_traits<unsigned short>,class std::allocator<unsigned short> >  __cdecl std::messages<unsigned short>::get(int,int,int,class std::basic_string<unsigned short,struct std::char_traits<unsigned short>,class std::allocator<unsigned short> > const & __ptr64)const  __ptr64
?get@?$messages@G@std@@QEBA?AV?$basic_string@GU?$char_traits@G@std@@V?$allocator@G@2@@2@HHHAEBV32@@Z
; public: class std::istreambuf_iterator<char,struct std::char_traits<char> >  __cdecl std::money_get<char,class std::istreambuf_iterator<char,struct std::char_traits<char> > >::get(class std::istreambuf_iterator<char,struct std::char_traits<char> >,class std::istreambuf_iterator<char,struct std::char_traits<char> >,bool,class std::ios_base & __ptr64,int & __ptr64,long double & __ptr64)const  __ptr64
?get@?$money_get@DV?$istreambuf_iterator@DU?$char_traits@D@std@@@std@@@std@@QEBA?AV?$istreambuf_iterator@DU?$char_traits@D@std@@@2@V32@0_NAEAVios_base@2@AEAHAEAO@Z
; public: class std::istreambuf_iterator<char,struct std::char_traits<char> >  __cdecl std::money_get<char,class std::istreambuf_iterator<char,struct std::char_traits<char> > >::get(class std::istreambuf_iterator<char,struct std::char_traits<char> >,class std::istreambuf_iterator<char,struct std::char_traits<char> >,bool,class std::ios_base & __ptr64,int & __ptr64,class std::basic_string<char,struct std::char_traits<char>,class std::allocator<char> > & __ptr64)const  __ptr64
?get@?$money_get@DV?$istreambuf_iterator@DU?$char_traits@D@std@@@std@@@std@@QEBA?AV?$istreambuf_iterator@DU?$char_traits@D@std@@@2@V32@0_NAEAVios_base@2@AEAHAEAV?$basic_string@DU?$char_traits@D@std@@V?$allocator@D@2@@2@@Z
; public: class std::istreambuf_iterator<unsigned short,struct std::char_traits<unsigned short> >  __cdecl std::money_get<unsigned short,class std::istreambuf_iterator<unsigned short,struct std::char_traits<unsigned short> > >::get(class std::istreambuf_iterator<unsigned short,struct std::char_traits<unsigned short> >,class std::istreambuf_iterator<unsigned short,struct std::char_traits<unsigned short> >,bool,class std::ios_base & __ptr64,int & __ptr64,long double & __ptr64)const  __ptr64
?get@?$money_get@GV?$istreambuf_iterator@GU?$char_traits@G@std@@@std@@@std@@QEBA?AV?$istreambuf_iterator@GU?$char_traits@G@std@@@2@V32@0_NAEAVios_base@2@AEAHAEAO@Z
; public: class std::istreambuf_iterator<unsigned short,struct std::char_traits<unsigned short> >  __cdecl std::money_get<unsigned short,class std::istreambuf_iterator<unsigned short,struct std::char_traits<unsigned short> > >::get(class std::istreambuf_iterator<unsigned short,struct std::char_traits<unsigned short> >,class std::istreambuf_iterator<unsigned short,struct std::char_traits<unsigned short> >,bool,class std::ios_base & __ptr64,int & __ptr64,class std::basic_string<unsigned short,struct std::char_traits<unsigned short>,class std::allocator<unsigned short> > & __ptr64)const  __ptr64
?get@?$money_get@GV?$istreambuf_iterator@GU?$char_traits@G@std@@@std@@@std@@QEBA?AV?$istreambuf_iterator@GU?$char_traits@G@std@@@2@V32@0_NAEAVios_base@2@AEAHAEAV?$basic_string@GU?$char_traits@G@std@@V?$allocator@G@2@@2@@Z
; public: class std::istreambuf_iterator<char,struct std::char_traits<char> >  __cdecl std::num_get<char,class std::istreambuf_iterator<char,struct std::char_traits<char> > >::get(class std::istreambuf_iterator<char,struct std::char_traits<char> >,class std::istreambuf_iterator<char,struct std::char_traits<char> >,class std::ios_base & __ptr64,int & __ptr64,unsigned short & __ptr64)const  __ptr64
?get@?$num_get@DV?$istreambuf_iterator@DU?$char_traits@D@std@@@std@@@std@@QEBA?AV?$istreambuf_iterator@DU?$char_traits@D@std@@@2@V32@0AEAVios_base@2@AEAHAEAG@Z
; public: class std::istreambuf_iterator<char,struct std::char_traits<char> >  __cdecl std::num_get<char,class std::istreambuf_iterator<char,struct std::char_traits<char> > >::get(class std::istreambuf_iterator<char,struct std::char_traits<char> >,class std::istreambuf_iterator<char,struct std::char_traits<char> >,class std::ios_base & __ptr64,int & __ptr64,unsigned int & __ptr64)const  __ptr64
?get@?$num_get@DV?$istreambuf_iterator@DU?$char_traits@D@std@@@std@@@std@@QEBA?AV?$istreambuf_iterator@DU?$char_traits@D@std@@@2@V32@0AEAVios_base@2@AEAHAEAI@Z
; public: class std::istreambuf_iterator<char,struct std::char_traits<char> >  __cdecl std::num_get<char,class std::istreambuf_iterator<char,struct std::char_traits<char> > >::get(class std::istreambuf_iterator<char,struct std::char_traits<char> >,class std::istreambuf_iterator<char,struct std::char_traits<char> >,class std::ios_base & __ptr64,int & __ptr64,long & __ptr64)const  __ptr64
?get@?$num_get@DV?$istreambuf_iterator@DU?$char_traits@D@std@@@std@@@std@@QEBA?AV?$istreambuf_iterator@DU?$char_traits@D@std@@@2@V32@0AEAVios_base@2@AEAHAEAJ@Z
; public: class std::istreambuf_iterator<char,struct std::char_traits<char> >  __cdecl std::num_get<char,class std::istreambuf_iterator<char,struct std::char_traits<char> > >::get(class std::istreambuf_iterator<char,struct std::char_traits<char> >,class std::istreambuf_iterator<char,struct std::char_traits<char> >,class std::ios_base & __ptr64,int & __ptr64,unsigned long & __ptr64)const  __ptr64
?get@?$num_get@DV?$istreambuf_iterator@DU?$char_traits@D@std@@@std@@@std@@QEBA?AV?$istreambuf_iterator@DU?$char_traits@D@std@@@2@V32@0AEAVios_base@2@AEAHAEAK@Z
; public: class std::istreambuf_iterator<char,struct std::char_traits<char> >  __cdecl std::num_get<char,class std::istreambuf_iterator<char,struct std::char_traits<char> > >::get(class std::istreambuf_iterator<char,struct std::char_traits<char> >,class std::istreambuf_iterator<char,struct std::char_traits<char> >,class std::ios_base & __ptr64,int & __ptr64,float & __ptr64)const  __ptr64
?get@?$num_get@DV?$istreambuf_iterator@DU?$char_traits@D@std@@@std@@@std@@QEBA?AV?$istreambuf_iterator@DU?$char_traits@D@std@@@2@V32@0AEAVios_base@2@AEAHAEAM@Z
; public: class std::istreambuf_iterator<char,struct std::char_traits<char> >  __cdecl std::num_get<char,class std::istreambuf_iterator<char,struct std::char_traits<char> > >::get(class std::istreambuf_iterator<char,struct std::char_traits<char> >,class std::istreambuf_iterator<char,struct std::char_traits<char> >,class std::ios_base & __ptr64,int & __ptr64,double & __ptr64)const  __ptr64
?get@?$num_get@DV?$istreambuf_iterator@DU?$char_traits@D@std@@@std@@@std@@QEBA?AV?$istreambuf_iterator@DU?$char_traits@D@std@@@2@V32@0AEAVios_base@2@AEAHAEAN@Z
; public: class std::istreambuf_iterator<char,struct std::char_traits<char> >  __cdecl std::num_get<char,class std::istreambuf_iterator<char,struct std::char_traits<char> > >::get(class std::istreambuf_iterator<char,struct std::char_traits<char> >,class std::istreambuf_iterator<char,struct std::char_traits<char> >,class std::ios_base & __ptr64,int & __ptr64,long double & __ptr64)const  __ptr64
?get@?$num_get@DV?$istreambuf_iterator@DU?$char_traits@D@std@@@std@@@std@@QEBA?AV?$istreambuf_iterator@DU?$char_traits@D@std@@@2@V32@0AEAVios_base@2@AEAHAEAO@Z
; public: class std::istreambuf_iterator<char,struct std::char_traits<char> >  __cdecl std::num_get<char,class std::istreambuf_iterator<char,struct std::char_traits<char> > >::get(class std::istreambuf_iterator<char,struct std::char_traits<char> >,class std::istreambuf_iterator<char,struct std::char_traits<char> >,class std::ios_base & __ptr64,int & __ptr64,void * __ptr64 & __ptr64)const  __ptr64
?get@?$num_get@DV?$istreambuf_iterator@DU?$char_traits@D@std@@@std@@@std@@QEBA?AV?$istreambuf_iterator@DU?$char_traits@D@std@@@2@V32@0AEAVios_base@2@AEAHAEAPEAX@Z
; public: class std::istreambuf_iterator<char,struct std::char_traits<char> >  __cdecl std::num_get<char,class std::istreambuf_iterator<char,struct std::char_traits<char> > >::get(class std::istreambuf_iterator<char,struct std::char_traits<char> >,class std::istreambuf_iterator<char,struct std::char_traits<char> >,class std::ios_base & __ptr64,int & __ptr64,__int64 & __ptr64)const  __ptr64
?get@?$num_get@DV?$istreambuf_iterator@DU?$char_traits@D@std@@@std@@@std@@QEBA?AV?$istreambuf_iterator@DU?$char_traits@D@std@@@2@V32@0AEAVios_base@2@AEAHAEA_J@Z
; public: class std::istreambuf_iterator<char,struct std::char_traits<char> >  __cdecl std::num_get<char,class std::istreambuf_iterator<char,struct std::char_traits<char> > >::get(class std::istreambuf_iterator<char,struct std::char_traits<char> >,class std::istreambuf_iterator<char,struct std::char_traits<char> >,class std::ios_base & __ptr64,int & __ptr64,unsigned __int64 & __ptr64)const  __ptr64
?get@?$num_get@DV?$istreambuf_iterator@DU?$char_traits@D@std@@@std@@@std@@QEBA?AV?$istreambuf_iterator@DU?$char_traits@D@std@@@2@V32@0AEAVios_base@2@AEAHAEA_K@Z
; public: class std::istreambuf_iterator<char,struct std::char_traits<char> >  __cdecl std::num_get<char,class std::istreambuf_iterator<char,struct std::char_traits<char> > >::get(class std::istreambuf_iterator<char,struct std::char_traits<char> >,class std::istreambuf_iterator<char,struct std::char_traits<char> >,class std::ios_base & __ptr64,int & __ptr64,bool & __ptr64)const  __ptr64
?get@?$num_get@DV?$istreambuf_iterator@DU?$char_traits@D@std@@@std@@@std@@QEBA?AV?$istreambuf_iterator@DU?$char_traits@D@std@@@2@V32@0AEAVios_base@2@AEAHAEA_N@Z
; public: class std::istreambuf_iterator<unsigned short,struct std::char_traits<unsigned short> >  __cdecl std::num_get<unsigned short,class std::istreambuf_iterator<unsigned short,struct std::char_traits<unsigned short> > >::get(class std::istreambuf_iterator<unsigned short,struct std::char_traits<unsigned short> >,class std::istreambuf_iterator<unsigned short,struct std::char_traits<unsigned short> >,class std::ios_base & __ptr64,int & __ptr64,unsigned short & __ptr64)const  __ptr64
?get@?$num_get@GV?$istreambuf_iterator@GU?$char_traits@G@std@@@std@@@std@@QEBA?AV?$istreambuf_iterator@GU?$char_traits@G@std@@@2@V32@0AEAVios_base@2@AEAHAEAG@Z
; public: class std::istreambuf_iterator<unsigned short,struct std::char_traits<unsigned short> >  __cdecl std::num_get<unsigned short,class std::istreambuf_iterator<unsigned short,struct std::char_traits<unsigned short> > >::get(class std::istreambuf_iterator<unsigned short,struct std::char_traits<unsigned short> >,class std::istreambuf_iterator<unsigned short,struct std::char_traits<unsigned short> >,class std::ios_base & __ptr64,int & __ptr64,unsigned int & __ptr64)const  __ptr64
?get@?$num_get@GV?$istreambuf_iterator@GU?$char_traits@G@std@@@std@@@std@@QEBA?AV?$istreambuf_iterator@GU?$char_traits@G@std@@@2@V32@0AEAVios_base@2@AEAHAEAI@Z
; public: class std::istreambuf_iterator<unsigned short,struct std::char_traits<unsigned short> >  __cdecl std::num_get<unsigned short,class std::istreambuf_iterator<unsigned short,struct std::char_traits<unsigned short> > >::get(class std::istreambuf_iterator<unsigned short,struct std::char_traits<unsigned short> >,class std::istreambuf_iterator<unsigned short,struct std::char_traits<unsigned short> >,class std::ios_base & __ptr64,int & __ptr64,long & __ptr64)const  __ptr64
?get@?$num_get@GV?$istreambuf_iterator@GU?$char_traits@G@std@@@std@@@std@@QEBA?AV?$istreambuf_iterator@GU?$char_traits@G@std@@@2@V32@0AEAVios_base@2@AEAHAEAJ@Z
; public: class std::istreambuf_iterator<unsigned short,struct std::char_traits<unsigned short> >  __cdecl std::num_get<unsigned short,class std::istreambuf_iterator<unsigned short,struct std::char_traits<unsigned short> > >::get(class std::istreambuf_iterator<unsigned short,struct std::char_traits<unsigned short> >,class std::istreambuf_iterator<unsigned short,struct std::char_traits<unsigned short> >,class std::ios_base & __ptr64,int & __ptr64,unsigned long & __ptr64)const  __ptr64
?get@?$num_get@GV?$istreambuf_iterator@GU?$char_traits@G@std@@@std@@@std@@QEBA?AV?$istreambuf_iterator@GU?$char_traits@G@std@@@2@V32@0AEAVios_base@2@AEAHAEAK@Z
; public: class std::istreambuf_iterator<unsigned short,struct std::char_traits<unsigned short> >  __cdecl std::num_get<unsigned short,class std::istreambuf_iterator<unsigned short,struct std::char_traits<unsigned short> > >::get(class std::istreambuf_iterator<unsigned short,struct std::char_traits<unsigned short> >,class std::istreambuf_iterator<unsigned short,struct std::char_traits<unsigned short> >,class std::ios_base & __ptr64,int & __ptr64,float & __ptr64)const  __ptr64
?get@?$num_get@GV?$istreambuf_iterator@GU?$char_traits@G@std@@@std@@@std@@QEBA?AV?$istreambuf_iterator@GU?$char_traits@G@std@@@2@V32@0AEAVios_base@2@AEAHAEAM@Z
; public: class std::istreambuf_iterator<unsigned short,struct std::char_traits<unsigned short> >  __cdecl std::num_get<unsigned short,class std::istreambuf_iterator<unsigned short,struct std::char_traits<unsigned short> > >::get(class std::istreambuf_iterator<unsigned short,struct std::char_traits<unsigned short> >,class std::istreambuf_iterator<unsigned short,struct std::char_traits<unsigned short> >,class std::ios_base & __ptr64,int & __ptr64,double & __ptr64)const  __ptr64
?get@?$num_get@GV?$istreambuf_iterator@GU?$char_traits@G@std@@@std@@@std@@QEBA?AV?$istreambuf_iterator@GU?$char_traits@G@std@@@2@V32@0AEAVios_base@2@AEAHAEAN@Z
; public: class std::istreambuf_iterator<unsigned short,struct std::char_traits<unsigned short> >  __cdecl std::num_get<unsigned short,class std::istreambuf_iterator<unsigned short,struct std::char_traits<unsigned short> > >::get(class std::istreambuf_iterator<unsigned short,struct std::char_traits<unsigned short> >,class std::istreambuf_iterator<unsigned short,struct std::char_traits<unsigned short> >,class std::ios_base & __ptr64,int & __ptr64,long double & __ptr64)const  __ptr64
?get@?$num_get@GV?$istreambuf_iterator@GU?$char_traits@G@std@@@std@@@std@@QEBA?AV?$istreambuf_iterator@GU?$char_traits@G@std@@@2@V32@0AEAVios_base@2@AEAHAEAO@Z
; public: class std::istreambuf_iterator<unsigned short,struct std::char_traits<unsigned short> >  __cdecl std::num_get<unsigned short,class std::istreambuf_iterator<unsigned short,struct std::char_traits<unsigned short> > >::get(class std::istreambuf_iterator<unsigned short,struct std::char_traits<unsigned short> >,class std::istreambuf_iterator<unsigned short,struct std::char_traits<unsigned short> >,class std::ios_base & __ptr64,int & __ptr64,void * __ptr64 & __ptr64)const  __ptr64
?get@?$num_get@GV?$istreambuf_iterator@GU?$char_traits@G@std@@@std@@@std@@QEBA?AV?$istreambuf_iterator@GU?$char_traits@G@std@@@2@V32@0AEAVios_base@2@AEAHAEAPEAX@Z
; public: class std::istreambuf_iterator<unsigned short,struct std::char_traits<unsigned short> >  __cdecl std::num_get<unsigned short,class std::istreambuf_iterator<unsigned short,struct std::char_traits<unsigned short> > >::get(class std::istreambuf_iterator<unsigned short,struct std::char_traits<unsigned short> >,class std::istreambuf_iterator<unsigned short,struct std::char_traits<unsigned short> >,class std::ios_base & __ptr64,int & __ptr64,__int64 & __ptr64)const  __ptr64
?get@?$num_get@GV?$istreambuf_iterator@GU?$char_traits@G@std@@@std@@@std@@QEBA?AV?$istreambuf_iterator@GU?$char_traits@G@std@@@2@V32@0AEAVios_base@2@AEAHAEA_J@Z
; public: class std::istreambuf_iterator<unsigned short,struct std::char_traits<unsigned short> >  __cdecl std::num_get<unsigned short,class std::istreambuf_iterator<unsigned short,struct std::char_traits<unsigned short> > >::get(class std::istreambuf_iterator<unsigned short,struct std::char_traits<unsigned short> >,class std::istreambuf_iterator<unsigned short,struct std::char_traits<unsigned short> >,class std::ios_base & __ptr64,int & __ptr64,unsigned __int64 & __ptr64)const  __ptr64
?get@?$num_get@GV?$istreambuf_iterator@GU?$char_traits@G@std@@@std@@@std@@QEBA?AV?$istreambuf_iterator@GU?$char_traits@G@std@@@2@V32@0AEAVios_base@2@AEAHAEA_K@Z
; public: class std::istreambuf_iterator<unsigned short,struct std::char_traits<unsigned short> >  __cdecl std::num_get<unsigned short,class std::istreambuf_iterator<unsigned short,struct std::char_traits<unsigned short> > >::get(class std::istreambuf_iterator<unsigned short,struct std::char_traits<unsigned short> >,class std::istreambuf_iterator<unsigned short,struct std::char_traits<unsigned short> >,class std::ios_base & __ptr64,int & __ptr64,bool & __ptr64)const  __ptr64
?get@?$num_get@GV?$istreambuf_iterator@GU?$char_traits@G@std@@@std@@@std@@QEBA?AV?$istreambuf_iterator@GU?$char_traits@G@std@@@2@V32@0AEAVios_base@2@AEAHAEA_N@Z
; public: class std::allocator<char>  __cdecl std::basic_string<char,struct std::char_traits<char>,class std::allocator<char> >::get_allocator(void)const  __ptr64
?get_allocator@?$basic_string@DU?$char_traits@D@std@@V?$allocator@D@2@@std@@QEBA?AV?$allocator@D@2@XZ
; public: class std::allocator<unsigned short>  __cdecl std::basic_string<unsigned short,struct std::char_traits<unsigned short>,class std::allocator<unsigned short> >::get_allocator(void)const  __ptr64
?get_allocator@?$basic_string@GU?$char_traits@G@std@@V?$allocator@G@2@@std@@QEBA?AV?$allocator@G@2@XZ
; public: class std::istreambuf_iterator<char,struct std::char_traits<char> >  __cdecl std::time_get<char,class std::istreambuf_iterator<char,struct std::char_traits<char> > >::get_date(class std::istreambuf_iterator<char,struct std::char_traits<char> >,class std::istreambuf_iterator<char,struct std::char_traits<char> >,class std::ios_base & __ptr64,int & __ptr64,struct tm * __ptr64)const  __ptr64
?get_date@?$time_get@DV?$istreambuf_iterator@DU?$char_traits@D@std@@@std@@@std@@QEBA?AV?$istreambuf_iterator@DU?$char_traits@D@std@@@2@V32@0AEAVios_base@2@AEAHPEAUtm@@@Z
; public: class std::istreambuf_iterator<unsigned short,struct std::char_traits<unsigned short> >  __cdecl std::time_get<unsigned short,class std::istreambuf_iterator<unsigned short,struct std::char_traits<unsigned short> > >::get_date(class std::istreambuf_iterator<unsigned short,struct std::char_traits<unsigned short> >,class std::istreambuf_iterator<unsigned short,struct std::char_traits<unsigned short> >,class std::ios_base & __ptr64,int & __ptr64,struct tm * __ptr64)const  __ptr64
?get_date@?$time_get@GV?$istreambuf_iterator@GU?$char_traits@G@std@@@std@@@std@@QEBA?AV?$istreambuf_iterator@GU?$char_traits@G@std@@@2@V32@0AEAVios_base@2@AEAHPEAUtm@@@Z
; public: class std::istreambuf_iterator<char,struct std::char_traits<char> >  __cdecl std::time_get<char,class std::istreambuf_iterator<char,struct std::char_traits<char> > >::get_monthname(class std::istreambuf_iterator<char,struct std::char_traits<char> >,class std::istreambuf_iterator<char,struct std::char_traits<char> >,class std::ios_base & __ptr64,int & __ptr64,struct tm * __ptr64)const  __ptr64
?get_monthname@?$time_get@DV?$istreambuf_iterator@DU?$char_traits@D@std@@@std@@@std@@QEBA?AV?$istreambuf_iterator@DU?$char_traits@D@std@@@2@V32@0AEAVios_base@2@AEAHPEAUtm@@@Z
; public: class std::istreambuf_iterator<unsigned short,struct std::char_traits<unsigned short> >  __cdecl std::time_get<unsigned short,class std::istreambuf_iterator<unsigned short,struct std::char_traits<unsigned short> > >::get_monthname(class std::istreambuf_iterator<unsigned short,struct std::char_traits<unsigned short> >,class std::istreambuf_iterator<unsigned short,struct std::char_traits<unsigned short> >,class std::ios_base & __ptr64,int & __ptr64,struct tm * __ptr64)const  __ptr64
?get_monthname@?$time_get@GV?$istreambuf_iterator@GU?$char_traits@G@std@@@std@@@std@@QEBA?AV?$istreambuf_iterator@GU?$char_traits@G@std@@@2@V32@0AEAVios_base@2@AEAHPEAUtm@@@Z
; public: class std::istreambuf_iterator<char,struct std::char_traits<char> >  __cdecl std::time_get<char,class std::istreambuf_iterator<char,struct std::char_traits<char> > >::get_time(class std::istreambuf_iterator<char,struct std::char_traits<char> >,class std::istreambuf_iterator<char,struct std::char_traits<char> >,class std::ios_base & __ptr64,int & __ptr64,struct tm * __ptr64)const  __ptr64
?get_time@?$time_get@DV?$istreambuf_iterator@DU?$char_traits@D@std@@@std@@@std@@QEBA?AV?$istreambuf_iterator@DU?$char_traits@D@std@@@2@V32@0AEAVios_base@2@AEAHPEAUtm@@@Z
; public: class std::istreambuf_iterator<unsigned short,struct std::char_traits<unsigned short> >  __cdecl std::time_get<unsigned short,class std::istreambuf_iterator<unsigned short,struct std::char_traits<unsigned short> > >::get_time(class std::istreambuf_iterator<unsigned short,struct std::char_traits<unsigned short> >,class std::istreambuf_iterator<unsigned short,struct std::char_traits<unsigned short> >,class std::ios_base & __ptr64,int & __ptr64,struct tm * __ptr64)const  __ptr64
?get_time@?$time_get@GV?$istreambuf_iterator@GU?$char_traits@G@std@@@std@@@std@@QEBA?AV?$istreambuf_iterator@GU?$char_traits@G@std@@@2@V32@0AEAVios_base@2@AEAHPEAUtm@@@Z
; public: class std::istreambuf_iterator<char,struct std::char_traits<char> >  __cdecl std::time_get<char,class std::istreambuf_iterator<char,struct std::char_traits<char> > >::get_weekday(class std::istreambuf_iterator<char,struct std::char_traits<char> >,class std::istreambuf_iterator<char,struct std::char_traits<char> >,class std::ios_base & __ptr64,int & __ptr64,struct tm * __ptr64)const  __ptr64
?get_weekday@?$time_get@DV?$istreambuf_iterator@DU?$char_traits@D@std@@@std@@@std@@QEBA?AV?$istreambuf_iterator@DU?$char_traits@D@std@@@2@V32@0AEAVios_base@2@AEAHPEAUtm@@@Z
; public: class std::istreambuf_iterator<unsigned short,struct std::char_traits<unsigned short> >  __cdecl std::time_get<unsigned short,class std::istreambuf_iterator<unsigned short,struct std::char_traits<unsigned short> > >::get_weekday(class std::istreambuf_iterator<unsigned short,struct std::char_traits<unsigned short> >,class std::istreambuf_iterator<unsigned short,struct std::char_traits<unsigned short> >,class std::ios_base & __ptr64,int & __ptr64,struct tm * __ptr64)const  __ptr64
?get_weekday@?$time_get@GV?$istreambuf_iterator@GU?$char_traits@G@std@@@std@@@std@@QEBA?AV?$istreambuf_iterator@GU?$char_traits@G@std@@@2@V32@0AEAVios_base@2@AEAHPEAUtm@@@Z
; public: class std::istreambuf_iterator<char,struct std::char_traits<char> >  __cdecl std::time_get<char,class std::istreambuf_iterator<char,struct std::char_traits<char> > >::get_year(class std::istreambuf_iterator<char,struct std::char_traits<char> >,class std::istreambuf_iterator<char,struct std::char_traits<char> >,class std::ios_base & __ptr64,int & __ptr64,struct tm * __ptr64)const  __ptr64
?get_year@?$time_get@DV?$istreambuf_iterator@DU?$char_traits@D@std@@@std@@@std@@QEBA?AV?$istreambuf_iterator@DU?$char_traits@D@std@@@2@V32@0AEAVios_base@2@AEAHPEAUtm@@@Z
; public: class std::istreambuf_iterator<unsigned short,struct std::char_traits<unsigned short> >  __cdecl std::time_get<unsigned short,class std::istreambuf_iterator<unsigned short,struct std::char_traits<unsigned short> > >::get_year(class std::istreambuf_iterator<unsigned short,struct std::char_traits<unsigned short> >,class std::istreambuf_iterator<unsigned short,struct std::char_traits<unsigned short> >,class std::ios_base & __ptr64,int & __ptr64,struct tm * __ptr64)const  __ptr64
?get_year@?$time_get@GV?$istreambuf_iterator@GU?$char_traits@G@std@@@std@@@std@@QEBA?AV?$istreambuf_iterator@GU?$char_traits@G@std@@@2@V32@0AEAVios_base@2@AEAHPEAUtm@@@Z
; public: class std::basic_istream<char,struct std::char_traits<char> > & __ptr64 __cdecl std::basic_istream<char,struct std::char_traits<char> >::getline(char * __ptr64,__int64) __ptr64
?getline@?$basic_istream@DU?$char_traits@D@std@@@std@@QEAAAEAV12@PEAD_J@Z
; public: class std::basic_istream<char,struct std::char_traits<char> > & __ptr64 __cdecl std::basic_istream<char,struct std::char_traits<char> >::getline(char * __ptr64,__int64,char) __ptr64
?getline@?$basic_istream@DU?$char_traits@D@std@@@std@@QEAAAEAV12@PEAD_JD@Z
; public: class std::basic_istream<unsigned short,struct std::char_traits<unsigned short> > & __ptr64 __cdecl std::basic_istream<unsigned short,struct std::char_traits<unsigned short> >::getline(unsigned short * __ptr64,__int64) __ptr64
?getline@?$basic_istream@GU?$char_traits@G@std@@@std@@QEAAAEAV12@PEAG_J@Z
; public: class std::basic_istream<unsigned short,struct std::char_traits<unsigned short> > & __ptr64 __cdecl std::basic_istream<unsigned short,struct std::char_traits<unsigned short> >::getline(unsigned short * __ptr64,__int64,unsigned short) __ptr64
?getline@?$basic_istream@GU?$char_traits@G@std@@@std@@QEAAAEAV12@PEAG_JG@Z
; class std::basic_istream<char,struct std::char_traits<char> > & __ptr64 __cdecl std::getline(class std::basic_istream<char,struct std::char_traits<char> > & __ptr64,class std::basic_string<char,struct std::char_traits<char>,class std::allocator<char> > & __ptr64)
?getline@std@@YAAEAV?$basic_istream@DU?$char_traits@D@std@@@1@AEAV21@AEAV?$basic_string@DU?$char_traits@D@std@@V?$allocator@D@2@@1@@Z
; class std::basic_istream<char,struct std::char_traits<char> > & __ptr64 __cdecl std::getline(class std::basic_istream<char,struct std::char_traits<char> > & __ptr64,class std::basic_string<char,struct std::char_traits<char>,class std::allocator<char> > & __ptr64,char)
?getline@std@@YAAEAV?$basic_istream@DU?$char_traits@D@std@@@1@AEAV21@AEAV?$basic_string@DU?$char_traits@D@std@@V?$allocator@D@2@@1@D@Z
; class std::basic_istream<unsigned short,struct std::char_traits<unsigned short> > & __ptr64 __cdecl std::getline(class std::basic_istream<unsigned short,struct std::char_traits<unsigned short> > & __ptr64,class std::basic_string<unsigned short,struct std::char_traits<unsigned short>,class std::allocator<unsigned short> > & __ptr64)
?getline@std@@YAAEAV?$basic_istream@GU?$char_traits@G@std@@@1@AEAV21@AEAV?$basic_string@GU?$char_traits@G@std@@V?$allocator@G@2@@1@@Z
; class std::basic_istream<unsigned short,struct std::char_traits<unsigned short> > & __ptr64 __cdecl std::getline(class std::basic_istream<unsigned short,struct std::char_traits<unsigned short> > & __ptr64,class std::basic_string<unsigned short,struct std::char_traits<unsigned short>,class std::allocator<unsigned short> > & __ptr64,unsigned short)
?getline@std@@YAAEAV?$basic_istream@GU?$char_traits@G@std@@@1@AEAV21@AEAV?$basic_string@GU?$char_traits@G@std@@V?$allocator@G@2@@1@G@Z
; public: class std::locale  __cdecl std::basic_streambuf<char,struct std::char_traits<char> >::getloc(void) __ptr64
?getloc@?$basic_streambuf@DU?$char_traits@D@std@@@std@@QEAA?AVlocale@2@XZ
; public: class std::locale  __cdecl std::basic_streambuf<unsigned short,struct std::char_traits<unsigned short> >::getloc(void) __ptr64
?getloc@?$basic_streambuf@GU?$char_traits@G@std@@@std@@QEAA?AVlocale@2@XZ
; public: class std::locale  __cdecl std::ios_base::getloc(void)const  __ptr64
?getloc@ios_base@std@@QEBA?AVlocale@2@XZ
; public: static class std::locale  __cdecl std::locale::global(class std::locale const & __ptr64)
?global@locale@std@@SA?AV12@AEBV12@@Z
; public: bool __cdecl std::ios_base::good(void)const  __ptr64
?good@ios_base@std@@QEBA_NXZ
; protected: char * __ptr64 __cdecl std::basic_streambuf<char,struct std::char_traits<char> >::gptr(void)const  __ptr64
?gptr@?$basic_streambuf@DU?$char_traits@D@std@@@std@@IEBAPEADXZ
; protected: unsigned short * __ptr64 __cdecl std::basic_streambuf<unsigned short,struct std::char_traits<unsigned short> >::gptr(void)const  __ptr64
?gptr@?$basic_streambuf@GU?$char_traits@G@std@@@std@@IEBAPEAGXZ
; public: class std::basic_string<char,struct std::char_traits<char>,class std::allocator<char> >  __cdecl std::_Mpunct<char>::grouping(void)const  __ptr64
?grouping@?$_Mpunct@D@std@@QEBA?AV?$basic_string@DU?$char_traits@D@std@@V?$allocator@D@2@@2@XZ
; public: class std::basic_string<char,struct std::char_traits<char>,class std::allocator<char> >  __cdecl std::_Mpunct<unsigned short>::grouping(void)const  __ptr64
?grouping@?$_Mpunct@G@std@@QEBA?AV?$basic_string@DU?$char_traits@D@std@@V?$allocator@D@2@@2@XZ
; public: class std::basic_string<char,struct std::char_traits<char>,class std::allocator<char> >  __cdecl std::numpunct<char>::grouping(void)const  __ptr64
?grouping@?$numpunct@D@std@@QEBA?AV?$basic_string@DU?$char_traits@D@std@@V?$allocator@D@2@@2@XZ
; public: class std::basic_string<char,struct std::char_traits<char>,class std::allocator<char> >  __cdecl std::numpunct<unsigned short>::grouping(void)const  __ptr64
?grouping@?$numpunct@G@std@@QEBA?AV?$basic_string@DU?$char_traits@D@std@@V?$allocator@D@2@@2@XZ
; public: long __cdecl std::collate<char>::hash(char const * __ptr64,char const * __ptr64)const  __ptr64
?hash@?$collate@D@std@@QEBAJPEBD0@Z
; public: long __cdecl std::collate<unsigned short>::hash(unsigned short const * __ptr64,unsigned short const * __ptr64)const  __ptr64
?hash@?$collate@G@std@@QEBAJPEBG0@Z
; public: static class std::locale::id  std::codecvt<char,char,int>::id
?id@?$codecvt@DDH@std@@2V0locale@2@A DATA
; public: static class std::locale::id  std::codecvt<unsigned short,char,int>::id
?id@?$codecvt@GDH@std@@2V0locale@2@A DATA
; public: static class std::locale::id  std::collate<char>::id
?id@?$collate@D@std@@2V0locale@2@A DATA
; public: static class std::locale::id  std::collate<unsigned short>::id
?id@?$collate@G@std@@2V0locale@2@A DATA
; public: static class std::locale::id  std::ctype<char>::id
?id@?$ctype@D@std@@2V0locale@2@A DATA
; public: static class std::locale::id  std::ctype<unsigned short>::id
?id@?$ctype@G@std@@2V0locale@2@A DATA
; public: static class std::locale::id  std::messages<char>::id
?id@?$messages@D@std@@2V0locale@2@A DATA
; public: static class std::locale::id  std::messages<unsigned short>::id
?id@?$messages@G@std@@2V0locale@2@A DATA
; public: static class std::locale::id  std::money_get<char,class std::istreambuf_iterator<char,struct std::char_traits<char> > >::id
?id@?$money_get@DV?$istreambuf_iterator@DU?$char_traits@D@std@@@std@@@std@@2V0locale@2@A DATA
; public: static class std::locale::id  std::money_get<unsigned short,class std::istreambuf_iterator<unsigned short,struct std::char_traits<unsigned short> > >::id
?id@?$money_get@GV?$istreambuf_iterator@GU?$char_traits@G@std@@@std@@@std@@2V0locale@2@A DATA
; public: static class std::locale::id  std::money_put<char,class std::ostreambuf_iterator<char,struct std::char_traits<char> > >::id
?id@?$money_put@DV?$ostreambuf_iterator@DU?$char_traits@D@std@@@std@@@std@@2V0locale@2@A DATA
; public: static class std::locale::id  std::money_put<unsigned short,class std::ostreambuf_iterator<unsigned short,struct std::char_traits<unsigned short> > >::id
?id@?$money_put@GV?$ostreambuf_iterator@GU?$char_traits@G@std@@@std@@@std@@2V0locale@2@A DATA
; public: static class std::locale::id  std::moneypunct<char,1>::id
?id@?$moneypunct@D$00@std@@2V0locale@2@A DATA
; public: static class std::locale::id  std::moneypunct<char,0>::id
?id@?$moneypunct@D$0A@@std@@2V0locale@2@A DATA
; public: static class std::locale::id  std::moneypunct<unsigned short,1>::id
?id@?$moneypunct@G$00@std@@2V0locale@2@A DATA
; public: static class std::locale::id  std::moneypunct<unsigned short,0>::id
?id@?$moneypunct@G$0A@@std@@2V0locale@2@A DATA
; public: static class std::locale::id  std::num_get<char,class std::istreambuf_iterator<char,struct std::char_traits<char> > >::id
?id@?$num_get@DV?$istreambuf_iterator@DU?$char_traits@D@std@@@std@@@std@@2V0locale@2@A DATA
; public: static class std::locale::id  std::num_get<unsigned short,class std::istreambuf_iterator<unsigned short,struct std::char_traits<unsigned short> > >::id
?id@?$num_get@GV?$istreambuf_iterator@GU?$char_traits@G@std@@@std@@@std@@2V0locale@2@A DATA
; public: static class std::locale::id  std::num_put<char,class std::ostreambuf_iterator<char,struct std::char_traits<char> > >::id
?id@?$num_put@DV?$ostreambuf_iterator@DU?$char_traits@D@std@@@std@@@std@@2V0locale@2@A DATA
; public: static class std::locale::id  std::num_put<unsigned short,class std::ostreambuf_iterator<unsigned short,struct std::char_traits<unsigned short> > >::id
?id@?$num_put@GV?$ostreambuf_iterator@GU?$char_traits@G@std@@@std@@@std@@2V0locale@2@A DATA
; public: static class std::locale::id  std::numpunct<char>::id
?id@?$numpunct@D@std@@2V0locale@2@A DATA
; public: static class std::locale::id  std::numpunct<unsigned short>::id
?id@?$numpunct@G@std@@2V0locale@2@A DATA
; public: static class std::locale::id  std::time_get<char,class std::istreambuf_iterator<char,struct std::char_traits<char> > >::id
?id@?$time_get@DV?$istreambuf_iterator@DU?$char_traits@D@std@@@std@@@std@@2V0locale@2@A DATA
; public: static class std::locale::id  std::time_get<unsigned short,class std::istreambuf_iterator<unsigned short,struct std::char_traits<unsigned short> > >::id
?id@?$time_get@GV?$istreambuf_iterator@GU?$char_traits@G@std@@@std@@@std@@2V0locale@2@A DATA
; public: static class std::locale::id  std::time_put<char,class std::ostreambuf_iterator<char,struct std::char_traits<char> > >::id
?id@?$time_put@DV?$ostreambuf_iterator@DU?$char_traits@D@std@@@std@@@std@@2V0locale@2@A DATA
; public: static class std::locale::id  std::time_put<unsigned short,class std::ostreambuf_iterator<unsigned short,struct std::char_traits<unsigned short> > >::id
?id@?$time_put@GV?$ostreambuf_iterator@GU?$char_traits@G@std@@@std@@@std@@2V0locale@2@A DATA
; public: class std::basic_istream<char,struct std::char_traits<char> > & __ptr64 __cdecl std::basic_istream<char,struct std::char_traits<char> >::ignore(__int64,int) __ptr64
?ignore@?$basic_istream@DU?$char_traits@D@std@@@std@@QEAAAEAV12@_JH@Z
; public: class std::basic_istream<unsigned short,struct std::char_traits<unsigned short> > & __ptr64 __cdecl std::basic_istream<unsigned short,struct std::char_traits<unsigned short> >::ignore(__int64,unsigned short) __ptr64
?ignore@?$basic_istream@GU?$char_traits@G@std@@@std@@QEAAAEAV12@_JG@Z
; public: float __cdecl std::_Complex_base<float>::imag(float const & __ptr64) __ptr64
?imag@?$_Complex_base@M@std@@QEAAMAEBM@Z
; public: float __cdecl std::_Complex_base<float>::imag(void)const  __ptr64
?imag@?$_Complex_base@M@std@@QEBAMXZ
; public: double __cdecl std::_Complex_base<double>::imag(double const & __ptr64) __ptr64
?imag@?$_Complex_base@N@std@@QEAANAEBN@Z
; public: double __cdecl std::_Complex_base<double>::imag(void)const  __ptr64
?imag@?$_Complex_base@N@std@@QEBANXZ
; public: long double __cdecl std::_Complex_base<long double>::imag(long double const & __ptr64) __ptr64
?imag@?$_Complex_base@O@std@@QEAAOAEBO@Z
; public: long double __cdecl std::_Complex_base<long double>::imag(void)const  __ptr64
?imag@?$_Complex_base@O@std@@QEBAOXZ
; float __cdecl std::imag(class std::complex<float> const & __ptr64)
?imag@std@@YAMAEBV?$complex@M@1@@Z
; double __cdecl std::imag(class std::complex<double> const & __ptr64)
?imag@std@@YANAEBV?$complex@N@1@@Z
; long double __cdecl std::imag(class std::complex<long double> const & __ptr64)
?imag@std@@YAOAEBV?$complex@O@1@@Z
; public: class std::locale  __cdecl std::basic_ios<char,struct std::char_traits<char> >::imbue(class std::locale const & __ptr64) __ptr64
?imbue@?$basic_ios@DU?$char_traits@D@std@@@std@@QEAA?AVlocale@2@AEBV32@@Z
; public: class std::locale  __cdecl std::basic_ios<unsigned short,struct std::char_traits<unsigned short> >::imbue(class std::locale const & __ptr64) __ptr64
?imbue@?$basic_ios@GU?$char_traits@G@std@@@std@@QEAA?AVlocale@2@AEBV32@@Z
; protected: virtual void __cdecl std::basic_streambuf<char,struct std::char_traits<char> >::imbue(class std::locale const & __ptr64) __ptr64
?imbue@?$basic_streambuf@DU?$char_traits@D@std@@@std@@MEAAXAEBVlocale@2@@Z
; protected: virtual void __cdecl std::basic_streambuf<unsigned short,struct std::char_traits<unsigned short> >::imbue(class std::locale const & __ptr64) __ptr64
?imbue@?$basic_streambuf@GU?$char_traits@G@std@@@std@@MEAAXAEBVlocale@2@@Z
; public: class std::locale  __cdecl std::ios_base::imbue(class std::locale const & __ptr64) __ptr64
?imbue@ios_base@std@@QEAA?AVlocale@2@AEBV32@@Z
; public: int __cdecl std::codecvt<char,char,int>::in(int & __ptr64,char const * __ptr64,char const * __ptr64,char const * __ptr64 & __ptr64,char * __ptr64,char * __ptr64,char * __ptr64 & __ptr64)const  __ptr64
?in@?$codecvt@DDH@std@@QEBAHAEAHPEBD1AEAPEBDPEAD3AEAPEAD@Z
; public: int __cdecl std::codecvt<unsigned short,char,int>::in(int & __ptr64,char const * __ptr64,char const * __ptr64,char const * __ptr64 & __ptr64,unsigned short * __ptr64,unsigned short * __ptr64,unsigned short * __ptr64 & __ptr64)const  __ptr64
?in@?$codecvt@GDH@std@@QEBAHAEAHPEBD1AEAPEBDPEAG3AEAPEAG@Z
; public: __int64 __cdecl std::basic_streambuf<char,struct std::char_traits<char> >::in_avail(void) __ptr64
?in_avail@?$basic_streambuf@DU?$char_traits@D@std@@@std@@QEAA_JXZ
; public: __int64 __cdecl std::basic_streambuf<unsigned short,struct std::char_traits<unsigned short> >::in_avail(void) __ptr64
?in_avail@?$basic_streambuf@GU?$char_traits@G@std@@@std@@QEAA_JXZ
; public: static signed char __cdecl std::numeric_limits<signed char>::infinity(void)
?infinity@?$numeric_limits@C@std@@SACXZ
; public: static char __cdecl std::numeric_limits<char>::infinity(void)
?infinity@?$numeric_limits@D@std@@SADXZ
; public: static unsigned char __cdecl std::numeric_limits<unsigned char>::infinity(void)
?infinity@?$numeric_limits@E@std@@SAEXZ
; public: static short __cdecl std::numeric_limits<short>::infinity(void)
?infinity@?$numeric_limits@F@std@@SAFXZ
; public: static unsigned short __cdecl std::numeric_limits<unsigned short>::infinity(void)
?infinity@?$numeric_limits@G@std@@SAGXZ
; public: static int __cdecl std::numeric_limits<int>::infinity(void)
?infinity@?$numeric_limits@H@std@@SAHXZ
; public: static unsigned int __cdecl std::numeric_limits<unsigned int>::infinity(void)
?infinity@?$numeric_limits@I@std@@SAIXZ
; public: static long __cdecl std::numeric_limits<long>::infinity(void)
?infinity@?$numeric_limits@J@std@@SAJXZ
; public: static unsigned long __cdecl std::numeric_limits<unsigned long>::infinity(void)
?infinity@?$numeric_limits@K@std@@SAKXZ
; public: static float __cdecl std::numeric_limits<float>::infinity(void)
?infinity@?$numeric_limits@M@std@@SAMXZ
; public: static double __cdecl std::numeric_limits<double>::infinity(void)
?infinity@?$numeric_limits@N@std@@SANXZ
; public: static long double __cdecl std::numeric_limits<long double>::infinity(void)
?infinity@?$numeric_limits@O@std@@SAOXZ
; public: static bool __cdecl std::numeric_limits<bool>::infinity(void)
?infinity@?$numeric_limits@_N@std@@SA_NXZ
; protected: void __cdecl std::basic_ios<char,struct std::char_traits<char> >::init(class std::basic_streambuf<char,struct std::char_traits<char> > * __ptr64,bool) __ptr64
?init@?$basic_ios@DU?$char_traits@D@std@@@std@@IEAAXPEAV?$basic_streambuf@DU?$char_traits@D@std@@@2@_N@Z
; protected: void __cdecl std::basic_ios<unsigned short,struct std::char_traits<unsigned short> >::init(class std::basic_streambuf<unsigned short,struct std::char_traits<unsigned short> > * __ptr64,bool) __ptr64
?init@?$basic_ios@GU?$char_traits@G@std@@@std@@IEAAXPEAV?$basic_streambuf@GU?$char_traits@G@std@@@2@_N@Z
; public: class std::basic_string<char,struct std::char_traits<char>,class std::allocator<char> > & __ptr64 __cdecl std::basic_string<char,struct std::char_traits<char>,class std::allocator<char> >::insert(unsigned __int64,unsigned __int64,char) __ptr64
?insert@?$basic_string@DU?$char_traits@D@std@@V?$allocator@D@2@@std@@QEAAAEAV12@_K0D@Z
; public: class std::basic_string<char,struct std::char_traits<char>,class std::allocator<char> > & __ptr64 __cdecl std::basic_string<char,struct std::char_traits<char>,class std::allocator<char> >::insert(unsigned __int64,class std::basic_string<char,struct std::char_traits<char>,class std::allocator<char> > const & __ptr64,unsigned __int64,unsigned __int64) __ptr64
?insert@?$basic_string@DU?$char_traits@D@std@@V?$allocator@D@2@@std@@QEAAAEAV12@_KAEBV12@00@Z
; public: class std::basic_string<char,struct std::char_traits<char>,class std::allocator<char> > & __ptr64 __cdecl std::basic_string<char,struct std::char_traits<char>,class std::allocator<char> >::insert(unsigned __int64,class std::basic_string<char,struct std::char_traits<char>,class std::allocator<char> > const & __ptr64) __ptr64
?insert@?$basic_string@DU?$char_traits@D@std@@V?$allocator@D@2@@std@@QEAAAEAV12@_KAEBV12@@Z
; public: class std::basic_string<char,struct std::char_traits<char>,class std::allocator<char> > & __ptr64 __cdecl std::basic_string<char,struct std::char_traits<char>,class std::allocator<char> >::insert(unsigned __int64,char const * __ptr64,unsigned __int64) __ptr64
?insert@?$basic_string@DU?$char_traits@D@std@@V?$allocator@D@2@@std@@QEAAAEAV12@_KPEBD0@Z
; public: class std::basic_string<char,struct std::char_traits<char>,class std::allocator<char> > & __ptr64 __cdecl std::basic_string<char,struct std::char_traits<char>,class std::allocator<char> >::insert(unsigned __int64,char const * __ptr64) __ptr64
?insert@?$basic_string@DU?$char_traits@D@std@@V?$allocator@D@2@@std@@QEAAAEAV12@_KPEBD@Z
; public: char * __ptr64 __cdecl std::basic_string<char,struct std::char_traits<char>,class std::allocator<char> >::insert(char * __ptr64,char) __ptr64
?insert@?$basic_string@DU?$char_traits@D@std@@V?$allocator@D@2@@std@@QEAAPEADPEADD@Z
; public: void __cdecl std::basic_string<char,struct std::char_traits<char>,class std::allocator<char> >::insert(char * __ptr64,char const * __ptr64,char const * __ptr64) __ptr64
?insert@?$basic_string@DU?$char_traits@D@std@@V?$allocator@D@2@@std@@QEAAXPEADPEBD1@Z
; public: void __cdecl std::basic_string<char,struct std::char_traits<char>,class std::allocator<char> >::insert(char * __ptr64,unsigned __int64,char) __ptr64
?insert@?$basic_string@DU?$char_traits@D@std@@V?$allocator@D@2@@std@@QEAAXPEAD_KD@Z
; public: class std::basic_string<unsigned short,struct std::char_traits<unsigned short>,class std::allocator<unsigned short> > & __ptr64 __cdecl std::basic_string<unsigned short,struct std::char_traits<unsigned short>,class std::allocator<unsigned short> >::insert(unsigned __int64,unsigned __int64,unsigned short) __ptr64
?insert@?$basic_string@GU?$char_traits@G@std@@V?$allocator@G@2@@std@@QEAAAEAV12@_K0G@Z
; public: class std::basic_string<unsigned short,struct std::char_traits<unsigned short>,class std::allocator<unsigned short> > & __ptr64 __cdecl std::basic_string<unsigned short,struct std::char_traits<unsigned short>,class std::allocator<unsigned short> >::insert(unsigned __int64,class std::basic_string<unsigned short,struct std::char_traits<unsigned short>,class std::allocator<unsigned short> > const & __ptr64,unsigned __int64,unsigned __int64) __ptr64
?insert@?$basic_string@GU?$char_traits@G@std@@V?$allocator@G@2@@std@@QEAAAEAV12@_KAEBV12@00@Z
; public: class std::basic_string<unsigned short,struct std::char_traits<unsigned short>,class std::allocator<unsigned short> > & __ptr64 __cdecl std::basic_string<unsigned short,struct std::char_traits<unsigned short>,class std::allocator<unsigned short> >::insert(unsigned __int64,class std::basic_string<unsigned short,struct std::char_traits<unsigned short>,class std::allocator<unsigned short> > const & __ptr64) __ptr64
?insert@?$basic_string@GU?$char_traits@G@std@@V?$allocator@G@2@@std@@QEAAAEAV12@_KAEBV12@@Z
; public: class std::basic_string<unsigned short,struct std::char_traits<unsigned short>,class std::allocator<unsigned short> > & __ptr64 __cdecl std::basic_string<unsigned short,struct std::char_traits<unsigned short>,class std::allocator<unsigned short> >::insert(unsigned __int64,unsigned short const * __ptr64,unsigned __int64) __ptr64
?insert@?$basic_string@GU?$char_traits@G@std@@V?$allocator@G@2@@std@@QEAAAEAV12@_KPEBG0@Z
; public: class std::basic_string<unsigned short,struct std::char_traits<unsigned short>,class std::allocator<unsigned short> > & __ptr64 __cdecl std::basic_string<unsigned short,struct std::char_traits<unsigned short>,class std::allocator<unsigned short> >::insert(unsigned __int64,unsigned short const * __ptr64) __ptr64
?insert@?$basic_string@GU?$char_traits@G@std@@V?$allocator@G@2@@std@@QEAAAEAV12@_KPEBG@Z
; public: unsigned short * __ptr64 __cdecl std::basic_string<unsigned short,struct std::char_traits<unsigned short>,class std::allocator<unsigned short> >::insert(unsigned short * __ptr64,unsigned short) __ptr64
?insert@?$basic_string@GU?$char_traits@G@std@@V?$allocator@G@2@@std@@QEAAPEAGPEAGG@Z
; public: void __cdecl std::basic_string<unsigned short,struct std::char_traits<unsigned short>,class std::allocator<unsigned short> >::insert(unsigned short * __ptr64,unsigned short const * __ptr64,unsigned short const * __ptr64) __ptr64
?insert@?$basic_string@GU?$char_traits@G@std@@V?$allocator@G@2@@std@@QEAAXPEAGPEBG1@Z
; public: void __cdecl std::basic_string<unsigned short,struct std::char_traits<unsigned short>,class std::allocator<unsigned short> >::insert(unsigned short * __ptr64,unsigned __int64,unsigned short) __ptr64
?insert@?$basic_string@GU?$char_traits@G@std@@V?$allocator@G@2@@std@@QEAAXPEAG_KG@Z
; public: static bool const  std::moneypunct<char,1>::intl
?intl@?$moneypunct@D$00@std@@2_NB
; public: static bool const  std::moneypunct<char,0>::intl
?intl@?$moneypunct@D$0A@@std@@2_NB
; public: static bool const  std::moneypunct<unsigned short,1>::intl
?intl@?$moneypunct@G$00@std@@2_NB
; public: static bool const  std::moneypunct<unsigned short,0>::intl
?intl@?$moneypunct@G$0A@@std@@2_NB
; public: bool __cdecl std::basic_istream<char,struct std::char_traits<char> >::ipfx(bool) __ptr64
?ipfx@?$basic_istream@DU?$char_traits@D@std@@@std@@QEAA_N_N@Z
; public: bool __cdecl std::basic_istream<unsigned short,struct std::char_traits<unsigned short> >::ipfx(bool) __ptr64
?ipfx@?$basic_istream@GU?$char_traits@G@std@@@std@@QEAA_N_N@Z
; public: char const * __ptr64 __cdecl std::ctype<char>::is(char const * __ptr64,char const * __ptr64,short * __ptr64)const  __ptr64
?is@?$ctype@D@std@@QEBAPEBDPEBD0PEAF@Z
; public: bool __cdecl std::ctype<char>::is(short,char)const  __ptr64
?is@?$ctype@D@std@@QEBA_NFD@Z
; public: unsigned short const * __ptr64 __cdecl std::ctype<unsigned short>::is(unsigned short const * __ptr64,unsigned short const * __ptr64,short * __ptr64)const  __ptr64
?is@?$ctype@G@std@@QEBAPEBGPEBG0PEAF@Z
; public: bool __cdecl std::ctype<unsigned short>::is(short,unsigned short)const  __ptr64
?is@?$ctype@G@std@@QEBA_NFG@Z
; public: bool __cdecl std::basic_filebuf<char,struct std::char_traits<char> >::is_open(void)const  __ptr64
?is_open@?$basic_filebuf@DU?$char_traits@D@std@@@std@@QEBA_NXZ
; public: bool __cdecl std::basic_filebuf<unsigned short,struct std::char_traits<unsigned short> >::is_open(void)const  __ptr64
?is_open@?$basic_filebuf@GU?$char_traits@G@std@@@std@@QEBA_NXZ
; public: bool __cdecl std::basic_fstream<char,struct std::char_traits<char> >::is_open(void)const  __ptr64
?is_open@?$basic_fstream@DU?$char_traits@D@std@@@std@@QEBA_NXZ
; public: bool __cdecl std::basic_fstream<unsigned short,struct std::char_traits<unsigned short> >::is_open(void)const  __ptr64
?is_open@?$basic_fstream@GU?$char_traits@G@std@@@std@@QEBA_NXZ
; public: bool __cdecl std::basic_ifstream<char,struct std::char_traits<char> >::is_open(void)const  __ptr64
?is_open@?$basic_ifstream@DU?$char_traits@D@std@@@std@@QEBA_NXZ
; public: bool __cdecl std::basic_ifstream<unsigned short,struct std::char_traits<unsigned short> >::is_open(void)const  __ptr64
?is_open@?$basic_ifstream@GU?$char_traits@G@std@@@std@@QEBA_NXZ
; public: bool __cdecl std::basic_ofstream<char,struct std::char_traits<char> >::is_open(void)const  __ptr64
?is_open@?$basic_ofstream@DU?$char_traits@D@std@@@std@@QEBA_NXZ
; public: bool __cdecl std::basic_ofstream<unsigned short,struct std::char_traits<unsigned short> >::is_open(void)const  __ptr64
?is_open@?$basic_ofstream@GU?$char_traits@G@std@@@std@@QEBA_NXZ
; public: void __cdecl std::basic_istream<char,struct std::char_traits<char> >::isfx(void) __ptr64
?isfx@?$basic_istream@DU?$char_traits@D@std@@@std@@QEAAXXZ
; public: void __cdecl std::basic_istream<unsigned short,struct std::char_traits<unsigned short> >::isfx(void) __ptr64
?isfx@?$basic_istream@GU?$char_traits@G@std@@@std@@QEAAXXZ
; public: long & __ptr64 __cdecl std::ios_base::iword(int) __ptr64
?iword@ios_base@std@@QEAAAEAJH@Z
; public: static float __cdecl std::_Ctr<float>::ldexp(float,int)
?ldexp@?$_Ctr@M@std@@SAMMH@Z
; public: static double __cdecl std::_Ctr<double>::ldexp(double,int)
?ldexp@?$_Ctr@N@std@@SANNH@Z
; public: static long double __cdecl std::_Ctr<long double>::ldexp(long double,int)
?ldexp@?$_Ctr@O@std@@SAOOH@Z
; public: unsigned __int64 __cdecl std::basic_string<char,struct std::char_traits<char>,class std::allocator<char> >::length(void)const  __ptr64
?length@?$basic_string@DU?$char_traits@D@std@@V?$allocator@D@2@@std@@QEBA_KXZ
; public: unsigned __int64 __cdecl std::basic_string<unsigned short,struct std::char_traits<unsigned short>,class std::allocator<unsigned short> >::length(void)const  __ptr64
?length@?$basic_string@GU?$char_traits@G@std@@V?$allocator@G@2@@std@@QEBA_KXZ
; public: static unsigned __int64 __cdecl std::char_traits<char>::length(char const * __ptr64)
?length@?$char_traits@D@std@@SA_KPEBD@Z
; public: static unsigned __int64 __cdecl std::char_traits<unsigned short>::length(unsigned short const * __ptr64)
?length@?$char_traits@G@std@@SA_KPEBG@Z
; public: int __cdecl std::codecvt<char,char,int>::length(int & __ptr64,char const * __ptr64,char const * __ptr64,unsigned __int64)const  __ptr64
?length@?$codecvt@DDH@std@@QEBAHAEAHPEBD1_K@Z
; public: int __cdecl std::codecvt<unsigned short,char,int>::length(int & __ptr64,unsigned short const * __ptr64,unsigned short const * __ptr64,unsigned __int64)const  __ptr64
?length@?$codecvt@GDH@std@@QEBAHAEAHPEBG1_K@Z
; class std::complex<float>  __cdecl std::log10(class std::complex<float> const & __ptr64)
?log10@std@@YA?AV?$complex@M@1@AEBV21@@Z
; class std::complex<double>  __cdecl std::log10(class std::complex<double> const & __ptr64)
?log10@std@@YA?AV?$complex@N@1@AEBV21@@Z
; class std::complex<long double>  __cdecl std::log10(class std::complex<long double> const & __ptr64)
?log10@std@@YA?AV?$complex@O@1@AEBV21@@Z
; public: static float __cdecl std::_Ctr<float>::log(float)
?log@?$_Ctr@M@std@@SAMM@Z
; public: static double __cdecl std::_Ctr<double>::log(double)
?log@?$_Ctr@N@std@@SANN@Z
; public: static long double __cdecl std::_Ctr<long double>::log(long double)
?log@?$_Ctr@O@std@@SAOO@Z
; class std::complex<float>  __cdecl std::log(class std::complex<float> const & __ptr64)
?log@std@@YA?AV?$complex@M@1@AEBV21@@Z
; class std::complex<double>  __cdecl std::log(class std::complex<double> const & __ptr64)
?log@std@@YA?AV?$complex@N@1@AEBV21@@Z
; class std::complex<long double>  __cdecl std::log(class std::complex<long double> const & __ptr64)
?log@std@@YA?AV?$complex@O@1@AEBV21@@Z
; public: static bool __cdecl std::char_traits<char>::lt(char const & __ptr64,char const & __ptr64)
?lt@?$char_traits@D@std@@SA_NAEBD0@Z
; public: static bool __cdecl std::char_traits<unsigned short>::lt(unsigned short const & __ptr64,unsigned short const & __ptr64)
?lt@?$char_traits@G@std@@SA_NAEBG0@Z
; public: static signed char __cdecl std::numeric_limits<signed char>::max(void)
?max@?$numeric_limits@C@std@@SACXZ
; public: static char __cdecl std::numeric_limits<char>::max(void)
?max@?$numeric_limits@D@std@@SADXZ
; public: static unsigned char __cdecl std::numeric_limits<unsigned char>::max(void)
?max@?$numeric_limits@E@std@@SAEXZ
; public: static short __cdecl std::numeric_limits<short>::max(void)
?max@?$numeric_limits@F@std@@SAFXZ
; public: static unsigned short __cdecl std::numeric_limits<unsigned short>::max(void)
?max@?$numeric_limits@G@std@@SAGXZ
; public: static int __cdecl std::numeric_limits<int>::max(void)
?max@?$numeric_limits@H@std@@SAHXZ
; public: static unsigned int __cdecl std::numeric_limits<unsigned int>::max(void)
?max@?$numeric_limits@I@std@@SAIXZ
; public: static long __cdecl std::numeric_limits<long>::max(void)
?max@?$numeric_limits@J@std@@SAJXZ
; public: static unsigned long __cdecl std::numeric_limits<unsigned long>::max(void)
?max@?$numeric_limits@K@std@@SAKXZ
; public: static float __cdecl std::numeric_limits<float>::max(void)
?max@?$numeric_limits@M@std@@SAMXZ
; public: static double __cdecl std::numeric_limits<double>::max(void)
?max@?$numeric_limits@N@std@@SANXZ
; public: static long double __cdecl std::numeric_limits<long double>::max(void)
?max@?$numeric_limits@O@std@@SAOXZ
; public: static bool __cdecl std::numeric_limits<bool>::max(void)
?max@?$numeric_limits@_N@std@@SA_NXZ
; public: int __cdecl std::codecvt_base::max_length(void)const  __ptr64
?max_length@codecvt_base@std@@QEBAHXZ
; public: unsigned __int64 __cdecl std::basic_string<char,struct std::char_traits<char>,class std::allocator<char> >::max_size(void)const  __ptr64
?max_size@?$basic_string@DU?$char_traits@D@std@@V?$allocator@D@2@@std@@QEBA_KXZ
; public: unsigned __int64 __cdecl std::basic_string<unsigned short,struct std::char_traits<unsigned short>,class std::allocator<unsigned short> >::max_size(void)const  __ptr64
?max_size@?$basic_string@GU?$char_traits@G@std@@V?$allocator@G@2@@std@@QEBA_KXZ
; public: static signed char __cdecl std::numeric_limits<signed char>::min(void)
?min@?$numeric_limits@C@std@@SACXZ
; public: static char __cdecl std::numeric_limits<char>::min(void)
?min@?$numeric_limits@D@std@@SADXZ
; public: static unsigned char __cdecl std::numeric_limits<unsigned char>::min(void)
?min@?$numeric_limits@E@std@@SAEXZ
; public: static short __cdecl std::numeric_limits<short>::min(void)
?min@?$numeric_limits@F@std@@SAFXZ
; public: static unsigned short __cdecl std::numeric_limits<unsigned short>::min(void)
?min@?$numeric_limits@G@std@@SAGXZ
; public: static int __cdecl std::numeric_limits<int>::min(void)
?min@?$numeric_limits@H@std@@SAHXZ
; public: static unsigned int __cdecl std::numeric_limits<unsigned int>::min(void)
?min@?$numeric_limits@I@std@@SAIXZ
; public: static long __cdecl std::numeric_limits<long>::min(void)
?min@?$numeric_limits@J@std@@SAJXZ
; public: static unsigned long __cdecl std::numeric_limits<unsigned long>::min(void)
?min@?$numeric_limits@K@std@@SAKXZ
; public: static float __cdecl std::numeric_limits<float>::min(void)
?min@?$numeric_limits@M@std@@SAMXZ
; public: static double __cdecl std::numeric_limits<double>::min(void)
?min@?$numeric_limits@N@std@@SANXZ
; public: static long double __cdecl std::numeric_limits<long double>::min(void)
?min@?$numeric_limits@O@std@@SAOXZ
; public: static bool __cdecl std::numeric_limits<bool>::min(void)
?min@?$numeric_limits@_N@std@@SA_NXZ
; public: static char * __ptr64 __cdecl std::char_traits<char>::move(char * __ptr64,char const * __ptr64,unsigned __int64)
?move@?$char_traits@D@std@@SAPEADPEADPEBD_K@Z
; public: static unsigned short * __ptr64 __cdecl std::char_traits<unsigned short>::move(unsigned short * __ptr64,unsigned short const * __ptr64,unsigned __int64)
?move@?$char_traits@G@std@@SAPEAGPEAGPEBG_K@Z
; public: class std::basic_string<char,struct std::char_traits<char>,class std::allocator<char> >  __cdecl std::locale::name(void)const  __ptr64
?name@locale@std@@QEBA?AV?$basic_string@DU?$char_traits@D@std@@V?$allocator@D@2@@2@XZ
; public: char __cdecl std::basic_ios<char,struct std::char_traits<char> >::narrow(char,char)const  __ptr64
?narrow@?$basic_ios@DU?$char_traits@D@std@@@std@@QEBADDD@Z
; public: char __cdecl std::basic_ios<unsigned short,struct std::char_traits<unsigned short> >::narrow(unsigned short,char)const  __ptr64
?narrow@?$basic_ios@GU?$char_traits@G@std@@@std@@QEBADGD@Z
; public: char __cdecl std::ctype<char>::narrow(char,char)const  __ptr64
?narrow@?$ctype@D@std@@QEBADDD@Z
; public: char const * __ptr64 __cdecl std::ctype<char>::narrow(char const * __ptr64,char const * __ptr64,char,char * __ptr64)const  __ptr64
?narrow@?$ctype@D@std@@QEBAPEBDPEBD0DPEAD@Z
; public: char __cdecl std::ctype<unsigned short>::narrow(unsigned short,char)const  __ptr64
?narrow@?$ctype@G@std@@QEBADGD@Z
; public: unsigned short const * __ptr64 __cdecl std::ctype<unsigned short>::narrow(unsigned short const * __ptr64,unsigned short const * __ptr64,char,char * __ptr64)const  __ptr64
?narrow@?$ctype@G@std@@QEBAPEBGPEBG0DPEAD@Z
; public: struct std::money_base::pattern  __cdecl std::_Mpunct<char>::neg_format(void)const  __ptr64
?neg_format@?$_Mpunct@D@std@@QEBA?AUpattern@money_base@2@XZ
; public: struct std::money_base::pattern  __cdecl std::_Mpunct<unsigned short>::neg_format(void)const  __ptr64
?neg_format@?$_Mpunct@G@std@@QEBA?AUpattern@money_base@2@XZ
; public: class std::basic_string<char,struct std::char_traits<char>,class std::allocator<char> >  __cdecl std::_Mpunct<char>::negative_sign(void)const  __ptr64
?negative_sign@?$_Mpunct@D@std@@QEBA?AV?$basic_string@DU?$char_traits@D@std@@V?$allocator@D@2@@2@XZ
; public: class std::basic_string<unsigned short,struct std::char_traits<unsigned short>,class std::allocator<unsigned short> >  __cdecl std::_Mpunct<unsigned short>::negative_sign(void)const  __ptr64
?negative_sign@?$_Mpunct@G@std@@QEBA?AV?$basic_string@GU?$char_traits@G@std@@V?$allocator@G@2@@2@XZ
; float __cdecl std::norm(class std::complex<float> const & __ptr64)
?norm@std@@YAMAEBV?$complex@M@1@@Z
; double __cdecl std::norm(class std::complex<double> const & __ptr64)
?norm@std@@YANAEBV?$complex@N@1@@Z
; long double __cdecl std::norm(class std::complex<long double> const & __ptr64)
?norm@std@@YAOAEBV?$complex@O@1@@Z
; public: static int __cdecl std::char_traits<char>::not_eof(int const & __ptr64)
?not_eof@?$char_traits@D@std@@SAHAEBH@Z
; public: static unsigned short __cdecl std::char_traits<unsigned short>::not_eof(unsigned short const & __ptr64)
?not_eof@?$char_traits@G@std@@SAGAEBG@Z
; struct std::nothrow_t const  std::nothrow
?nothrow@std@@3Unothrow_t@1@B
; public: static unsigned __int64 const  std::basic_string<char,struct std::char_traits<char>,class std::allocator<char> >::npos
?npos@?$basic_string@DU?$char_traits@D@std@@V?$allocator@D@2@@std@@2_KB
; public: static unsigned __int64 const  std::basic_string<unsigned short,struct std::char_traits<unsigned short>,class std::allocator<unsigned short> >::npos
?npos@?$basic_string@GU?$char_traits@G@std@@V?$allocator@G@2@@std@@2_KB
; public: class std::basic_filebuf<char,struct std::char_traits<char> > * __ptr64 __cdecl std::basic_filebuf<char,struct std::char_traits<char> >::open(char const * __ptr64,short) __ptr64
?open@?$basic_filebuf@DU?$char_traits@D@std@@@std@@QEAAPEAV12@PEBDF@Z
; public: class std::basic_filebuf<char,struct std::char_traits<char> > * __ptr64 __cdecl std::basic_filebuf<char,struct std::char_traits<char> >::open(char const * __ptr64,int) __ptr64
?open@?$basic_filebuf@DU?$char_traits@D@std@@@std@@QEAAPEAV12@PEBDH@Z
; public: class std::basic_filebuf<unsigned short,struct std::char_traits<unsigned short> > * __ptr64 __cdecl std::basic_filebuf<unsigned short,struct std::char_traits<unsigned short> >::open(char const * __ptr64,short) __ptr64
?open@?$basic_filebuf@GU?$char_traits@G@std@@@std@@QEAAPEAV12@PEBDF@Z
; public: class std::basic_filebuf<unsigned short,struct std::char_traits<unsigned short> > * __ptr64 __cdecl std::basic_filebuf<unsigned short,struct std::char_traits<unsigned short> >::open(char const * __ptr64,int) __ptr64
?open@?$basic_filebuf@GU?$char_traits@G@std@@@std@@QEAAPEAV12@PEBDH@Z
; public: void __cdecl std::basic_fstream<char,struct std::char_traits<char> >::open(char const * __ptr64,short) __ptr64
?open@?$basic_fstream@DU?$char_traits@D@std@@@std@@QEAAXPEBDF@Z
; public: void __cdecl std::basic_fstream<char,struct std::char_traits<char> >::open(char const * __ptr64,int) __ptr64
?open@?$basic_fstream@DU?$char_traits@D@std@@@std@@QEAAXPEBDH@Z
; public: void __cdecl std::basic_fstream<unsigned short,struct std::char_traits<unsigned short> >::open(char const * __ptr64,short) __ptr64
?open@?$basic_fstream@GU?$char_traits@G@std@@@std@@QEAAXPEBDF@Z
; public: void __cdecl std::basic_fstream<unsigned short,struct std::char_traits<unsigned short> >::open(char const * __ptr64,int) __ptr64
?open@?$basic_fstream@GU?$char_traits@G@std@@@std@@QEAAXPEBDH@Z
; public: void __cdecl std::basic_ifstream<char,struct std::char_traits<char> >::open(char const * __ptr64,short) __ptr64
?open@?$basic_ifstream@DU?$char_traits@D@std@@@std@@QEAAXPEBDF@Z
; public: void __cdecl std::basic_ifstream<char,struct std::char_traits<char> >::open(char const * __ptr64,int) __ptr64
?open@?$basic_ifstream@DU?$char_traits@D@std@@@std@@QEAAXPEBDH@Z
; public: void __cdecl std::basic_ifstream<unsigned short,struct std::char_traits<unsigned short> >::open(char const * __ptr64,short) __ptr64
?open@?$basic_ifstream@GU?$char_traits@G@std@@@std@@QEAAXPEBDF@Z
; public: void __cdecl std::basic_ifstream<unsigned short,struct std::char_traits<unsigned short> >::open(char const * __ptr64,int) __ptr64
?open@?$basic_ifstream@GU?$char_traits@G@std@@@std@@QEAAXPEBDH@Z
; public: void __cdecl std::basic_ofstream<char,struct std::char_traits<char> >::open(char const * __ptr64,short) __ptr64
?open@?$basic_ofstream@DU?$char_traits@D@std@@@std@@QEAAXPEBDF@Z
; public: void __cdecl std::basic_ofstream<char,struct std::char_traits<char> >::open(char const * __ptr64,int) __ptr64
?open@?$basic_ofstream@DU?$char_traits@D@std@@@std@@QEAAXPEBDH@Z
; public: void __cdecl std::basic_ofstream<unsigned short,struct std::char_traits<unsigned short> >::open(char const * __ptr64,short) __ptr64
?open@?$basic_ofstream@GU?$char_traits@G@std@@@std@@QEAAXPEBDF@Z
; public: void __cdecl std::basic_ofstream<unsigned short,struct std::char_traits<unsigned short> >::open(char const * __ptr64,int) __ptr64
?open@?$basic_ofstream@GU?$char_traits@G@std@@@std@@QEAAXPEBDH@Z
; public: int __cdecl std::messages<char>::open(class std::basic_string<char,struct std::char_traits<char>,class std::allocator<char> > const & __ptr64,class std::locale const & __ptr64)const  __ptr64
?open@?$messages@D@std@@QEBAHAEBV?$basic_string@DU?$char_traits@D@std@@V?$allocator@D@2@@2@AEBVlocale@2@@Z
; public: int __cdecl std::messages<unsigned short>::open(class std::basic_string<char,struct std::char_traits<char>,class std::allocator<char> > const & __ptr64,class std::locale const & __ptr64)const  __ptr64
?open@?$messages@G@std@@QEBAHAEBV?$basic_string@DU?$char_traits@D@std@@V?$allocator@D@2@@2@AEBVlocale@2@@Z
; public: bool __cdecl std::basic_ostream<char,struct std::char_traits<char> >::opfx(void) __ptr64
?opfx@?$basic_ostream@DU?$char_traits@D@std@@@std@@QEAA_NXZ
; public: bool __cdecl std::basic_ostream<unsigned short,struct std::char_traits<unsigned short> >::opfx(void) __ptr64
?opfx@?$basic_ostream@GU?$char_traits@G@std@@@std@@QEAA_NXZ
; public: void __cdecl std::basic_ostream<char,struct std::char_traits<char> >::osfx(void) __ptr64
?osfx@?$basic_ostream@DU?$char_traits@D@std@@@std@@QEAAXXZ
; public: void __cdecl std::basic_ostream<unsigned short,struct std::char_traits<unsigned short> >::osfx(void) __ptr64
?osfx@?$basic_ostream@GU?$char_traits@G@std@@@std@@QEAAXXZ
; public: int __cdecl std::codecvt<char,char,int>::out(int & __ptr64,char const * __ptr64,char const * __ptr64,char const * __ptr64 & __ptr64,char * __ptr64,char * __ptr64,char * __ptr64 & __ptr64)const  __ptr64
?out@?$codecvt@DDH@std@@QEBAHAEAHPEBD1AEAPEBDPEAD3AEAPEAD@Z
; public: int __cdecl std::codecvt<unsigned short,char,int>::out(int & __ptr64,unsigned short const * __ptr64,unsigned short const * __ptr64,unsigned short const * __ptr64 & __ptr64,char * __ptr64,char * __ptr64,char * __ptr64 & __ptr64)const  __ptr64
?out@?$codecvt@GDH@std@@QEBAHAEAHPEBG1AEAPEBGPEAD3AEAPEAD@Z
; protected: virtual int __cdecl std::basic_filebuf<char,struct std::char_traits<char> >::overflow(int) __ptr64
?overflow@?$basic_filebuf@DU?$char_traits@D@std@@@std@@MEAAHH@Z
; protected: virtual unsigned short __cdecl std::basic_filebuf<unsigned short,struct std::char_traits<unsigned short> >::overflow(unsigned short) __ptr64
?overflow@?$basic_filebuf@GU?$char_traits@G@std@@@std@@MEAAGG@Z
; protected: virtual int __cdecl std::basic_streambuf<char,struct std::char_traits<char> >::overflow(int) __ptr64
?overflow@?$basic_streambuf@DU?$char_traits@D@std@@@std@@MEAAHH@Z
; protected: virtual unsigned short __cdecl std::basic_streambuf<unsigned short,struct std::char_traits<unsigned short> >::overflow(unsigned short) __ptr64
?overflow@?$basic_streambuf@GU?$char_traits@G@std@@@std@@MEAAGG@Z
; protected: virtual int __cdecl std::basic_stringbuf<char,struct std::char_traits<char>,class std::allocator<char> >::overflow(int) __ptr64
?overflow@?$basic_stringbuf@DU?$char_traits@D@std@@V?$allocator@D@2@@std@@MEAAHH@Z
; protected: virtual unsigned short __cdecl std::basic_stringbuf<unsigned short,struct std::char_traits<unsigned short>,class std::allocator<unsigned short> >::overflow(unsigned short) __ptr64
?overflow@?$basic_stringbuf@GU?$char_traits@G@std@@V?$allocator@G@2@@std@@MEAAGG@Z
; protected: virtual int __cdecl std::strstreambuf::overflow(int) __ptr64
?overflow@strstreambuf@std@@MEAAHH@Z
; protected: virtual int __cdecl std::basic_filebuf<char,struct std::char_traits<char> >::pbackfail(int) __ptr64
?pbackfail@?$basic_filebuf@DU?$char_traits@D@std@@@std@@MEAAHH@Z
; protected: virtual unsigned short __cdecl std::basic_filebuf<unsigned short,struct std::char_traits<unsigned short> >::pbackfail(unsigned short) __ptr64
?pbackfail@?$basic_filebuf@GU?$char_traits@G@std@@@std@@MEAAGG@Z
; protected: virtual int __cdecl std::basic_streambuf<char,struct std::char_traits<char> >::pbackfail(int) __ptr64
?pbackfail@?$basic_streambuf@DU?$char_traits@D@std@@@std@@MEAAHH@Z
; protected: virtual unsigned short __cdecl std::basic_streambuf<unsigned short,struct std::char_traits<unsigned short> >::pbackfail(unsigned short) __ptr64
?pbackfail@?$basic_streambuf@GU?$char_traits@G@std@@@std@@MEAAGG@Z
; protected: virtual int __cdecl std::basic_stringbuf<char,struct std::char_traits<char>,class std::allocator<char> >::pbackfail(int) __ptr64
?pbackfail@?$basic_stringbuf@DU?$char_traits@D@std@@V?$allocator@D@2@@std@@MEAAHH@Z
; protected: virtual unsigned short __cdecl std::basic_stringbuf<unsigned short,struct std::char_traits<unsigned short>,class std::allocator<unsigned short> >::pbackfail(unsigned short) __ptr64
?pbackfail@?$basic_stringbuf@GU?$char_traits@G@std@@V?$allocator@G@2@@std@@MEAAGG@Z
; protected: virtual int __cdecl std::strstreambuf::pbackfail(int) __ptr64
?pbackfail@strstreambuf@std@@MEAAHH@Z
; protected: char * __ptr64 __cdecl std::basic_streambuf<char,struct std::char_traits<char> >::pbase(void)const  __ptr64
?pbase@?$basic_streambuf@DU?$char_traits@D@std@@@std@@IEBAPEADXZ
; protected: unsigned short * __ptr64 __cdecl std::basic_streambuf<unsigned short,struct std::char_traits<unsigned short> >::pbase(void)const  __ptr64
?pbase@?$basic_streambuf@GU?$char_traits@G@std@@@std@@IEBAPEAGXZ
; protected: void __cdecl std::basic_streambuf<char,struct std::char_traits<char> >::pbump(int) __ptr64
?pbump@?$basic_streambuf@DU?$char_traits@D@std@@@std@@IEAAXH@Z
; protected: void __cdecl std::basic_streambuf<unsigned short,struct std::char_traits<unsigned short> >::pbump(int) __ptr64
?pbump@?$basic_streambuf@GU?$char_traits@G@std@@@std@@IEAAXH@Z
; public: int __cdecl std::basic_istream<char,struct std::char_traits<char> >::peek(void) __ptr64
?peek@?$basic_istream@DU?$char_traits@D@std@@@std@@QEAAHXZ
; public: unsigned short __cdecl std::basic_istream<unsigned short,struct std::char_traits<unsigned short> >::peek(void) __ptr64
?peek@?$basic_istream@GU?$char_traits@G@std@@@std@@QEAAGXZ
; class std::complex<float>  __cdecl std::polar(float const & __ptr64,float const & __ptr64)
?polar@std@@YA?AV?$complex@M@1@AEBM0@Z
; class std::complex<float>  __cdecl std::polar(float const & __ptr64)
?polar@std@@YA?AV?$complex@M@1@AEBM@Z
; class std::complex<double>  __cdecl std::polar(double const & __ptr64,double const & __ptr64)
?polar@std@@YA?AV?$complex@N@1@AEBN0@Z
; class std::complex<double>  __cdecl std::polar(double const & __ptr64)
?polar@std@@YA?AV?$complex@N@1@AEBN@Z
; class std::complex<long double>  __cdecl std::polar(long double const & __ptr64,long double const & __ptr64)
?polar@std@@YA?AV?$complex@O@1@AEBO0@Z
; class std::complex<long double>  __cdecl std::polar(long double const & __ptr64)
?polar@std@@YA?AV?$complex@O@1@AEBO@Z
; public: struct std::money_base::pattern  __cdecl std::_Mpunct<char>::pos_format(void)const  __ptr64
?pos_format@?$_Mpunct@D@std@@QEBA?AUpattern@money_base@2@XZ
; public: struct std::money_base::pattern  __cdecl std::_Mpunct<unsigned short>::pos_format(void)const  __ptr64
?pos_format@?$_Mpunct@G@std@@QEBA?AUpattern@money_base@2@XZ
; public: class std::basic_string<char,struct std::char_traits<char>,class std::allocator<char> >  __cdecl std::_Mpunct<char>::positive_sign(void)const  __ptr64
?positive_sign@?$_Mpunct@D@std@@QEBA?AV?$basic_string@DU?$char_traits@D@std@@V?$allocator@D@2@@2@XZ
; public: class std::basic_string<unsigned short,struct std::char_traits<unsigned short>,class std::allocator<unsigned short> >  __cdecl std::_Mpunct<unsigned short>::positive_sign(void)const  __ptr64
?positive_sign@?$_Mpunct@G@std@@QEBA?AV?$basic_string@GU?$char_traits@G@std@@V?$allocator@G@2@@2@XZ
; public: static float __cdecl std::_Ctr<float>::pow(float,float)
?pow@?$_Ctr@M@std@@SAMMM@Z
; public: static double __cdecl std::_Ctr<double>::pow(double,double)
?pow@?$_Ctr@N@std@@SANNN@Z
; public: static long double __cdecl std::_Ctr<long double>::pow(long double,long double)
?pow@?$_Ctr@O@std@@SAOOO@Z
; class std::complex<float>  __cdecl std::pow(float const & __ptr64,class std::complex<float> const & __ptr64)
?pow@std@@YA?AV?$complex@M@1@AEBMAEBV21@@Z
; class std::complex<float>  __cdecl std::pow(class std::complex<float> const & __ptr64,class std::complex<float> const & __ptr64)
?pow@std@@YA?AV?$complex@M@1@AEBV21@0@Z
; class std::complex<float>  __cdecl std::pow(class std::complex<float> const & __ptr64,float const & __ptr64)
?pow@std@@YA?AV?$complex@M@1@AEBV21@AEBM@Z
; class std::complex<float>  __cdecl std::pow(class std::complex<float> const & __ptr64,int)
?pow@std@@YA?AV?$complex@M@1@AEBV21@H@Z
; class std::complex<double>  __cdecl std::pow(double const & __ptr64,class std::complex<double> const & __ptr64)
?pow@std@@YA?AV?$complex@N@1@AEBNAEBV21@@Z
; class std::complex<double>  __cdecl std::pow(class std::complex<double> const & __ptr64,class std::complex<double> const & __ptr64)
?pow@std@@YA?AV?$complex@N@1@AEBV21@0@Z
; class std::complex<double>  __cdecl std::pow(class std::complex<double> const & __ptr64,double const & __ptr64)
?pow@std@@YA?AV?$complex@N@1@AEBV21@AEBN@Z
; class std::complex<double>  __cdecl std::pow(class std::complex<double> const & __ptr64,int)
?pow@std@@YA?AV?$complex@N@1@AEBV21@H@Z
; class std::complex<long double>  __cdecl std::pow(long double const & __ptr64,class std::complex<long double> const & __ptr64)
?pow@std@@YA?AV?$complex@O@1@AEBOAEBV21@@Z
; class std::complex<long double>  __cdecl std::pow(class std::complex<long double> const & __ptr64,class std::complex<long double> const & __ptr64)
?pow@std@@YA?AV?$complex@O@1@AEBV21@0@Z
; class std::complex<long double>  __cdecl std::pow(class std::complex<long double> const & __ptr64,long double const & __ptr64)
?pow@std@@YA?AV?$complex@O@1@AEBV21@AEBO@Z
; class std::complex<long double>  __cdecl std::pow(class std::complex<long double> const & __ptr64,int)
?pow@std@@YA?AV?$complex@O@1@AEBV21@H@Z
; protected: char * __ptr64 __cdecl std::basic_streambuf<char,struct std::char_traits<char> >::pptr(void)const  __ptr64
?pptr@?$basic_streambuf@DU?$char_traits@D@std@@@std@@IEBAPEADXZ
; protected: unsigned short * __ptr64 __cdecl std::basic_streambuf<unsigned short,struct std::char_traits<unsigned short> >::pptr(void)const  __ptr64
?pptr@?$basic_streambuf@GU?$char_traits@G@std@@@std@@IEBAPEAGXZ
; public: __int64 __cdecl std::ios_base::precision(int) __ptr64
?precision@ios_base@std@@QEAA_JH@Z
; public: __int64 __cdecl std::ios_base::precision(void)const  __ptr64
?precision@ios_base@std@@QEBA_JXZ
; public: class std::locale  __cdecl std::basic_streambuf<char,struct std::char_traits<char> >::pubimbue(class std::locale const & __ptr64) __ptr64
?pubimbue@?$basic_streambuf@DU?$char_traits@D@std@@@std@@QEAA?AVlocale@2@AEBV32@@Z
; public: class std::locale  __cdecl std::basic_streambuf<unsigned short,struct std::char_traits<unsigned short> >::pubimbue(class std::locale const & __ptr64) __ptr64
?pubimbue@?$basic_streambuf@GU?$char_traits@G@std@@@std@@QEAA?AVlocale@2@AEBV32@@Z
; public: class std::fpos<int>  __cdecl std::basic_streambuf<char,struct std::char_traits<char> >::pubseekoff(__int64,short,short) __ptr64
?pubseekoff@?$basic_streambuf@DU?$char_traits@D@std@@@std@@QEAA?AV?$fpos@H@2@_JFF@Z
; public: class std::fpos<int>  __cdecl std::basic_streambuf<char,struct std::char_traits<char> >::pubseekoff(__int64,enum std::ios_base::seekdir,int) __ptr64
?pubseekoff@?$basic_streambuf@DU?$char_traits@D@std@@@std@@QEAA?AV?$fpos@H@2@_JW4seekdir@ios_base@2@H@Z
; public: class std::fpos<int>  __cdecl std::basic_streambuf<unsigned short,struct std::char_traits<unsigned short> >::pubseekoff(__int64,short,short) __ptr64
?pubseekoff@?$basic_streambuf@GU?$char_traits@G@std@@@std@@QEAA?AV?$fpos@H@2@_JFF@Z
; public: class std::fpos<int>  __cdecl std::basic_streambuf<unsigned short,struct std::char_traits<unsigned short> >::pubseekoff(__int64,enum std::ios_base::seekdir,int) __ptr64
?pubseekoff@?$basic_streambuf@GU?$char_traits@G@std@@@std@@QEAA?AV?$fpos@H@2@_JW4seekdir@ios_base@2@H@Z
; public: class std::fpos<int>  __cdecl std::basic_streambuf<char,struct std::char_traits<char> >::pubseekpos(class std::fpos<int>,short) __ptr64
?pubseekpos@?$basic_streambuf@DU?$char_traits@D@std@@@std@@QEAA?AV?$fpos@H@2@V32@F@Z
; public: class std::fpos<int>  __cdecl std::basic_streambuf<char,struct std::char_traits<char> >::pubseekpos(class std::fpos<int>,int) __ptr64
?pubseekpos@?$basic_streambuf@DU?$char_traits@D@std@@@std@@QEAA?AV?$fpos@H@2@V32@H@Z
; public: class std::fpos<int>  __cdecl std::basic_streambuf<unsigned short,struct std::char_traits<unsigned short> >::pubseekpos(class std::fpos<int>,short) __ptr64
?pubseekpos@?$basic_streambuf@GU?$char_traits@G@std@@@std@@QEAA?AV?$fpos@H@2@V32@F@Z
; public: class std::fpos<int>  __cdecl std::basic_streambuf<unsigned short,struct std::char_traits<unsigned short> >::pubseekpos(class std::fpos<int>,int) __ptr64
?pubseekpos@?$basic_streambuf@GU?$char_traits@G@std@@@std@@QEAA?AV?$fpos@H@2@V32@H@Z
; public: class std::basic_streambuf<char,struct std::char_traits<char> > * __ptr64 __cdecl std::basic_streambuf<char,struct std::char_traits<char> >::pubsetbuf(char * __ptr64,__int64) __ptr64
?pubsetbuf@?$basic_streambuf@DU?$char_traits@D@std@@@std@@QEAAPEAV12@PEAD_J@Z
; public: class std::basic_streambuf<unsigned short,struct std::char_traits<unsigned short> > * __ptr64 __cdecl std::basic_streambuf<unsigned short,struct std::char_traits<unsigned short> >::pubsetbuf(unsigned short * __ptr64,__int64) __ptr64
?pubsetbuf@?$basic_streambuf@GU?$char_traits@G@std@@@std@@QEAAPEAV12@PEAG_J@Z
; public: int __cdecl std::basic_streambuf<char,struct std::char_traits<char> >::pubsync(void) __ptr64
?pubsync@?$basic_streambuf@DU?$char_traits@D@std@@@std@@QEAAHXZ
; public: int __cdecl std::basic_streambuf<unsigned short,struct std::char_traits<unsigned short> >::pubsync(void) __ptr64
?pubsync@?$basic_streambuf@GU?$char_traits@G@std@@@std@@QEAAHXZ
; public: class std::basic_ostream<char,struct std::char_traits<char> > & __ptr64 __cdecl std::basic_ostream<char,struct std::char_traits<char> >::put(char) __ptr64
?put@?$basic_ostream@DU?$char_traits@D@std@@@std@@QEAAAEAV12@D@Z
; public: class std::basic_ostream<unsigned short,struct std::char_traits<unsigned short> > & __ptr64 __cdecl std::basic_ostream<unsigned short,struct std::char_traits<unsigned short> >::put(unsigned short) __ptr64
?put@?$basic_ostream@GU?$char_traits@G@std@@@std@@QEAAAEAV12@G@Z
; public: class std::ostreambuf_iterator<char,struct std::char_traits<char> >  __cdecl std::money_put<char,class std::ostreambuf_iterator<char,struct std::char_traits<char> > >::put(class std::ostreambuf_iterator<char,struct std::char_traits<char> >,bool,class std::ios_base & __ptr64,char,class std::basic_string<char,struct std::char_traits<char>,class std::allocator<char> > const & __ptr64)const  __ptr64
?put@?$money_put@DV?$ostreambuf_iterator@DU?$char_traits@D@std@@@std@@@std@@QEBA?AV?$ostreambuf_iterator@DU?$char_traits@D@std@@@2@V32@_NAEAVios_base@2@DAEBV?$basic_string@DU?$char_traits@D@std@@V?$allocator@D@2@@2@@Z
; public: class std::ostreambuf_iterator<char,struct std::char_traits<char> >  __cdecl std::money_put<char,class std::ostreambuf_iterator<char,struct std::char_traits<char> > >::put(class std::ostreambuf_iterator<char,struct std::char_traits<char> >,bool,class std::ios_base & __ptr64,char,long double)const  __ptr64
?put@?$money_put@DV?$ostreambuf_iterator@DU?$char_traits@D@std@@@std@@@std@@QEBA?AV?$ostreambuf_iterator@DU?$char_traits@D@std@@@2@V32@_NAEAVios_base@2@DO@Z
; public: class std::ostreambuf_iterator<unsigned short,struct std::char_traits<unsigned short> >  __cdecl std::money_put<unsigned short,class std::ostreambuf_iterator<unsigned short,struct std::char_traits<unsigned short> > >::put(class std::ostreambuf_iterator<unsigned short,struct std::char_traits<unsigned short> >,bool,class std::ios_base & __ptr64,unsigned short,class std::basic_string<unsigned short,struct std::char_traits<unsigned short>,class std::allocator<unsigned short> > const & __ptr64)const  __ptr64
?put@?$money_put@GV?$ostreambuf_iterator@GU?$char_traits@G@std@@@std@@@std@@QEBA?AV?$ostreambuf_iterator@GU?$char_traits@G@std@@@2@V32@_NAEAVios_base@2@GAEBV?$basic_string@GU?$char_traits@G@std@@V?$allocator@G@2@@2@@Z
; public: class std::ostreambuf_iterator<unsigned short,struct std::char_traits<unsigned short> >  __cdecl std::money_put<unsigned short,class std::ostreambuf_iterator<unsigned short,struct std::char_traits<unsigned short> > >::put(class std::ostreambuf_iterator<unsigned short,struct std::char_traits<unsigned short> >,bool,class std::ios_base & __ptr64,unsigned short,long double)const  __ptr64
?put@?$money_put@GV?$ostreambuf_iterator@GU?$char_traits@G@std@@@std@@@std@@QEBA?AV?$ostreambuf_iterator@GU?$char_traits@G@std@@@2@V32@_NAEAVios_base@2@GO@Z
; public: class std::ostreambuf_iterator<char,struct std::char_traits<char> >  __cdecl std::num_put<char,class std::ostreambuf_iterator<char,struct std::char_traits<char> > >::put(class std::ostreambuf_iterator<char,struct std::char_traits<char> >,class std::ios_base & __ptr64,char,long)const  __ptr64
?put@?$num_put@DV?$ostreambuf_iterator@DU?$char_traits@D@std@@@std@@@std@@QEBA?AV?$ostreambuf_iterator@DU?$char_traits@D@std@@@2@V32@AEAVios_base@2@DJ@Z
; public: class std::ostreambuf_iterator<char,struct std::char_traits<char> >  __cdecl std::num_put<char,class std::ostreambuf_iterator<char,struct std::char_traits<char> > >::put(class std::ostreambuf_iterator<char,struct std::char_traits<char> >,class std::ios_base & __ptr64,char,unsigned long)const  __ptr64
?put@?$num_put@DV?$ostreambuf_iterator@DU?$char_traits@D@std@@@std@@@std@@QEBA?AV?$ostreambuf_iterator@DU?$char_traits@D@std@@@2@V32@AEAVios_base@2@DK@Z
; public: class std::ostreambuf_iterator<char,struct std::char_traits<char> >  __cdecl std::num_put<char,class std::ostreambuf_iterator<char,struct std::char_traits<char> > >::put(class std::ostreambuf_iterator<char,struct std::char_traits<char> >,class std::ios_base & __ptr64,char,double)const  __ptr64
?put@?$num_put@DV?$ostreambuf_iterator@DU?$char_traits@D@std@@@std@@@std@@QEBA?AV?$ostreambuf_iterator@DU?$char_traits@D@std@@@2@V32@AEAVios_base@2@DN@Z
; public: class std::ostreambuf_iterator<char,struct std::char_traits<char> >  __cdecl std::num_put<char,class std::ostreambuf_iterator<char,struct std::char_traits<char> > >::put(class std::ostreambuf_iterator<char,struct std::char_traits<char> >,class std::ios_base & __ptr64,char,long double)const  __ptr64
?put@?$num_put@DV?$ostreambuf_iterator@DU?$char_traits@D@std@@@std@@@std@@QEBA?AV?$ostreambuf_iterator@DU?$char_traits@D@std@@@2@V32@AEAVios_base@2@DO@Z
; public: class std::ostreambuf_iterator<char,struct std::char_traits<char> >  __cdecl std::num_put<char,class std::ostreambuf_iterator<char,struct std::char_traits<char> > >::put(class std::ostreambuf_iterator<char,struct std::char_traits<char> >,class std::ios_base & __ptr64,char,void const * __ptr64)const  __ptr64
?put@?$num_put@DV?$ostreambuf_iterator@DU?$char_traits@D@std@@@std@@@std@@QEBA?AV?$ostreambuf_iterator@DU?$char_traits@D@std@@@2@V32@AEAVios_base@2@DPEBX@Z
; public: class std::ostreambuf_iterator<char,struct std::char_traits<char> >  __cdecl std::num_put<char,class std::ostreambuf_iterator<char,struct std::char_traits<char> > >::put(class std::ostreambuf_iterator<char,struct std::char_traits<char> >,class std::ios_base & __ptr64,char,__int64)const  __ptr64
?put@?$num_put@DV?$ostreambuf_iterator@DU?$char_traits@D@std@@@std@@@std@@QEBA?AV?$ostreambuf_iterator@DU?$char_traits@D@std@@@2@V32@AEAVios_base@2@D_J@Z
; public: class std::ostreambuf_iterator<char,struct std::char_traits<char> >  __cdecl std::num_put<char,class std::ostreambuf_iterator<char,struct std::char_traits<char> > >::put(class std::ostreambuf_iterator<char,struct std::char_traits<char> >,class std::ios_base & __ptr64,char,unsigned __int64)const  __ptr64
?put@?$num_put@DV?$ostreambuf_iterator@DU?$char_traits@D@std@@@std@@@std@@QEBA?AV?$ostreambuf_iterator@DU?$char_traits@D@std@@@2@V32@AEAVios_base@2@D_K@Z
; public: class std::ostreambuf_iterator<char,struct std::char_traits<char> >  __cdecl std::num_put<char,class std::ostreambuf_iterator<char,struct std::char_traits<char> > >::put(class std::ostreambuf_iterator<char,struct std::char_traits<char> >,class std::ios_base & __ptr64,char,bool)const  __ptr64
?put@?$num_put@DV?$ostreambuf_iterator@DU?$char_traits@D@std@@@std@@@std@@QEBA?AV?$ostreambuf_iterator@DU?$char_traits@D@std@@@2@V32@AEAVios_base@2@D_N@Z
; public: class std::ostreambuf_iterator<unsigned short,struct std::char_traits<unsigned short> >  __cdecl std::num_put<unsigned short,class std::ostreambuf_iterator<unsigned short,struct std::char_traits<unsigned short> > >::put(class std::ostreambuf_iterator<unsigned short,struct std::char_traits<unsigned short> >,class std::ios_base & __ptr64,unsigned short,long)const  __ptr64
?put@?$num_put@GV?$ostreambuf_iterator@GU?$char_traits@G@std@@@std@@@std@@QEBA?AV?$ostreambuf_iterator@GU?$char_traits@G@std@@@2@V32@AEAVios_base@2@GJ@Z
; public: class std::ostreambuf_iterator<unsigned short,struct std::char_traits<unsigned short> >  __cdecl std::num_put<unsigned short,class std::ostreambuf_iterator<unsigned short,struct std::char_traits<unsigned short> > >::put(class std::ostreambuf_iterator<unsigned short,struct std::char_traits<unsigned short> >,class std::ios_base & __ptr64,unsigned short,unsigned long)const  __ptr64
?put@?$num_put@GV?$ostreambuf_iterator@GU?$char_traits@G@std@@@std@@@std@@QEBA?AV?$ostreambuf_iterator@GU?$char_traits@G@std@@@2@V32@AEAVios_base@2@GK@Z
; public: class std::ostreambuf_iterator<unsigned short,struct std::char_traits<unsigned short> >  __cdecl std::num_put<unsigned short,class std::ostreambuf_iterator<unsigned short,struct std::char_traits<unsigned short> > >::put(class std::ostreambuf_iterator<unsigned short,struct std::char_traits<unsigned short> >,class std::ios_base & __ptr64,unsigned short,double)const  __ptr64
?put@?$num_put@GV?$ostreambuf_iterator@GU?$char_traits@G@std@@@std@@@std@@QEBA?AV?$ostreambuf_iterator@GU?$char_traits@G@std@@@2@V32@AEAVios_base@2@GN@Z
; public: class std::ostreambuf_iterator<unsigned short,struct std::char_traits<unsigned short> >  __cdecl std::num_put<unsigned short,class std::ostreambuf_iterator<unsigned short,struct std::char_traits<unsigned short> > >::put(class std::ostreambuf_iterator<unsigned short,struct std::char_traits<unsigned short> >,class std::ios_base & __ptr64,unsigned short,long double)const  __ptr64
?put@?$num_put@GV?$ostreambuf_iterator@GU?$char_traits@G@std@@@std@@@std@@QEBA?AV?$ostreambuf_iterator@GU?$char_traits@G@std@@@2@V32@AEAVios_base@2@GO@Z
; public: class std::ostreambuf_iterator<unsigned short,struct std::char_traits<unsigned short> >  __cdecl std::num_put<unsigned short,class std::ostreambuf_iterator<unsigned short,struct std::char_traits<unsigned short> > >::put(class std::ostreambuf_iterator<unsigned short,struct std::char_traits<unsigned short> >,class std::ios_base & __ptr64,unsigned short,void const * __ptr64)const  __ptr64
?put@?$num_put@GV?$ostreambuf_iterator@GU?$char_traits@G@std@@@std@@@std@@QEBA?AV?$ostreambuf_iterator@GU?$char_traits@G@std@@@2@V32@AEAVios_base@2@GPEBX@Z
; public: class std::ostreambuf_iterator<unsigned short,struct std::char_traits<unsigned short> >  __cdecl std::num_put<unsigned short,class std::ostreambuf_iterator<unsigned short,struct std::char_traits<unsigned short> > >::put(class std::ostreambuf_iterator<unsigned short,struct std::char_traits<unsigned short> >,class std::ios_base & __ptr64,unsigned short,__int64)const  __ptr64
?put@?$num_put@GV?$ostreambuf_iterator@GU?$char_traits@G@std@@@std@@@std@@QEBA?AV?$ostreambuf_iterator@GU?$char_traits@G@std@@@2@V32@AEAVios_base@2@G_J@Z
; public: class std::ostreambuf_iterator<unsigned short,struct std::char_traits<unsigned short> >  __cdecl std::num_put<unsigned short,class std::ostreambuf_iterator<unsigned short,struct std::char_traits<unsigned short> > >::put(class std::ostreambuf_iterator<unsigned short,struct std::char_traits<unsigned short> >,class std::ios_base & __ptr64,unsigned short,unsigned __int64)const  __ptr64
?put@?$num_put@GV?$ostreambuf_iterator@GU?$char_traits@G@std@@@std@@@std@@QEBA?AV?$ostreambuf_iterator@GU?$char_traits@G@std@@@2@V32@AEAVios_base@2@G_K@Z
; public: class std::ostreambuf_iterator<unsigned short,struct std::char_traits<unsigned short> >  __cdecl std::num_put<unsigned short,class std::ostreambuf_iterator<unsigned short,struct std::char_traits<unsigned short> > >::put(class std::ostreambuf_iterator<unsigned short,struct std::char_traits<unsigned short> >,class std::ios_base & __ptr64,unsigned short,bool)const  __ptr64
?put@?$num_put@GV?$ostreambuf_iterator@GU?$char_traits@G@std@@@std@@@std@@QEBA?AV?$ostreambuf_iterator@GU?$char_traits@G@std@@@2@V32@AEAVios_base@2@G_N@Z
; public: class std::ostreambuf_iterator<char,struct std::char_traits<char> >  __cdecl std::time_put<char,class std::ostreambuf_iterator<char,struct std::char_traits<char> > >::put(class std::ostreambuf_iterator<char,struct std::char_traits<char> >,class std::ios_base & __ptr64,struct tm const * __ptr64,char,char)const  __ptr64
?put@?$time_put@DV?$ostreambuf_iterator@DU?$char_traits@D@std@@@std@@@std@@QEBA?AV?$ostreambuf_iterator@DU?$char_traits@D@std@@@2@V32@AEAVios_base@2@PEBUtm@@DD@Z
; public: class std::ostreambuf_iterator<char,struct std::char_traits<char> >  __cdecl std::time_put<char,class std::ostreambuf_iterator<char,struct std::char_traits<char> > >::put(class std::ostreambuf_iterator<char,struct std::char_traits<char> >,class std::ios_base & __ptr64,struct tm const * __ptr64,char const * __ptr64,char const * __ptr64)const  __ptr64
?put@?$time_put@DV?$ostreambuf_iterator@DU?$char_traits@D@std@@@std@@@std@@QEBA?AV?$ostreambuf_iterator@DU?$char_traits@D@std@@@2@V32@AEAVios_base@2@PEBUtm@@PEBD3@Z
; public: class std::ostreambuf_iterator<unsigned short,struct std::char_traits<unsigned short> >  __cdecl std::time_put<unsigned short,class std::ostreambuf_iterator<unsigned short,struct std::char_traits<unsigned short> > >::put(class std::ostreambuf_iterator<unsigned short,struct std::char_traits<unsigned short> >,class std::ios_base & __ptr64,struct tm const * __ptr64,char,char)const  __ptr64
?put@?$time_put@GV?$ostreambuf_iterator@GU?$char_traits@G@std@@@std@@@std@@QEBA?AV?$ostreambuf_iterator@GU?$char_traits@G@std@@@2@V32@AEAVios_base@2@PEBUtm@@DD@Z
; public: class std::ostreambuf_iterator<unsigned short,struct std::char_traits<unsigned short> >  __cdecl std::time_put<unsigned short,class std::ostreambuf_iterator<unsigned short,struct std::char_traits<unsigned short> > >::put(class std::ostreambuf_iterator<unsigned short,struct std::char_traits<unsigned short> >,class std::ios_base & __ptr64,struct tm const * __ptr64,unsigned short const * __ptr64,unsigned short const * __ptr64)const  __ptr64
?put@?$time_put@GV?$ostreambuf_iterator@GU?$char_traits@G@std@@@std@@@std@@QEBA?AV?$ostreambuf_iterator@GU?$char_traits@G@std@@@2@V32@AEAVios_base@2@PEBUtm@@PEBG3@Z
; public: class std::basic_istream<char,struct std::char_traits<char> > & __ptr64 __cdecl std::basic_istream<char,struct std::char_traits<char> >::putback(char) __ptr64
?putback@?$basic_istream@DU?$char_traits@D@std@@@std@@QEAAAEAV12@D@Z
; public: class std::basic_istream<unsigned short,struct std::char_traits<unsigned short> > & __ptr64 __cdecl std::basic_istream<unsigned short,struct std::char_traits<unsigned short> >::putback(unsigned short) __ptr64
?putback@?$basic_istream@GU?$char_traits@G@std@@@std@@QEAAAEAV12@G@Z
; public: void * __ptr64 & __ptr64 __cdecl std::ios_base::pword(int) __ptr64
?pword@ios_base@std@@QEAAAEAPEAXH@Z
; public: static signed char __cdecl std::numeric_limits<signed char>::quiet_NaN(void)
?quiet_NaN@?$numeric_limits@C@std@@SACXZ
; public: static char __cdecl std::numeric_limits<char>::quiet_NaN(void)
?quiet_NaN@?$numeric_limits@D@std@@SADXZ
; public: static unsigned char __cdecl std::numeric_limits<unsigned char>::quiet_NaN(void)
?quiet_NaN@?$numeric_limits@E@std@@SAEXZ
; public: static short __cdecl std::numeric_limits<short>::quiet_NaN(void)
?quiet_NaN@?$numeric_limits@F@std@@SAFXZ
; public: static unsigned short __cdecl std::numeric_limits<unsigned short>::quiet_NaN(void)
?quiet_NaN@?$numeric_limits@G@std@@SAGXZ
; public: static int __cdecl std::numeric_limits<int>::quiet_NaN(void)
?quiet_NaN@?$numeric_limits@H@std@@SAHXZ
; public: static unsigned int __cdecl std::numeric_limits<unsigned int>::quiet_NaN(void)
?quiet_NaN@?$numeric_limits@I@std@@SAIXZ
; public: static long __cdecl std::numeric_limits<long>::quiet_NaN(void)
?quiet_NaN@?$numeric_limits@J@std@@SAJXZ
; public: static unsigned long __cdecl std::numeric_limits<unsigned long>::quiet_NaN(void)
?quiet_NaN@?$numeric_limits@K@std@@SAKXZ
; public: static float __cdecl std::numeric_limits<float>::quiet_NaN(void)
?quiet_NaN@?$numeric_limits@M@std@@SAMXZ
; public: static double __cdecl std::numeric_limits<double>::quiet_NaN(void)
?quiet_NaN@?$numeric_limits@N@std@@SANXZ
; public: static long double __cdecl std::numeric_limits<long double>::quiet_NaN(void)
?quiet_NaN@?$numeric_limits@O@std@@SAOXZ
; public: static bool __cdecl std::numeric_limits<bool>::quiet_NaN(void)
?quiet_NaN@?$numeric_limits@_N@std@@SA_NXZ
; public: class std::reverse_iterator<char * __ptr64,char,char & __ptr64,char * __ptr64,__int64>  __cdecl std::basic_string<char,struct std::char_traits<char>,class std::allocator<char> >::rbegin(void) __ptr64
?rbegin@?$basic_string@DU?$char_traits@D@std@@V?$allocator@D@2@@std@@QEAA?AV?$reverse_iterator@PEADDAEADPEAD_J@2@XZ
; public: class std::reverse_iterator<char const * __ptr64,char,char const & __ptr64,char const * __ptr64,__int64>  __cdecl std::basic_string<char,struct std::char_traits<char>,class std::allocator<char> >::rbegin(void)const  __ptr64
?rbegin@?$basic_string@DU?$char_traits@D@std@@V?$allocator@D@2@@std@@QEBA?AV?$reverse_iterator@PEBDDAEBDPEBD_J@2@XZ
; public: class std::reverse_iterator<unsigned short * __ptr64,unsigned short,unsigned short & __ptr64,unsigned short * __ptr64,__int64>  __cdecl std::basic_string<unsigned short,struct std::char_traits<unsigned short>,class std::allocator<unsigned short> >::rbegin(void) __ptr64
?rbegin@?$basic_string@GU?$char_traits@G@std@@V?$allocator@G@2@@std@@QEAA?AV?$reverse_iterator@PEAGGAEAGPEAG_J@2@XZ
; public: class std::reverse_iterator<unsigned short const * __ptr64,unsigned short,unsigned short const & __ptr64,unsigned short const * __ptr64,__int64>  __cdecl std::basic_string<unsigned short,struct std::char_traits<unsigned short>,class std::allocator<unsigned short> >::rbegin(void)const  __ptr64
?rbegin@?$basic_string@GU?$char_traits@G@std@@V?$allocator@G@2@@std@@QEBA?AV?$reverse_iterator@PEBGGAEBGPEBG_J@2@XZ
; public: class std::basic_filebuf<char,struct std::char_traits<char> > * __ptr64 __cdecl std::basic_fstream<char,struct std::char_traits<char> >::rdbuf(void)const  __ptr64
?rdbuf@?$basic_fstream@DU?$char_traits@D@std@@@std@@QEBAPEAV?$basic_filebuf@DU?$char_traits@D@std@@@2@XZ
; public: class std::basic_filebuf<unsigned short,struct std::char_traits<unsigned short> > * __ptr64 __cdecl std::basic_fstream<unsigned short,struct std::char_traits<unsigned short> >::rdbuf(void)const  __ptr64
?rdbuf@?$basic_fstream@GU?$char_traits@G@std@@@std@@QEBAPEAV?$basic_filebuf@GU?$char_traits@G@std@@@2@XZ
; public: class std::basic_filebuf<char,struct std::char_traits<char> > * __ptr64 __cdecl std::basic_ifstream<char,struct std::char_traits<char> >::rdbuf(void)const  __ptr64
?rdbuf@?$basic_ifstream@DU?$char_traits@D@std@@@std@@QEBAPEAV?$basic_filebuf@DU?$char_traits@D@std@@@2@XZ
; public: class std::basic_filebuf<unsigned short,struct std::char_traits<unsigned short> > * __ptr64 __cdecl std::basic_ifstream<unsigned short,struct std::char_traits<unsigned short> >::rdbuf(void)const  __ptr64
?rdbuf@?$basic_ifstream@GU?$char_traits@G@std@@@std@@QEBAPEAV?$basic_filebuf@GU?$char_traits@G@std@@@2@XZ
; public: class std::basic_streambuf<char,struct std::char_traits<char> > * __ptr64 __cdecl std::basic_ios<char,struct std::char_traits<char> >::rdbuf(class std::basic_streambuf<char,struct std::char_traits<char> > * __ptr64) __ptr64
?rdbuf@?$basic_ios@DU?$char_traits@D@std@@@std@@QEAAPEAV?$basic_streambuf@DU?$char_traits@D@std@@@2@PEAV32@@Z
; public: class std::basic_streambuf<char,struct std::char_traits<char> > * __ptr64 __cdecl std::basic_ios<char,struct std::char_traits<char> >::rdbuf(void)const  __ptr64
?rdbuf@?$basic_ios@DU?$char_traits@D@std@@@std@@QEBAPEAV?$basic_streambuf@DU?$char_traits@D@std@@@2@XZ
; public: class std::basic_streambuf<unsigned short,struct std::char_traits<unsigned short> > * __ptr64 __cdecl std::basic_ios<unsigned short,struct std::char_traits<unsigned short> >::rdbuf(class std::basic_streambuf<unsigned short,struct std::char_traits<unsigned short> > * __ptr64) __ptr64
?rdbuf@?$basic_ios@GU?$char_traits@G@std@@@std@@QEAAPEAV?$basic_streambuf@GU?$char_traits@G@std@@@2@PEAV32@@Z
; public: class std::basic_streambuf<unsigned short,struct std::char_traits<unsigned short> > * __ptr64 __cdecl std::basic_ios<unsigned short,struct std::char_traits<unsigned short> >::rdbuf(void)const  __ptr64
?rdbuf@?$basic_ios@GU?$char_traits@G@std@@@std@@QEBAPEAV?$basic_streambuf@GU?$char_traits@G@std@@@2@XZ
; public: class std::basic_stringbuf<char,struct std::char_traits<char>,class std::allocator<char> > * __ptr64 __cdecl std::basic_istringstream<char,struct std::char_traits<char>,class std::allocator<char> >::rdbuf(void)const  __ptr64
?rdbuf@?$basic_istringstream@DU?$char_traits@D@std@@V?$allocator@D@2@@std@@QEBAPEAV?$basic_stringbuf@DU?$char_traits@D@std@@V?$allocator@D@2@@2@XZ
; public: class std::basic_stringbuf<unsigned short,struct std::char_traits<unsigned short>,class std::allocator<unsigned short> > * __ptr64 __cdecl std::basic_istringstream<unsigned short,struct std::char_traits<unsigned short>,class std::allocator<unsigned short> >::rdbuf(void)const  __ptr64
?rdbuf@?$basic_istringstream@GU?$char_traits@G@std@@V?$allocator@G@2@@std@@QEBAPEAV?$basic_stringbuf@GU?$char_traits@G@std@@V?$allocator@G@2@@2@XZ
; public: class std::basic_filebuf<char,struct std::char_traits<char> > * __ptr64 __cdecl std::basic_ofstream<char,struct std::char_traits<char> >::rdbuf(void)const  __ptr64
?rdbuf@?$basic_ofstream@DU?$char_traits@D@std@@@std@@QEBAPEAV?$basic_filebuf@DU?$char_traits@D@std@@@2@XZ
; public: class std::basic_filebuf<unsigned short,struct std::char_traits<unsigned short> > * __ptr64 __cdecl std::basic_ofstream<unsigned short,struct std::char_traits<unsigned short> >::rdbuf(void)const  __ptr64
?rdbuf@?$basic_ofstream@GU?$char_traits@G@std@@@std@@QEBAPEAV?$basic_filebuf@GU?$char_traits@G@std@@@2@XZ
; public: class std::basic_stringbuf<char,struct std::char_traits<char>,class std::allocator<char> > * __ptr64 __cdecl std::basic_ostringstream<char,struct std::char_traits<char>,class std::allocator<char> >::rdbuf(void)const  __ptr64
?rdbuf@?$basic_ostringstream@DU?$char_traits@D@std@@V?$allocator@D@2@@std@@QEBAPEAV?$basic_stringbuf@DU?$char_traits@D@std@@V?$allocator@D@2@@2@XZ
; public: class std::basic_stringbuf<unsigned short,struct std::char_traits<unsigned short>,class std::allocator<unsigned short> > * __ptr64 __cdecl std::basic_ostringstream<unsigned short,struct std::char_traits<unsigned short>,class std::allocator<unsigned short> >::rdbuf(void)const  __ptr64
?rdbuf@?$basic_ostringstream@GU?$char_traits@G@std@@V?$allocator@G@2@@std@@QEBAPEAV?$basic_stringbuf@GU?$char_traits@G@std@@V?$allocator@G@2@@2@XZ
; public: class std::basic_stringbuf<char,struct std::char_traits<char>,class std::allocator<char> > * __ptr64 __cdecl std::basic_stringstream<char,struct std::char_traits<char>,class std::allocator<char> >::rdbuf(void)const  __ptr64
?rdbuf@?$basic_stringstream@DU?$char_traits@D@std@@V?$allocator@D@2@@std@@QEBAPEAV?$basic_stringbuf@DU?$char_traits@D@std@@V?$allocator@D@2@@2@XZ
; public: class std::basic_stringbuf<unsigned short,struct std::char_traits<unsigned short>,class std::allocator<unsigned short> > * __ptr64 __cdecl std::basic_stringstream<unsigned short,struct std::char_traits<unsigned short>,class std::allocator<unsigned short> >::rdbuf(void)const  __ptr64
?rdbuf@?$basic_stringstream@GU?$char_traits@G@std@@V?$allocator@G@2@@std@@QEBAPEAV?$basic_stringbuf@GU?$char_traits@G@std@@V?$allocator@G@2@@2@XZ
; public: int __cdecl std::ios_base::rdstate(void)const  __ptr64
?rdstate@ios_base@std@@QEBAHXZ
; public: class std::basic_istream<char,struct std::char_traits<char> > & __ptr64 __cdecl std::basic_istream<char,struct std::char_traits<char> >::read(char * __ptr64,__int64) __ptr64
?read@?$basic_istream@DU?$char_traits@D@std@@@std@@QEAAAEAV12@PEAD_J@Z
; public: class std::basic_istream<unsigned short,struct std::char_traits<unsigned short> > & __ptr64 __cdecl std::basic_istream<unsigned short,struct std::char_traits<unsigned short> >::read(unsigned short * __ptr64,__int64) __ptr64
?read@?$basic_istream@GU?$char_traits@G@std@@@std@@QEAAAEAV12@PEAG_J@Z
; public: __int64 __cdecl std::basic_istream<char,struct std::char_traits<char> >::readsome(char * __ptr64,__int64) __ptr64
?readsome@?$basic_istream@DU?$char_traits@D@std@@@std@@QEAA_JPEAD_J@Z
; public: __int64 __cdecl std::basic_istream<unsigned short,struct std::char_traits<unsigned short> >::readsome(unsigned short * __ptr64,__int64) __ptr64
?readsome@?$basic_istream@GU?$char_traits@G@std@@@std@@QEAA_JPEAG_J@Z
; public: float __cdecl std::_Complex_base<float>::real(float const & __ptr64) __ptr64
?real@?$_Complex_base@M@std@@QEAAMAEBM@Z
; public: float __cdecl std::_Complex_base<float>::real(void)const  __ptr64
?real@?$_Complex_base@M@std@@QEBAMXZ
; public: double __cdecl std::_Complex_base<double>::real(double const & __ptr64) __ptr64
?real@?$_Complex_base@N@std@@QEAANAEBN@Z
; public: double __cdecl std::_Complex_base<double>::real(void)const  __ptr64
?real@?$_Complex_base@N@std@@QEBANXZ
; public: long double __cdecl std::_Complex_base<long double>::real(long double const & __ptr64) __ptr64
?real@?$_Complex_base@O@std@@QEAAOAEBO@Z
; public: long double __cdecl std::_Complex_base<long double>::real(void)const  __ptr64
?real@?$_Complex_base@O@std@@QEBAOXZ
; float __cdecl std::real(class std::complex<float> const & __ptr64)
?real@std@@YAMAEBV?$complex@M@1@@Z
; double __cdecl std::real(class std::complex<double> const & __ptr64)
?real@std@@YANAEBV?$complex@N@1@@Z
; long double __cdecl std::real(class std::complex<long double> const & __ptr64)
?real@std@@YAOAEBV?$complex@O@1@@Z
; public: void __cdecl std::ios_base::register_callback(void (__cdecl*)(enum std::ios_base::event,class std::ios_base & __ptr64,int),int) __ptr64
?register_callback@ios_base@std@@QEAAXP6AXW4event@12@AEAV12@H@ZH@Z
; public: class std::reverse_iterator<char * __ptr64,char,char & __ptr64,char * __ptr64,__int64>  __cdecl std::basic_string<char,struct std::char_traits<char>,class std::allocator<char> >::rend(void) __ptr64
?rend@?$basic_string@DU?$char_traits@D@std@@V?$allocator@D@2@@std@@QEAA?AV?$reverse_iterator@PEADDAEADPEAD_J@2@XZ
; public: class std::reverse_iterator<char const * __ptr64,char,char const & __ptr64,char const * __ptr64,__int64>  __cdecl std::basic_string<char,struct std::char_traits<char>,class std::allocator<char> >::rend(void)const  __ptr64
?rend@?$basic_string@DU?$char_traits@D@std@@V?$allocator@D@2@@std@@QEBA?AV?$reverse_iterator@PEBDDAEBDPEBD_J@2@XZ
; public: class std::reverse_iterator<unsigned short * __ptr64,unsigned short,unsigned short & __ptr64,unsigned short * __ptr64,__int64>  __cdecl std::basic_string<unsigned short,struct std::char_traits<unsigned short>,class std::allocator<unsigned short> >::rend(void) __ptr64
?rend@?$basic_string@GU?$char_traits@G@std@@V?$allocator@G@2@@std@@QEAA?AV?$reverse_iterator@PEAGGAEAGPEAG_J@2@XZ
; public: class std::reverse_iterator<unsigned short const * __ptr64,unsigned short,unsigned short const & __ptr64,unsigned short const * __ptr64,__int64>  __cdecl std::basic_string<unsigned short,struct std::char_traits<unsigned short>,class std::allocator<unsigned short> >::rend(void)const  __ptr64
?rend@?$basic_string@GU?$char_traits@G@std@@V?$allocator@G@2@@std@@QEBA?AV?$reverse_iterator@PEBGGAEBGPEBG_J@2@XZ
; public: class std::basic_string<char,struct std::char_traits<char>,class std::allocator<char> > & __ptr64 __cdecl std::basic_string<char,struct std::char_traits<char>,class std::allocator<char> >::replace(char * __ptr64,char * __ptr64,class std::basic_string<char,struct std::char_traits<char>,class std::allocator<char> > const & __ptr64) __ptr64
?replace@?$basic_string@DU?$char_traits@D@std@@V?$allocator@D@2@@std@@QEAAAEAV12@PEAD0AEBV12@@Z
; public: class std::basic_string<char,struct std::char_traits<char>,class std::allocator<char> > & __ptr64 __cdecl std::basic_string<char,struct std::char_traits<char>,class std::allocator<char> >::replace(char * __ptr64,char * __ptr64,char const * __ptr64,char const * __ptr64) __ptr64
?replace@?$basic_string@DU?$char_traits@D@std@@V?$allocator@D@2@@std@@QEAAAEAV12@PEAD0PEBD1@Z
; public: class std::basic_string<char,struct std::char_traits<char>,class std::allocator<char> > & __ptr64 __cdecl std::basic_string<char,struct std::char_traits<char>,class std::allocator<char> >::replace(char * __ptr64,char * __ptr64,char const * __ptr64) __ptr64
?replace@?$basic_string@DU?$char_traits@D@std@@V?$allocator@D@2@@std@@QEAAAEAV12@PEAD0PEBD@Z
; public: class std::basic_string<char,struct std::char_traits<char>,class std::allocator<char> > & __ptr64 __cdecl std::basic_string<char,struct std::char_traits<char>,class std::allocator<char> >::replace(char * __ptr64,char * __ptr64,char const * __ptr64,unsigned __int64) __ptr64
?replace@?$basic_string@DU?$char_traits@D@std@@V?$allocator@D@2@@std@@QEAAAEAV12@PEAD0PEBD_K@Z
; public: class std::basic_string<char,struct std::char_traits<char>,class std::allocator<char> > & __ptr64 __cdecl std::basic_string<char,struct std::char_traits<char>,class std::allocator<char> >::replace(char * __ptr64,char * __ptr64,unsigned __int64,char) __ptr64
?replace@?$basic_string@DU?$char_traits@D@std@@V?$allocator@D@2@@std@@QEAAAEAV12@PEAD0_KD@Z
; public: class std::basic_string<char,struct std::char_traits<char>,class std::allocator<char> > & __ptr64 __cdecl std::basic_string<char,struct std::char_traits<char>,class std::allocator<char> >::replace(unsigned __int64,unsigned __int64,unsigned __int64,char) __ptr64
?replace@?$basic_string@DU?$char_traits@D@std@@V?$allocator@D@2@@std@@QEAAAEAV12@_K00D@Z
; public: class std::basic_string<char,struct std::char_traits<char>,class std::allocator<char> > & __ptr64 __cdecl std::basic_string<char,struct std::char_traits<char>,class std::allocator<char> >::replace(unsigned __int64,unsigned __int64,class std::basic_string<char,struct std::char_traits<char>,class std::allocator<char> > const & __ptr64,unsigned __int64,unsigned __int64) __ptr64
?replace@?$basic_string@DU?$char_traits@D@std@@V?$allocator@D@2@@std@@QEAAAEAV12@_K0AEBV12@00@Z
; public: class std::basic_string<char,struct std::char_traits<char>,class std::allocator<char> > & __ptr64 __cdecl std::basic_string<char,struct std::char_traits<char>,class std::allocator<char> >::replace(unsigned __int64,unsigned __int64,class std::basic_string<char,struct std::char_traits<char>,class std::allocator<char> > const & __ptr64) __ptr64
?replace@?$basic_string@DU?$char_traits@D@std@@V?$allocator@D@2@@std@@QEAAAEAV12@_K0AEBV12@@Z
; public: class std::basic_string<char,struct std::char_traits<char>,class std::allocator<char> > & __ptr64 __cdecl std::basic_string<char,struct std::char_traits<char>,class std::allocator<char> >::replace(unsigned __int64,unsigned __int64,char const * __ptr64,unsigned __int64) __ptr64
?replace@?$basic_string@DU?$char_traits@D@std@@V?$allocator@D@2@@std@@QEAAAEAV12@_K0PEBD0@Z
; public: class std::basic_string<char,struct std::char_traits<char>,class std::allocator<char> > & __ptr64 __cdecl std::basic_string<char,struct std::char_traits<char>,class std::allocator<char> >::replace(unsigned __int64,unsigned __int64,char const * __ptr64) __ptr64
?replace@?$basic_string@DU?$char_traits@D@std@@V?$allocator@D@2@@std@@QEAAAEAV12@_K0PEBD@Z
; public: class std::basic_string<unsigned short,struct std::char_traits<unsigned short>,class std::allocator<unsigned short> > & __ptr64 __cdecl std::basic_string<unsigned short,struct std::char_traits<unsigned short>,class std::allocator<unsigned short> >::replace(unsigned short * __ptr64,unsigned short * __ptr64,class std::basic_string<unsigned short,struct std::char_traits<unsigned short>,class std::allocator<unsigned short> > const & __ptr64) __ptr64
?replace@?$basic_string@GU?$char_traits@G@std@@V?$allocator@G@2@@std@@QEAAAEAV12@PEAG0AEBV12@@Z
; public: class std::basic_string<unsigned short,struct std::char_traits<unsigned short>,class std::allocator<unsigned short> > & __ptr64 __cdecl std::basic_string<unsigned short,struct std::char_traits<unsigned short>,class std::allocator<unsigned short> >::replace(unsigned short * __ptr64,unsigned short * __ptr64,unsigned short const * __ptr64,unsigned short const * __ptr64) __ptr64
?replace@?$basic_string@GU?$char_traits@G@std@@V?$allocator@G@2@@std@@QEAAAEAV12@PEAG0PEBG1@Z
; public: class std::basic_string<unsigned short,struct std::char_traits<unsigned short>,class std::allocator<unsigned short> > & __ptr64 __cdecl std::basic_string<unsigned short,struct std::char_traits<unsigned short>,class std::allocator<unsigned short> >::replace(unsigned short * __ptr64,unsigned short * __ptr64,unsigned short const * __ptr64) __ptr64
?replace@?$basic_string@GU?$char_traits@G@std@@V?$allocator@G@2@@std@@QEAAAEAV12@PEAG0PEBG@Z
; public: class std::basic_string<unsigned short,struct std::char_traits<unsigned short>,class std::allocator<unsigned short> > & __ptr64 __cdecl std::basic_string<unsigned short,struct std::char_traits<unsigned short>,class std::allocator<unsigned short> >::replace(unsigned short * __ptr64,unsigned short * __ptr64,unsigned short const * __ptr64,unsigned __int64) __ptr64
?replace@?$basic_string@GU?$char_traits@G@std@@V?$allocator@G@2@@std@@QEAAAEAV12@PEAG0PEBG_K@Z
; public: class std::basic_string<unsigned short,struct std::char_traits<unsigned short>,class std::allocator<unsigned short> > & __ptr64 __cdecl std::basic_string<unsigned short,struct std::char_traits<unsigned short>,class std::allocator<unsigned short> >::replace(unsigned short * __ptr64,unsigned short * __ptr64,unsigned __int64,unsigned short) __ptr64
?replace@?$basic_string@GU?$char_traits@G@std@@V?$allocator@G@2@@std@@QEAAAEAV12@PEAG0_KG@Z
; public: class std::basic_string<unsigned short,struct std::char_traits<unsigned short>,class std::allocator<unsigned short> > & __ptr64 __cdecl std::basic_string<unsigned short,struct std::char_traits<unsigned short>,class std::allocator<unsigned short> >::replace(unsigned __int64,unsigned __int64,unsigned __int64,unsigned short) __ptr64
?replace@?$basic_string@GU?$char_traits@G@std@@V?$allocator@G@2@@std@@QEAAAEAV12@_K00G@Z
; public: class std::basic_string<unsigned short,struct std::char_traits<unsigned short>,class std::allocator<unsigned short> > & __ptr64 __cdecl std::basic_string<unsigned short,struct std::char_traits<unsigned short>,class std::allocator<unsigned short> >::replace(unsigned __int64,unsigned __int64,class std::basic_string<unsigned short,struct std::char_traits<unsigned short>,class std::allocator<unsigned short> > const & __ptr64,unsigned __int64,unsigned __int64) __ptr64
?replace@?$basic_string@GU?$char_traits@G@std@@V?$allocator@G@2@@std@@QEAAAEAV12@_K0AEBV12@00@Z
; public: class std::basic_string<unsigned short,struct std::char_traits<unsigned short>,class std::allocator<unsigned short> > & __ptr64 __cdecl std::basic_string<unsigned short,struct std::char_traits<unsigned short>,class std::allocator<unsigned short> >::replace(unsigned __int64,unsigned __int64,class std::basic_string<unsigned short,struct std::char_traits<unsigned short>,class std::allocator<unsigned short> > const & __ptr64) __ptr64
?replace@?$basic_string@GU?$char_traits@G@std@@V?$allocator@G@2@@std@@QEAAAEAV12@_K0AEBV12@@Z
; public: class std::basic_string<unsigned short,struct std::char_traits<unsigned short>,class std::allocator<unsigned short> > & __ptr64 __cdecl std::basic_string<unsigned short,struct std::char_traits<unsigned short>,class std::allocator<unsigned short> >::replace(unsigned __int64,unsigned __int64,unsigned short const * __ptr64,unsigned __int64) __ptr64
?replace@?$basic_string@GU?$char_traits@G@std@@V?$allocator@G@2@@std@@QEAAAEAV12@_K0PEBG0@Z
; public: class std::basic_string<unsigned short,struct std::char_traits<unsigned short>,class std::allocator<unsigned short> > & __ptr64 __cdecl std::basic_string<unsigned short,struct std::char_traits<unsigned short>,class std::allocator<unsigned short> >::replace(unsigned __int64,unsigned __int64,unsigned short const * __ptr64) __ptr64
?replace@?$basic_string@GU?$char_traits@G@std@@V?$allocator@G@2@@std@@QEAAAEAV12@_K0PEBG@Z
; public: void __cdecl std::basic_string<char,struct std::char_traits<char>,class std::allocator<char> >::reserve(unsigned __int64) __ptr64
?reserve@?$basic_string@DU?$char_traits@D@std@@V?$allocator@D@2@@std@@QEAAX_K@Z
; public: void __cdecl std::basic_string<unsigned short,struct std::char_traits<unsigned short>,class std::allocator<unsigned short> >::reserve(unsigned __int64) __ptr64
?reserve@?$basic_string@GU?$char_traits@G@std@@V?$allocator@G@2@@std@@QEAAX_K@Z
; struct std::_Smanip<int>  __cdecl std::resetiosflags(int)
?resetiosflags@std@@YA?AU?$_Smanip@H@1@H@Z
; public: void __cdecl std::basic_string<char,struct std::char_traits<char>,class std::allocator<char> >::resize(unsigned __int64) __ptr64
?resize@?$basic_string@DU?$char_traits@D@std@@V?$allocator@D@2@@std@@QEAAX_K@Z
; public: void __cdecl std::basic_string<char,struct std::char_traits<char>,class std::allocator<char> >::resize(unsigned __int64,char) __ptr64
?resize@?$basic_string@DU?$char_traits@D@std@@V?$allocator@D@2@@std@@QEAAX_KD@Z
; public: void __cdecl std::basic_string<unsigned short,struct std::char_traits<unsigned short>,class std::allocator<unsigned short> >::resize(unsigned __int64) __ptr64
?resize@?$basic_string@GU?$char_traits@G@std@@V?$allocator@G@2@@std@@QEAAX_K@Z
; public: void __cdecl std::basic_string<unsigned short,struct std::char_traits<unsigned short>,class std::allocator<unsigned short> >::resize(unsigned __int64,unsigned short) __ptr64
?resize@?$basic_string@GU?$char_traits@G@std@@V?$allocator@G@2@@std@@QEAAX_KG@Z
; public: unsigned __int64 __cdecl std::basic_string<char,struct std::char_traits<char>,class std::allocator<char> >::rfind(class std::basic_string<char,struct std::char_traits<char>,class std::allocator<char> > const & __ptr64,unsigned __int64)const  __ptr64
?rfind@?$basic_string@DU?$char_traits@D@std@@V?$allocator@D@2@@std@@QEBA_KAEBV12@_K@Z
; public: unsigned __int64 __cdecl std::basic_string<char,struct std::char_traits<char>,class std::allocator<char> >::rfind(char,unsigned __int64)const  __ptr64
?rfind@?$basic_string@DU?$char_traits@D@std@@V?$allocator@D@2@@std@@QEBA_KD_K@Z
; public: unsigned __int64 __cdecl std::basic_string<char,struct std::char_traits<char>,class std::allocator<char> >::rfind(char const * __ptr64,unsigned __int64,unsigned __int64)const  __ptr64
?rfind@?$basic_string@DU?$char_traits@D@std@@V?$allocator@D@2@@std@@QEBA_KPEBD_K1@Z
; public: unsigned __int64 __cdecl std::basic_string<char,struct std::char_traits<char>,class std::allocator<char> >::rfind(char const * __ptr64,unsigned __int64)const  __ptr64
?rfind@?$basic_string@DU?$char_traits@D@std@@V?$allocator@D@2@@std@@QEBA_KPEBD_K@Z
; public: unsigned __int64 __cdecl std::basic_string<unsigned short,struct std::char_traits<unsigned short>,class std::allocator<unsigned short> >::rfind(class std::basic_string<unsigned short,struct std::char_traits<unsigned short>,class std::allocator<unsigned short> > const & __ptr64,unsigned __int64)const  __ptr64
?rfind@?$basic_string@GU?$char_traits@G@std@@V?$allocator@G@2@@std@@QEBA_KAEBV12@_K@Z
; public: unsigned __int64 __cdecl std::basic_string<unsigned short,struct std::char_traits<unsigned short>,class std::allocator<unsigned short> >::rfind(unsigned short,unsigned __int64)const  __ptr64
?rfind@?$basic_string@GU?$char_traits@G@std@@V?$allocator@G@2@@std@@QEBA_KG_K@Z
; public: unsigned __int64 __cdecl std::basic_string<unsigned short,struct std::char_traits<unsigned short>,class std::allocator<unsigned short> >::rfind(unsigned short const * __ptr64,unsigned __int64,unsigned __int64)const  __ptr64
?rfind@?$basic_string@GU?$char_traits@G@std@@V?$allocator@G@2@@std@@QEBA_KPEBG_K1@Z
; public: unsigned __int64 __cdecl std::basic_string<unsigned short,struct std::char_traits<unsigned short>,class std::allocator<unsigned short> >::rfind(unsigned short const * __ptr64,unsigned __int64)const  __ptr64
?rfind@?$basic_string@GU?$char_traits@G@std@@V?$allocator@G@2@@std@@QEBA_KPEBG_K@Z
; public: static signed char __cdecl std::numeric_limits<signed char>::round_error(void)
?round_error@?$numeric_limits@C@std@@SACXZ
; public: static char __cdecl std::numeric_limits<char>::round_error(void)
?round_error@?$numeric_limits@D@std@@SADXZ
; public: static unsigned char __cdecl std::numeric_limits<unsigned char>::round_error(void)
?round_error@?$numeric_limits@E@std@@SAEXZ
; public: static short __cdecl std::numeric_limits<short>::round_error(void)
?round_error@?$numeric_limits@F@std@@SAFXZ
; public: static unsigned short __cdecl std::numeric_limits<unsigned short>::round_error(void)
?round_error@?$numeric_limits@G@std@@SAGXZ
; public: static int __cdecl std::numeric_limits<int>::round_error(void)
?round_error@?$numeric_limits@H@std@@SAHXZ
; public: static unsigned int __cdecl std::numeric_limits<unsigned int>::round_error(void)
?round_error@?$numeric_limits@I@std@@SAIXZ
; public: static long __cdecl std::numeric_limits<long>::round_error(void)
?round_error@?$numeric_limits@J@std@@SAJXZ
; public: static unsigned long __cdecl std::numeric_limits<unsigned long>::round_error(void)
?round_error@?$numeric_limits@K@std@@SAKXZ
; public: static float __cdecl std::numeric_limits<float>::round_error(void)
?round_error@?$numeric_limits@M@std@@SAMXZ
; public: static double __cdecl std::numeric_limits<double>::round_error(void)
?round_error@?$numeric_limits@N@std@@SANXZ
; public: static long double __cdecl std::numeric_limits<long double>::round_error(void)
?round_error@?$numeric_limits@O@std@@SAOXZ
; public: static bool __cdecl std::numeric_limits<bool>::round_error(void)
?round_error@?$numeric_limits@_N@std@@SA_NXZ
; public: int __cdecl std::basic_streambuf<char,struct std::char_traits<char> >::sbumpc(void) __ptr64
?sbumpc@?$basic_streambuf@DU?$char_traits@D@std@@@std@@QEAAHXZ
; public: unsigned short __cdecl std::basic_streambuf<unsigned short,struct std::char_traits<unsigned short> >::sbumpc(void) __ptr64
?sbumpc@?$basic_streambuf@GU?$char_traits@G@std@@@std@@QEAAGXZ
; public: char const * __ptr64 __cdecl std::ctype<char>::scan_is(short,char const * __ptr64,char const * __ptr64)const  __ptr64
?scan_is@?$ctype@D@std@@QEBAPEBDFPEBD0@Z
; public: unsigned short const * __ptr64 __cdecl std::ctype<unsigned short>::scan_is(short,unsigned short const * __ptr64,unsigned short const * __ptr64)const  __ptr64
?scan_is@?$ctype@G@std@@QEBAPEBGFPEBG0@Z
; public: char const * __ptr64 __cdecl std::ctype<char>::scan_not(short,char const * __ptr64,char const * __ptr64)const  __ptr64
?scan_not@?$ctype@D@std@@QEBAPEBDFPEBD0@Z
; public: unsigned short const * __ptr64 __cdecl std::ctype<unsigned short>::scan_not(short,unsigned short const * __ptr64,unsigned short const * __ptr64)const  __ptr64
?scan_not@?$ctype@G@std@@QEBAPEBGFPEBG0@Z
; public: class std::basic_istream<char,struct std::char_traits<char> > & __ptr64 __cdecl std::basic_istream<char,struct std::char_traits<char> >::seekg(class std::fpos<int>) __ptr64
?seekg@?$basic_istream@DU?$char_traits@D@std@@@std@@QEAAAEAV12@V?$fpos@H@2@@Z
; public: class std::basic_istream<char,struct std::char_traits<char> > & __ptr64 __cdecl std::basic_istream<char,struct std::char_traits<char> >::seekg(__int64,enum std::ios_base::seekdir) __ptr64
?seekg@?$basic_istream@DU?$char_traits@D@std@@@std@@QEAAAEAV12@_JW4seekdir@ios_base@2@@Z
; public: class std::basic_istream<unsigned short,struct std::char_traits<unsigned short> > & __ptr64 __cdecl std::basic_istream<unsigned short,struct std::char_traits<unsigned short> >::seekg(class std::fpos<int>) __ptr64
?seekg@?$basic_istream@GU?$char_traits@G@std@@@std@@QEAAAEAV12@V?$fpos@H@2@@Z
