;
; Definition file of BDEUI.dll
; Automatic generated by gendef
; written by Kai Tietz 2008-2014
;
LIBRARY "BDEUI.dll"
EXPORTS
??0BuiVolume@@QAA@XZ
??0BuiVolume@@QAA@_N@Z
??0VolumeFveStatus@@IAA@XZ
??0VolumeFveStatus@@QAA@K_KJW4_FVE_WIPING_STATE@@@Z
??1BuiVolume@@QAA@XZ
??4BuiVolume@@QAAAAV0@ABV0@@Z
??4VolumeFveStatus@@QAAAAV0@ABV0@@Z
?AddSmartCard@BuiVolume@@QAAJPAUHWND__@@@Z
?AllowForegroundWindowDisplay@BuiVolume@@AAAJXZ
?AttemptAutoUnlock@BuiVolume@@QAAJXZ
?BasicDispatch@BuiVolume@@AAAJJPAUHWND__@@PBGPAJ@Z
?BasicDispatch@BuiVolume@@AAAJJPBG0PAHPAJ@Z
?BasicDispatch@BuiVolume@@AAAJJPBG0PAJ@Z
?BasicDispatch@BuiVolume@@AAAJJPBGPAHPAJ@Z
?BasicDispatch@BuiVolume@@AAAJJPBGPAJ@Z
?BasicDispatch@BuiVolume@@AAAJJPBGPAPAG@Z
?BasicDispatch@BuiVolume@@AAAJJPBGPAUtagVARIANT@@@Z
?BuisCreateElevatedProxyObject@@YAJPAUHWND__@@PAPAUIDispatch@@@Z
?BuisCreateProxyObject@@YAJPAPAUIDispatch@@@Z
?BuisDetectExistingWizard@@YAJPBG00PAPAX@Z
?BuisIsFipsEnabled@@YA_NXZ
?BuisIsHardwareReadyForConversion@@YAJXZ
?BuisLaunchHelp@@YAJABU_GUID@@@Z
?CanBeResumed@BuiVolume@@QBA_NXZ
?CanRefreshStatus@BuiVolume@@ABA_NXZ
?ClearProxyObject@BuiVolume@@QAAXXZ
?Decrypt@BuiVolume@@QAAJPAUHWND__@@@Z
?DeleteVolumeList@BuiVolume@@SAXPAPAU_BuiVolumeNode@@@Z
?Disable@BuiVolume@@QAAJPAUHWND__@@@Z
?DisableAutoUnlock@BuiVolume@@QAAJXZ
?Dispatch@BuiVolume@@AAAJJPAUtagDISPPARAMS@@PAJ@Z
?Dispatch@BuiVolume@@AAAJJPAUtagDISPPARAMS@@PAUtagVARIANT@@@Z
?EnableAutoUnlock@BuiVolume@@QAAJXZ
?FailedDryRun@VolumeFveStatus@@QBA_NXZ
?FindMountPoint@BuiVolume@@AAAJXZ
?FormatNameAndMountPoint@BuiVolume@@AAAJXZ
?GetAllVolumes@BuiVolume@@SAJPAPAU_BuiVolumeNode@@@Z
?GetConvertedPercent@BuiVolume@@QBANXZ
?GetDescription@BuiVolume@@QAAJPAPAG@Z
?GetExtendedFlags@VolumeFveStatus@@QBA_KXZ
?GetLastConvertStatus@VolumeFveStatus@@QBAJXZ
?GetOsVolume@BuiVolume@@SAJPAPAV1@@Z
?GetPasswordId@BuiVolume@@QAAJPAPAG@Z
?GetStatusFlags@VolumeFveStatus@@QBAKXZ
?GetWipeCount@BuiVolume@@QBAKXZ
?GetWipedPercent@BuiVolume@@QBANXZ
?HasAutoUnlockVolumesBound@BuiVolume@@QAA_NXZ
?HasExternalKey@VolumeFveStatus@@QBA_NXZ
?HasPBKDF2RecoveryPassword@VolumeFveStatus@@QBA_NXZ
?HasPassphraseProtector@VolumeFveStatus@@QBA_NXZ
?HasPinProtector@VolumeFveStatus@@QBA_NXZ
?HasRecoveryData@VolumeFveStatus@@QBA_NXZ
?HasRecoveryPassword@VolumeFveStatus@@QBA_NXZ
?HasSmartCardProtector@VolumeFveStatus@@QBA_NXZ
?HasStartupKeyProtector@VolumeFveStatus@@QBA_NXZ
?HasTpmProtector@VolumeFveStatus@@QBA_NXZ
?ImplicitPauseConversion@BuiVolume@@QAAJXZ
?Init@BuiVolume@@QAAJPAG@Z
?InitMembers@BuiVolume@@AAAXXZ
?IsAutoUnlockEnabled@BuiVolume@@QAA_NXZ
?IsConverting@VolumeFveStatus@@QBA_NXZ
?IsCsvMetadataVolume@VolumeFveStatus@@QBA_NXZ
?IsCurrentPINEnhanced@BuiVolume@@QAAJPAH@Z
?IsDEAutoProvisioned@VolumeFveStatus@@QBA_NXZ
?IsDecrypted@VolumeFveStatus@@QBA_NXZ
?IsDecrypting@VolumeFveStatus@@QBA_NXZ
?IsDisabled@VolumeFveStatus@@QBA_NXZ
?IsEDriveVolume@VolumeFveStatus@@QBA_NXZ
?IsEncrypted@VolumeFveStatus@@QBA_NXZ
?IsEncrypting@VolumeFveStatus@@QBA_NXZ
?IsFveNotifyNecessary@BuiVolume@@QBA_NXZ
?IsLocked@VolumeFveStatus@@QBA_NXZ
?IsOn@VolumeFveStatus@@QBA_NXZ
?IsOsVolume@VolumeFveStatus@@QBA_NXZ
?IsPartiallyConverted@VolumeFveStatus@@QBA_NXZ
?IsPaused@VolumeFveStatus@@QBA_NXZ
?IsPreProvisioned@VolumeFveStatus@@QBA_NXZ
?IsRoamingDevice@VolumeFveStatus@@QBA_NXZ
?IsSecure@VolumeFveStatus@@QBA_NXZ
?IsUnknownFveVersion@VolumeFveStatus@@QBA_NXZ
?IsWiping@VolumeFveStatus@@QBA_NXZ
?LaunchUpdate@BuiVolume@@QAAJXZ
?LaunchWizard@BuiVolume@@QAAJG@Z
?ManagementRequiresElevation@BuiVolume@@QBA_NXZ
?NO_DRIVE_LETTER@BuiVolume@@2IB
?NeedsDiscoveryVolumeUpdate@BuiVolume@@QAAJPAH@Z
?NeedsRestart@VolumeFveStatus@@QBA_NXZ
?PauseConversion@BuiVolume@@QAAJXZ
?ProxyAddSmartCard@BuiVolume@@AAAJPAUHWND__@@@Z
?ProxyAreVolumesBound@BuiVolume@@AAAJXZ
?ProxyAttemptAutoUnlock@BuiVolume@@AAAJXZ
?ProxyDecrypt@BuiVolume@@AAAJPAUHWND__@@@Z
?ProxyDisable@BuiVolume@@AAAJPAUHWND__@@@Z
?ProxyDisableAutoUnlock@BuiVolume@@AAAJXZ
?ProxyEnableAutoUnlock@BuiVolume@@AAAJXZ
?ProxyGetDescription@BuiVolume@@AAAJPAPAG@Z
?ProxyGetPasswordId@BuiVolume@@AAAJPAPAG@Z
?ProxyGetProcessId@BuiVolume@@AAAJPAK@Z
?ProxyImplicitPauseConversion@BuiVolume@@AAAJXZ
?ProxyIsAutoUnlockEnabled@BuiVolume@@AAAJXZ
?ProxyLaunchUpdate@BuiVolume@@AAAJXZ
?ProxyLaunchWizard@BuiVolume@@AAAJG@Z
?ProxyNeedsDiscoveryVolumeUpdate@BuiVolume@@AAAJPAH@Z
?ProxyPauseConversion@BuiVolume@@AAAJXZ
?ProxyRemovePassphrase@BuiVolume@@AAAJXZ
?ProxyRemoveSmartCard@BuiVolume@@AAAJ_N@Z
?ProxyResumeConversion@BuiVolume@@AAAJXZ
?ProxyServiceDiscoveryVolume@BuiVolume@@AAAJXZ
?ProxyUnlockVolumeWithKey@BuiVolume@@AAAJPBGPAH@Z
?ProxyUnlockVolumeWithPassphrase@BuiVolume@@AAAJPBGPAH@Z
?ProxyUnlockVolumeWithPassword@BuiVolume@@AAAJPBGPAH@Z
?ProxyUnlockVolumeWithSmartCard@BuiVolume@@AAAJPAUHWND__@@PAH@Z
?ProxyUpgradeVolume@BuiVolume@@AAAJXZ
?RefreshStatus@BuiVolume@@QAAJ_N@Z
?RemovePassphrase@BuiVolume@@QAAJXZ
?RemoveSmartCard@BuiVolume@@QAAJ_N@Z
?ResumeConversion@BuiVolume@@QAAJXZ
?ResumeStatusRefreshing@BuiVolume@@QAAXXZ
?ServiceDiscoveryVolume@BuiVolume@@QAAJXZ
?SetProxyObject@BuiVolume@@QAAXPAUIDispatch@@@Z
?SuspendStatusRefreshing@BuiVolume@@QAAXXZ
?UnlockRequiresElevation@BuiVolume@@QBA_NXZ
?UnlockWithKey@BuiVolume@@QAAJPBGPAH@Z
?UnlockWithPassphrase@BuiVolume@@QAAJPBGPAH@Z
?UnlockWithPassword@BuiVolume@@QAAJPBGPAH@Z
?UnlockWithSmartCard@BuiVolume@@QAAJPAUHWND__@@PAH@Z
?UpgradeVolume@BuiVolume@@QAAJXZ
