;
; Definition file of hhsetup.dll
; Automatic generated by gendef
; written by Kai Tietz 2008-2014
;
LIBRARY "hhsetup.dll"
EXPORTS
??0CCollection@@QAA@XZ
??0CFIFOString@@QAA@XZ
??0CFolder@@QAA@XZ
??0CLocation@@QAA@XZ
??0CPointerList@@QAA@XZ
??0CTitle@@QAA@XZ
??1CCollection@@QAA@XZ
??1CFIFOString@@QAA@XZ
??1CFolder@@QAA@XZ
??1CLocation@@QAA@XZ
??1CPointerList@@QAA@XZ
??1CTitle@@QAA@XZ
??4CCollection@@QAAAAV0@ABV0@@Z
??4CFIFOString@@QAAAAV0@ABV0@@Z
??4CFolder@@QAAAAV0@ABV0@@Z
??4CLocation@@QAAAAV0@ABV0@@Z
??4CPointerList@@QAAAAV0@ABV0@@Z
??4CTitle@@QAAAAV0@ABV0@@Z
?Add@CPointerList@@QAAPAUListItem@@PAX@Z
?AddChildFolder@CFolder@@QAAKPAV1@@Z
?AddChildFolder@CFolder@@QAAPAV1@PBDKPAKG@Z
?AddChildFolder@CFolder@@QAAPAV1@PBGKPAKG@Z
?AddCollection@CCollection@@QAAPAVCColList@@XZ
?AddFolder@CCollection@@QAAPAVCFolder@@PBDKPAKG@Z
?AddFolder@CCollection@@QAAPAVCFolder@@PBGKPAKG@Z
?AddLocation@CCollection@@QAAPAVCLocation@@PBD000PAK@Z
?AddLocation@CCollection@@QAAPAVCLocation@@PBG000PAK@Z
?AddLocationHistory@CTitle@@QAAKKPBD00PBVCLocation@@00H@Z
?AddLocationHistory@CTitle@@QAAKKPBG00PBVCLocation@@00H@Z
?AddRef@CCollection@@QAAXXZ
?AddRefedTitle@CCollection@@AAAKPAVCFolder@@@Z
?AddTail@CFIFOString@@QAAKPAD@Z
?AddTitle@CCollection@@QAAPAVCTitle@@PBD0000GIPAVCLocation@@PAKH0@Z
?AddTitle@CCollection@@QAAPAVCTitle@@PBG0000GIPAVCLocation@@PAKH0@Z
?AllocCopyValue@CCollection@@AAAKPAVCParseXML@@PADPAPAD@Z
?AllocSetValue@@YAKPBDPAPAD@Z
?CheckTitleRef@CCollection@@AAAKPBDG@Z
?CheckTitleRef@CCollection@@AAAKPBGG@Z
?Close@CCollection@@QAAKXZ
?ConfirmTitles@CCollection@@QAAXXZ
?DecrementRefTitleCount@CCollection@@QAAXXZ
?DeleteChildren@CCollection@@AAAXPAPAVCFolder@@@Z
?DeleteFolder@CCollection@@QAAKPAVCFolder@@@Z
?DeleteFolders@CCollection@@AAAXPAPAVCFolder@@@Z
?DeleteLocalFiles@CCollection@@AAAXPAULocationHistory@@PAVCTitle@@@Z
?DeleteLocation@CCollection@@AAAKPAVCLocation@@@Z
?DeleteTitle@CCollection@@AAAKPAVCTitle@@@Z
?Dirty@CCollection@@QAAXXZ
?FindCollection@CCollection@@QAAPAVCColList@@PBD@Z
?FindLocation@CCollection@@QAAPAVCLocation@@PBDPAI@Z
?FindLocation@CCollection@@QAAPAVCLocation@@PBGPAI@Z
?FindTitle@CCollection@@QAAPAVCTitle@@PBDG@Z
?FindTitle@CCollection@@QAAPAVCTitle@@PBGG@Z
?First@CPointerList@@QAAPAUListItem@@XZ
?FirstLocation@CCollection@@QAAPAVCLocation@@XZ
?GetColNo@CCollection@@QAAKXZ
?GetCollectionFileName@CCollection@@QAAPBDXZ
?GetCollectionFileNameW@CCollection@@QAAPBGXZ
?GetFindMergedCHMS@CCollection@@QAAHXZ
?GetFirstChildFolder@CFolder@@QAAPAV1@XZ
?GetFirstTitle@CCollection@@QAAPAVCTitle@@XZ
?GetId@CLocation@@QBAPADXZ
?GetId@CTitle@@QAAPADXZ
?GetIdW@CLocation@@QAAPBGXZ
?GetIdW@CTitle@@QAAPBGXZ
?GetLangId@CCollection@@QAAGPBD@Z
?GetLangId@CCollection@@QAAGPBG@Z
?GetLanguage@CFolder@@QAAGXZ
?GetLanguage@CTitle@@QAAGXZ
?GetLocation@CTitle@@QAAPAULocationHistory@@K@Z
?GetMasterCHM@CCollection@@QAAHPAPADPAG@Z
?GetMasterCHM@CCollection@@QAAHPAPAGPAG@Z
?GetNextFolder@CFolder@@QAAPAV1@XZ
?GetNextLocation@CLocation@@QAAPAV1@XZ
?GetNextTitle@CTitle@@QAAPAV1@XZ
?GetOrder@CFolder@@QAAKXZ
?GetParent@CFolder@@QAAPAV1@XZ
?GetPath@CLocation@@QAAPADXZ
?GetPathW@CLocation@@QAAPBGXZ
?GetRefTitleCount@CCollection@@QAAKXZ
?GetRootFolder@CCollection@@QAAPAVCFolder@@XZ
?GetSampleLocation@CCollection@@QAAPADXZ
?GetSampleLocationW@CCollection@@QAAPBGXZ
?GetTail@CFIFOString@@QAAKPAPAD@Z
?GetTitle@CFolder@@QAAPADXZ
?GetTitle@CLocation@@QAAPADXZ
?GetTitleW@CFolder@@QAAPBGXZ
?GetTitleW@CLocation@@QAAPBGXZ
?GetVersion@CCollection@@QAAKXZ
?GetVisableRootFolder@CCollection@@QAAPAVCFolder@@XZ
?GetVolume@CLocation@@QAAPADXZ
?GetVolumeW@CLocation@@QAAPBGXZ
?HandleCollection@CCollection@@AAAKPAVCParseXML@@PAD@Z
?HandleCollectionEntry@CCollection@@AAAKPAVCParseXML@@PAD@Z
?HandleFolder@CCollection@@AAAKPAVCParseXML@@PAD@Z
?HandleLocation@CCollection@@AAAKPAVCParseXML@@PAD@Z
?HandleTitle@CCollection@@AAAKPAVCParseXML@@PAD@Z
?IncrementRefTitleCount@CCollection@@QAAXXZ
?IsDirty@CCollection@@QAAHXZ
?MergeKeywords@CCollection@@QAAHPAD@Z
?MergeKeywords@CCollection@@QAAHPAG@Z
?NewLocation@CCollection@@AAAPAVCLocation@@XZ
?NewLocationHistory@CTitle@@QAAPAULocationHistory@@XZ
?NewTitle@CCollection@@AAAPAVCTitle@@XZ
?Next@CPointerList@@QAAPAUListItem@@PAU2@@Z
?Open@CCollection@@QAAKPBD@Z
?Open@CCollection@@QAAKPBG@Z
?ParseFile@CCollection@@AAAKPBD@Z
?Release@CCollection@@AAAKXZ
?RemoveAll@CFIFOString@@QAAXXZ
?RemoveAll@CPointerList@@QAAXXZ
?RemoveCollection@CCollection@@QAAKH@Z
?RemoveCollectionEntry@CCollection@@QAAXPBD@Z
?Save@CCollection@@QAAKXZ
?SetExTitlePtr@CFolder@@QAAXPAVCExTitle@@@Z
?SetFindMergedCHMS@CCollection@@QAAXH@Z
?SetFirstChildFolder@CFolder@@QAAXPAV1@@Z
?SetId@CLocation@@QAAXPBD@Z
?SetId@CLocation@@QAAXPBG@Z
?SetId@CTitle@@QAAXPBD@Z
?SetId@CTitle@@QAAXPBG@Z
?SetLanguage@CFolder@@QAAXG@Z
?SetLanguage@CTitle@@QAAXG@Z
?SetMasterCHM@CCollection@@QAAXPBDG@Z
?SetMasterCHM@CCollection@@QAAXPBGG@Z
?SetNextFolder@CFolder@@QAAXPAV1@@Z
?SetNextLocation@CLocation@@QAAXPAV1@@Z
?SetNextTitle@CTitle@@QAAXPAV1@@Z
?SetOrder@CFolder@@QAAXK@Z
?SetParent@CFolder@@QAAXPAV1@@Z
?SetPath@CLocation@@QAAXPBD@Z
?SetPath@CLocation@@QAAXPBG@Z
?SetSampleLocation@CCollection@@QAAXPBD@Z
?SetSampleLocation@CCollection@@QAAXPBG@Z
?SetTitle@CFolder@@QAAXPBD@Z
?SetTitle@CFolder@@QAAXPBG@Z
?SetTitle@CLocation@@QAAXPBD@Z
?SetTitle@CLocation@@QAAXPBG@Z
?SetVersion@CCollection@@QAAXK@Z
?SetVolume@CLocation@@QAAXPBD@Z
?SetVolume@CLocation@@QAAXPBG@Z
?WriteFolder@CCollection@@AAAHPAPAVCFolder@@@Z
?WriteFolders@CCollection@@AAAHPAPAVCFolder@@@Z
?bIsVisable@CFolder@@QAAHXZ
?wssResetNextColNum@CCollection@@AAAXXZ
