;
; Definition file of ifsutil.dll
; Automatic generated by gendef
; written by Kai Tietz 2008-2014
;
LIBRARY "ifsutil.dll"
EXPORTS
??0BLOCK_CACHE@@QAA@XZ
??0CANNED_SECURITY@@QAA@XZ
??0DIGRAPH@@QAA@XZ
??0DIGRAPH_EDGE@@QAA@XZ
??0DP_DRIVE@@QAA@XZ
??0INTSTACK@@QAA@XZ
??0LOG_IO_DP_DRIVE@@QAA@XZ
??0MEDIA_TRACK_INFORMATION@@QAA@XZ
??0MOUNT_POINT_MAP@@QAA@XZ
??0MOUNT_POINT_TUPLE@@QAA@XZ
??0NUMBER_SET@@QAA@XZ
??0POW_CACHE@@QAA@XZ
??0POW_TRACK@@QAA@XZ
??0READ_AHEAD_CACHE@@QAA@XZ
??0READ_CACHE@@QAA@XZ
??0READ_MODIFY_WRITE_CACHE@@QAA@XZ
??0READ_WRITE_CACHE@@QAA@XZ
??0SECRUN@@QAA@XZ
??0SNAPSHOT@@AAA@XZ
??0SPARSE_SET@@QAA@XZ
??0SUPERAREA@@IAA@XZ
??0TLINK@@QAA@XZ
??0VOL_LIODPDRV@@IAA@XZ
??0WRITEVIEW_CACHE@@QAA@XZ
??0WRITEVIEW_CACHE_ENTRY@@QAA@PAVWRITEVIEW_CACHE@@G@Z
??0WRITE_ONCE_CACHE@@QAA@XZ
??1BLOCK_CACHE@@UAA@XZ
??1CANNED_SECURITY@@UAA@XZ
??1DIGRAPH@@UAA@XZ
??1DP_DRIVE@@UAA@XZ
??1INTSTACK@@UAA@XZ
??1LOG_IO_DP_DRIVE@@UAA@XZ
??1MOUNT_POINT_MAP@@UAA@XZ
??1NUMBER_SET@@UAA@XZ
??1SECRUN@@UAA@XZ
??1SNAPSHOT@@EAA@XZ
??1SPARSE_SET@@UAA@XZ
??1SUPERAREA@@UAA@XZ
??1TLINK@@UAA@XZ
??1VOL_LIODPDRV@@UAA@XZ
??1WRITEVIEW_CACHE@@UAA@XZ
??1WRITEVIEW_CACHE_ENTRY@@QAA@XZ
?Add@NUMBER_SET@@QAAEPBV1@@Z
?Add@NUMBER_SET@@QAAEVBIG_INT@@0@Z
?Add@NUMBER_SET@@QAAEVBIG_INT@@@Z
?Add@SPARSE_SET@@QAAEPBV1@@Z
?Add@SPARSE_SET@@QAAEVBIG_INT@@@Z
?AddDriveName@MOUNT_POINT_MAP@@QAAEPAVWSTRING@@0@Z
?AddEdge@DIGRAPH@@QAAEKK@Z
?AddEntry@AUTOREG@@SAEPBVWSTRING@@@Z
?AddNext@NUMBER_SET@@QAAEVBIG_INT@@@Z
?AddStart@NUMBER_SET@@QAAEVBIG_INT@@@Z
?AddVolumeName@MOUNT_POINT_MAP@@QAAEPAVWSTRING@@0@Z
?AdjustCacheSize@BLOCK_CACHE@@UAAXPA_K0@Z
?AdjustCacheSize@IO_DP_DRIVE@@QAAXPA_K0@Z
?AdjustCacheSize@WRITEVIEW_CACHE@@UAAXPA_K0@Z
?Check@SPARSE_SET@@QAAEVBIG_INT@@@Z
?CheckAndAdd@NUMBER_SET@@QAAEVBIG_INT@@PAE@Z
?CheckAndAdd@SPARSE_SET@@QAAEVBIG_INT@@PAE@Z
?CheckAndRemove@NUMBER_SET@@QAAEVBIG_INT@@PAE@Z
?CheckAndRemove@SPARSE_SET@@QAAEVBIG_INT@@PAE@Z
?CheckSnapshotPresence@SNAPSHOT@@QAAEXZ
?CheckValidSecurityDescriptor@IFS_SYSTEM@@SAEKPAU_SECURITY_DESCRIPTOR@@@Z
?ChkDsk@VOL_LIODPDRV@@QAAEW4FIX_LEVEL@@PAVMESSAGE@@KKGPAKPBVWSTRING@@@Z
?CleanupBackingStore@WRITEVIEW_BACKINGSTORE@@SAEPAVWSTRING@@@Z
?CloseDriveHandle@DP_DRIVE@@QAAXXZ
?ComputeVolId@SUPERAREA@@SAKK@Z
?CreateTrack@DP_DRIVE@@QAAEKEW4NwaType@1@@Z
?CreateTrack@MEDIA_TRACK_INFORMATION@@QAAPAV1@KE@Z
?Delete@WRITEVIEW_CACHE@@QAAXPAVWRITEVIEW_CACHE_ENTRY@@@Z
?DeleteEntry@AUTOREG@@SAEPBVWSTRING@@0@Z
?DeleteEntry@AUTOREG@@SAEPBVWSTRING@@E@Z
?DiskCopyMainLoop@@YAHPBVWSTRING@@000EPAVMESSAGE@@1@Z
?DismountAndLock@IO_DP_DRIVE@@QAAEXZ
?DismountVolume@IFS_SYSTEM@@SAEPBVWSTRING@@@Z
?DoesIntersectSet@NUMBER_SET@@QBAEVBIG_INT@@0@Z
?DosDriveNameToNtDriveName@IFS_SYSTEM@@SAEPBVWSTRING@@PAV2@@Z
?DumpHashTable@SPARSE_SET@@QAAXXZ
?EliminateCycles@DIGRAPH@@QAAEPAVCONTAINER@@PAE@Z
?EnableFileSystem@IFS_SYSTEM@@SAEPBVWSTRING@@@Z
?EnableVolumeCompression@IFS_SYSTEM@@SAEPBVWSTRING@@@Z
?EnableVolumeIntegrity@IFS_SYSTEM@@SAEPBVWSTRING@@G@Z
?EnableVolumeUpgrade@IFS_SYSTEM@@SAEPBVWSTRING@@@Z
?Export@FORMAT_SQM@@QAAEH@Z
?FileSetAttributes@IFS_SYSTEM@@SAEPBVWSTRING@@KPAK@Z
?FlushCache@IO_DP_DRIVE@@QAAEXZ
?ForceAutochk@VOL_LIODPDRV@@QAAEEKKGPBVWSTRING@@@Z
?Format@VOL_LIODPDRV@@QAA?AW4FORMAT_ERROR_CODE@@PBVWSTRING@@PAVMESSAGE@@KKK@Z
?FormatScaleQuickFormatVerify@IFS_SYSTEM@@SAE_KPAK11PA_K@Z
?FormatScaleTotalFreeClusters@IFS_SYSTEM@@SAE_K0PAK1PA_K2@Z
?GenerateLabelNotification@SUPERAREA@@SAJPBVWSTRING@@PAV2@PAU_FILE_FS_SIZE_INFORMATION@@PAU_FILE_FS_VOLUME_INFORMATION@@@Z
?GetAt@MOUNT_POINT_MAP@@QAAEKPAVWSTRING@@0@Z
?GetBuffer@TLINK@@QAAPAXPAX@Z
?GetCannedSecurity@IFS_SYSTEM@@SAPAVCANNED_SECURITY@@XZ
?GetCannedSecurityDescriptor@CANNED_SECURITY@@QAAPAXW4_CANNED_SECURITY_TYPE@@PAK@Z
?GetCurrentSnapshot@SNAPSHOT@@SAPAV1@XZ
?GetData@TLINK@@QAAAAVBIG_INT@@G@Z
?GetData@TLINK@@QAAAAVBIG_INT@@PAX@Z
?GetDefaultFileSystemIfs@@YAEPAUFMIFS_DEF_FS_PARAM@@PAUFMIFS_DEF_FS_OUT@@PAK@Z
?GetDrive@SECRUN@@QAAPAVIO_DP_DRIVE@@XZ
?GetDrive@SUPERAREA@@QAAPAVIO_DP_DRIVE@@XZ
?GetFileSystemName@VOL_LIODPDRV@@QAAPBGXZ
?GetFirst@TLINK@@QAAPAXXZ
?GetMessageW@IO_DP_DRIVE@@QAAPAVMESSAGE@@XZ
?GetMessageW@SUPERAREA@@QAAPAVMESSAGE@@XZ
?GetNext@TLINK@@QAAPAXPAX@Z
?GetNextDataSlot@TLINK@@QAAAAVBIG_INT@@XZ
?GetPerfFreq@BLOCK_CACHE@@QAA_KXZ
?GetPhaseSubPhase@DRIVE_CACHE@@SAXPAPAG0@Z
?GetSnapshotErrorMessage@SNAPSHOT@@SAEJPAVWSTRING@@@Z
?GetSnapshotGlobalDeviceName@SNAPSHOT@@QAAPAGXZ
?GetSnapshotNtDeviceName@SNAPSHOT@@QAAPAGXZ
?GetSortedFirst@TLINK@@QAAPAXXZ
?GetSortedNext@TLINK@@QAAPAXPAX@Z
?GetSystemTime@IFS_SYSTEM@@SAXPAU_TIME_FIELDS@@@Z
?GetVolumeSnapshot@SNAPSHOT@@SAJPAVWSTRING@@PAPAV1@@Z
?HardRead@IO_DP_DRIVE@@QAAEVBIG_INT@@KPAX@Z
?HardWrite@IO_DP_DRIVE@@QAAEVBIG_INT@@KPAXE@Z
?Initialize@BLOCK_CACHE@@QAAEPAVIO_DP_DRIVE@@@Z
?Initialize@CANNED_SECURITY@@QAAEXZ
?Initialize@DIGRAPH@@QAAEK@Z
?Initialize@DP_DRIVE@@QAAEPBVWSTRING@@0PAVMESSAGE@@EE@Z
?Initialize@DP_DRIVE@@QAAEPBVWSTRING@@PAVMESSAGE@@EEG@Z
?Initialize@FORMAT_SQM@@QAAEPAVDP_DRIVE@@PBGKK@Z
?Initialize@INTSTACK@@QAAEXZ
?Initialize@LOG_IO_DP_DRIVE@@QAAEPBVWSTRING@@0PAVMESSAGE@@E@Z
?Initialize@LOG_IO_DP_DRIVE@@QAAEPBVWSTRING@@PAVMESSAGE@@EG@Z
?Initialize@MEDIA_TRACK_INFORMATION@@QAAXPAU_TRACK_INFORMATION2@@@Z
?Initialize@MEDIA_TRACK_INFORMATION_SORTED_BY_SIZE@@QAAXPAVMEDIA_TRACK_INFORMATION@@@Z
?Initialize@MOUNT_POINT_MAP@@QAAEXZ
?Initialize@NUMBER_SET@@QAAEXZ
?Initialize@POW_CACHE@@QAAEKKKKK@Z
?Initialize@POW_CACHE@@QAAEPAVIO_DP_DRIVE@@@Z
?Initialize@READ_AHEAD_CACHE@@QAAEPAVIO_DP_DRIVE@@KK@Z
?Initialize@READ_CACHE@@QAAEPAVIO_DP_DRIVE@@K@Z
?Initialize@READ_MODIFY_WRITE_CACHE@@QAAEPAVIO_DP_DRIVE@@KKEE@Z
?Initialize@READ_WRITE_CACHE@@QAAEPAVIO_DP_DRIVE@@K@Z
?Initialize@SECRUN@@QAAEPAVMEM@@PAVIO_DP_DRIVE@@VBIG_INT@@K@Z
?Initialize@SNAPSHOT@@AAAJPAG@Z
?Initialize@SPARSE_SET@@QAAEXZ
?Initialize@SUPERAREA@@IAAEPAVMEM@@PAVLOG_IO_DP_DRIVE@@KPAVMESSAGE@@@Z
?Initialize@TLINK@@QAAEG@Z
?Initialize@VOL_LIODPDRV@@IAA?AW4FORMAT_ERROR_CODE@@PBVWSTRING@@PAVSUPERAREA@@PAVMESSAGE@@EEW4_MEDIA_TYPE@@GEIE@Z
?Initialize@VOL_LIODPDRV@@IAAEPBVWSTRING@@0PAVSUPERAREA@@PAVMESSAGE@@E@Z
?Initialize@WRITEVIEW_CACHE@@QAAEPAVIO_DP_DRIVE@@PAVDRIVE_CACHE@@PBVWSTRING@@GE@Z
?Initialize@WRITE_ONCE_CACHE@@QAAEPAVIO_DP_DRIVE@@KKK@Z
?InitializePowTrackConfiguration@DP_DRIVE@@QAAEEPAE@Z
?InvalidateFve@@YAEPAVDSTRING@@PAVMESSAGE@@PAU_FORMATEX_FN_PARAM@@@Z
?InvalidateVolume@IO_DP_DRIVE@@QAAEXZ
?IsArcSystemPartition@IFS_SYSTEM@@SAEPBVWSTRING@@PAE@Z
?IsBootCriticalVolume@DP_DRIVE@@QAAEXZ
?IsEntryPresent@AUTOREG@@SAEPBVWSTRING@@0@Z
?IsEntryPresent@AUTOREG@@SAEPBVWSTRING@@@Z
?IsFatalError@SNAPSHOT@@SAEJ@Z
?IsFileSystemEnabled@IFS_SYSTEM@@SAEPBVWSTRING@@PAE@Z
?IsFrontEndPresent@AUTOREG@@SAEPBVWSTRING@@0@Z
?IsMember@INTSTACK@@QBAEVBIG_INT@@@Z
?IsThisNtfs@IFS_SYSTEM@@SAEVBIG_INT@@KPAX@Z
?IsThisReFS@IFS_SYSTEM@@SAEVBIG_INT@@KPAX@Z
?IsTotalDeviceFailure@IFS_SYSTEM@@SAEJ@Z
?IsUdfMediaWritable@DP_DRIVE@@QAAEXZ
?IsVolumeDirty@IFS_SYSTEM@@SAEPAVWSTRING@@PAE1PAJ@Z
?IsVolumeWriteable@IFS_SYSTEM@@SAEPAVWSTRING@@PAEPAJ@Z
?IssueDeleteNotification@IO_DP_DRIVE@@QAAE_KK@Z
?Lock@IO_DP_DRIVE@@QAAEXZ
?Look@INTSTACK@@QBA?AVBIG_INT@@K@Z
?NotifyFveAfterFormat@@YAXPAVDSTRING@@@Z
?NtDeviceNameToDosDriveName@IFS_SYSTEM@@SAEPBVWSTRING@@PAV2@@Z
?NtDriveNameToDosDriveName@IFS_SYSTEM@@SAEPBVWSTRING@@PAV2@@Z
?Pop@INTSTACK@@QAAXK@Z
?PowForceAllocation@IO_DP_DRIVE@@QAAEKKPAKW4NwaType@DP_DRIVE@@@Z
?Prefetch@IO_DP_DRIVE@@QAAEVBIG_INT@@K@Z
?Purge@WRITEVIEW_CACHE@@QAAXVBIG_INT@@K@Z
?Push@INTSTACK@@QAAEVBIG_INT@@@Z
?PushEntry@AUTOREG@@SAEPBVWSTRING@@@Z
?QueryAutochkTimeOut@VOL_LIODPDRV@@SAEPAK@Z
?QueryCacheSize@BLOCK_CACHE@@UAAXPA_K0@Z
?QueryCacheSize@IO_DP_DRIVE@@QAAXPA_K0@Z
?QueryCacheSize@WRITEVIEW_CACHE@@UAAXPA_K0@Z
?QueryCanonicalNtDriveName@IFS_SYSTEM@@SAEPBVWSTRING@@PAV2@@Z
?QueryChildren@DIGRAPH@@QBAEKPAVNUMBER_SET@@@Z
?QueryCompressedInteger@BIG_INT@@QBAXPAE0@Z
?QueryContainingRange@NUMBER_SET@@QBAEVBIG_INT@@PAV2@1@Z
?QueryCorruptionState@IFS_SYSTEM@@SAEPAVWSTRING@@PAKPAEPAJ@Z
?QueryDataRedundancyCount@DP_DRIVE@@UAAJPAK0@Z
?QueryDiscStatus@DP_DRIVE@@QAAEPAK0@Z
?QueryDisjointRange@NUMBER_SET@@QBAXKPAVBIG_INT@@0@Z
?QueryDisjointRangeAndAssignBuffer@TLINK@@QAAPAXPAVBIG_INT@@PAG1PAXK2@Z
?QueryDriveHandle@DP_DRIVE@@QBAPAXXZ
?QueryDriveName@MOUNT_POINT_MAP@@QAAEPAVWSTRING@@0@Z
?QueryDriveType@DP_DRIVE@@QBA?AW4DRIVE_TYPE@@XZ
?QueryEccBlockSizeInSectors@DP_DRIVE@@QAAGXZ
?QueryFileSystemName@IFS_SYSTEM@@SAEPBVWSTRING@@PAV2@PAJ1@Z
?QueryFileSystemNameByHandle@IFS_SYSTEM@@SAEPAXPAVWSTRING@@PAJ1@Z
?QueryFirstBlockInLastNonEmptySession@DP_DRIVE@@QAAEPAK@Z
?QueryFirstBlockInLastSession@DP_DRIVE@@QAAEPAK@Z
?QueryFreeBlocksInLastTrack@DP_DRIVE@@QAAEPAK@Z
?QueryFreeBlocksInLastTrack@DP_DRIVE@@SAEPAXPAK@Z
?QueryFreeDiskSpace@IFS_SYSTEM@@SAEPBVWSTRING@@PAVBIG_INT@@@Z
?QueryHighestTrackAddress@DP_DRIVE@@QAAEPAK@Z
?QueryHotPlugInfo@DP_DRIVE@@QBAEXZ
?QueryID@DP_DRIVE@@QAAEPAU_GUID@@PBVWSTRING@@@Z
?QueryID@DP_DRIVE@@QAAEPAVWSTRING@@PBV2@@Z
?QueryLastRecordedAddress@DP_DRIVE@@QAAEPAK@Z
?QueryLastWritableAddress@DP_DRIVE@@QAAEPAKW4NwaType@1@@Z
?QueryMediaByte@DP_DRIVE@@QBAEXZ
?QueryMemberCount@TLINK@@QBAGXZ
?QueryMemoryLimit@IO_DP_DRIVE@@QAAEPA_KPAE@Z
?QueryMemoryLimit@WRITEVIEW_CACHE@@UAAEPA_KPAE@Z
?QueryMrwSupport@DP_DRIVE@@SAEPAX@Z
?QueryNextWritableAddress@DP_DRIVE@@QAAEPAKW4NwaType@1@@Z
?QueryNtfsSupportInfo@DP_DRIVE@@SAJPAXPAE@Z
?QueryNtfsTime@IFS_SYSTEM@@SAXPAT_LARGE_INTEGER@@@Z
?QueryNtfsVersion@IFS_SYSTEM@@SAEPAE0PAVLOG_IO_DP_DRIVE@@PAX@Z
?QueryNumChildren@DIGRAPH@@QBAKK@Z
?QueryNumParents@DIGRAPH@@QBAKK@Z
?QueryNumber@NUMBER_SET@@QBA?AVBIG_INT@@V2@@Z
?QueryOpenSessionBounds@DP_DRIVE@@QAAEPAK0@Z
?QueryPageSize@IFS_SYSTEM@@SAKXZ
?QueryParents@DIGRAPH@@QBAEKPAVNUMBER_SET@@@Z
?QueryParentsWithChildren@DIGRAPH@@QBAEPAVNUMBER_SET@@K@Z
?QueryPartitionStartingOffset@IO_DP_DRIVE@@QBA?AT_LARGE_INTEGER@@XZ
?QueryPhysicalSectorSize@DP_DRIVE@@QAAKXZ
?QueryProcessPrivateMemory@IFS_SYSTEM@@SAEPAXPA_K@Z
?QueryProcessorInformation@IFS_SYSTEM@@SAEPAVDSTRING@@PAKPA_K@Z
?QueryReadAndVerifiedUsage@IO_DP_DRIVE@@QAAXPA_K0@Z
?QueryReadUsage@IO_DP_DRIVE@@QAAXPA_K0@Z
?QueryRecommendedMediaType@DP_DRIVE@@QBA?AW4_MEDIA_TYPE@@XZ
?QueryRewritableMOSupport@DP_DRIVE@@QAAEXZ
?QuerySectorSize@DP_DRIVE@@UBAKXZ
?QuerySectorSize@POW_CACHE@@QAAKXZ
?QuerySectors@DP_DRIVE@@UBA?AVBIG_INT@@XZ
?QueryServer@IFS_SYSTEM@@SAEPAE@Z
?QuerySize@TLINK@@QBAGXZ
?QuerySnapshotDiffAreaVolume@SNAPSHOT@@QAAEPAVWSTRING@@@Z
?QueryStorageAdapterProperty@IFS_SYSTEM@@SAEPAXPAVDSTRING@@1@Z
?QueryStorageDeviceProperty@IFS_SYSTEM@@SAEPAXPAVDSTRING@@11PAE2@Z
?QuerySystemMemory@IFS_SYSTEM@@SAEPAKPA_K11@Z
?QuerySystemVersion@IFS_SYSTEM@@SAEPAVDSTRING@@@Z
?QueryUdfMediaHasPow@DP_DRIVE@@QAAEXZ
?QueryUdfMediaNeedsLowLevelFormat@DP_DRIVE@@QAAEXZ
?QueryUdfMediaNeedsSparing@DP_DRIVE@@QAAEXZ
?QueryUdfMediaNeedsVat@DP_DRIVE@@QAAEXZ
?QueryUdfMediaSupportsBackgroundFormat@DP_DRIVE@@QAAEXZ
?QueryUdfMediaSupportsQuickGrow@DP_DRIVE@@QAAEXZ
?QueryUdfMediaType@DP_DRIVE@@QAAKXZ
?QueryVerifyHandle@IO_DP_DRIVE@@QAAPAXXZ
?QueryVolumeBounds@DP_DRIVE@@QAAEPAK0@Z
?QueryVolumeName@MOUNT_POINT_MAP@@QAAEPAVWSTRING@@0@Z
?QueryVolumeSize@IFS_SYSTEM@@SAEPBVWSTRING@@PA_K@Z
?QueryWriteBlockSize@DP_DRIVE@@UBAKXZ
?QueryWriteUsage@IO_DP_DRIVE@@QAAXPA_K0@Z
?Read@IO_DP_DRIVE@@QAAEVBIG_INT@@KPAX@Z
?Read@SECRUN@@UAAEXZ
?ReadFormattableCapacity@DP_DRIVE@@QAAEEPAKPAE0@Z
?Recover@VOL_LIODPDRV@@QAAEPBVWSTRING@@PAVMESSAGE@@@Z
?RegisterExtensionCallbacks@@YAEPAU_CALLBACK_REGISTRATION@@@Z
?ReinitializeDriveParameters@DP_DRIVE@@QAAEPAVMESSAGE@@@Z
?ReinitiateBackgroundFormat@DP_DRIVE@@QAAEXZ
?ReleaseVolumeSnapshot@SNAPSHOT@@SAEPAV1@@Z
?Remove@NUMBER_SET@@QAAEPBV1@@Z
?Remove@NUMBER_SET@@QAAEVBIG_INT@@0@Z
?Remove@NUMBER_SET@@QAAEVBIG_INT@@@Z
?Remove@WRITEVIEW_CACHE@@QAAXPAVWRITEVIEW_CACHE_ENTRY@@@Z
?RemoveAll@NUMBER_SET@@QAAEXZ
?RemoveAll@SPARSE_SET@@QAAEXZ
?RemoveEdge@DIGRAPH@@QAAEKK@Z
?RestoreThreadExecutionState@@YAXJK@Z
?ReverseCopy@INTSTACK@@QAAEPAV1@@Z
?SearchForMatch@DIGRAPH@@QAAEKPAVBITVECTOR@@PAVNUMBER_SET@@PAEPAVBIG_INT@@@Z
?SendPowLowLevelFormat@DP_DRIVE@@QAAEPAVMESSAGE@@@Z
?SendSonyMSFormatCmd@DP_DRIVE@@QAAEE@Z
?SendSonyMSInquiryCmd@DP_DRIVE@@QAAEPAUSONY_MS_INQUIRY_DATA@@@Z
?SendSonyMSModeSenseCmd@DP_DRIVE@@QAAEPAUSONY_MS_MODE_SENSE_DATA@@@Z
?SendSonyMSRequestSenseCmd@DP_DRIVE@@QAAEPAU_SENSE_DATA@@@Z
?SendSonyMSTestUnitReadyCmd@DP_DRIVE@@QAAEPAU_SENSE_DATA@@@Z
?Set@BIG_INT@@QAAXEPBE@Z
?SetAutochkTimeOut@VOL_LIODPDRV@@SAEK@Z
?SetCache@IO_DP_DRIVE@@QAAXPAVDRIVE_CACHE@@@Z
?SetFileSystemName@VOL_LIODPDRV@@QAAEPBG@Z
?SetLastStatus@DP_DRIVE@@QAAXJ@Z
?SetPhaseSubPhase@DRIVE_CACHE@@SAXPAG0@Z
?SetPowTrackConfiguration@DP_DRIVE@@QAAEE@Z
?SetSectors@DP_DRIVE@@QAAXVBIG_INT@@@Z
?SetSystemId@LOG_IO_DP_DRIVE@@QAAEE@Z
?SetVerifyHandle@IO_DP_DRIVE@@QAAPAXPAX@Z
?SetVolumeLabelAndPrintFormatReport@VOL_LIODPDRV@@QAAEPBVWSTRING@@PAVMESSAGE@@@Z
?ShellSort@TLINK@@QAAXXZ
?Sort@TLINK@@QAAXXZ
?SqmExport@BLOCK_CACHE@@UAAEP6AEPAXKEPADZZ0@Z
?SqmExport@IO_DP_DRIVE@@QAAEPBVWSTRING@@P6AEPAXKEPADZZ1@Z
?SqmExport@WRITEVIEW_CACHE@@UAAEP6AEPAXKEPADZZ0@Z
?Subtract@NUMBER_SET@@QAAEPAV1@0@Z
?Verify@IO_DP_DRIVE@@QAAEVBIG_INT@@0@Z
?Verify@IO_DP_DRIVE@@QAAEVBIG_INT@@0PAVNUMBER_SET@@@Z
?VerifyRead@IO_DP_DRIVE@@QAAEVBIG_INT@@KPAX@Z
?VerifyRead@SECRUN@@UAAEPAE@Z
?WaitForUnit@DP_DRIVE@@QAAEPAVMESSAGE@@@Z
?WaitForWriteCompletion@DP_DRIVE@@QAAEPAVMESSAGE@@@Z
?Write@IO_DP_DRIVE@@QAAEVBIG_INT@@KPAX@Z
?Write@SECRUN@@UAAEXZ
?WriteEntireDrive@VOL_LIODPDRV@@UAA?AW4FORMAT_ERROR_CODE@@PAVMESSAGE@@PAXKII@Z
?WriteToFile@IFS_SYSTEM@@SAEPBVWSTRING@@PAXKE@Z
