;
; Definition file of MfcSubs.dll
; Automatic generated by gendef
; written by Kai Tietz 2008-2014
;
LIBRARY "MfcSubs.dll"
EXPORTS
??$ConstructElements@VCString@@@@YAXPAVCString@@H@Z
??$CopyElements@VCString@@@@YAXPAVCString@@PBV0@H@Z
??$DestructElements@VCString@@@@YAXPAVCString@@H@Z
??$HashKey@ABU_GUID@@@@YAIABU_GUID@@@Z
??$HashKey@PBD@@YAIPBD@Z
??$HashKey@PBG@@YAIPBG@Z
??0CCriticalSection@@QAA@XZ
??0CMapStringToPtr@@QAA@H@Z
??0CObject@@IAA@XZ
??0CString@@QAA@ABV0@@Z
??0CString@@QAA@GH@Z
??0CString@@QAA@PBD@Z
??0CString@@QAA@PBE@Z
??0CString@@QAA@PBG@Z
??0CString@@QAA@PBGH@Z
??0CString@@QAA@XZ
??0CStringArray@@QAA@XZ
??0CSyncObject@@QAA@PBG@Z
??1CCriticalSection@@UAA@XZ
??1CMapStringToPtr@@UAA@XZ
??1CObject@@UAA@XZ
??1CString@@QAA@XZ
??1CStringArray@@UAA@XZ
??1CSyncObject@@UAA@XZ
??4CPlex@@QAAAAU0@ABU0@@Z
??4CString@@QAAABV0@ABV0@@Z
??4CString@@QAAABV0@D@Z
??4CString@@QAAABV0@G@Z
??4CString@@QAAABV0@PBD@Z
??4CString@@QAAABV0@PBE@Z
??4CString@@QAAABV0@PBG@Z
??8@YA_NABVCString@@0@Z
??8@YA_NABVCString@@PBG@Z
??8@YA_NPBGABVCString@@@Z
??9@YA_NABVCString@@0@Z
??9@YA_NABVCString@@PBG@Z
??9@YA_NPBGABVCString@@@Z
??ACMapStringToPtr@@QAAAAPAXPBG@Z
??ACString@@QBAGH@Z
??ACStringArray@@QAAAAVCString@@H@Z
??ACStringArray@@QBA?AVCString@@H@Z
??BCCriticalSection@@QAAPAU_RTL_CRITICAL_SECTION@@XZ
??BCString@@QBAPBGXZ
??BCSyncObject@@QBAPAXXZ
??H@YA?AVCString@@ABV0@0@Z
??H@YA?AVCString@@ABV0@D@Z
??H@YA?AVCString@@ABV0@G@Z
??H@YA?AVCString@@ABV0@PBG@Z
??H@YA?AVCString@@DABV0@@Z
??H@YA?AVCString@@GABV0@@Z
??H@YA?AVCString@@PBGABV0@@Z
??M@YA_NABVCString@@0@Z
??M@YA_NABVCString@@PBG@Z
??M@YA_NPBGABVCString@@@Z
??N@YA_NABVCString@@0@Z
??N@YA_NABVCString@@PBG@Z
??N@YA_NPBGABVCString@@@Z
??O@YA_NABVCString@@0@Z
??O@YA_NABVCString@@PBG@Z
??O@YA_NPBGABVCString@@@Z
??P@YA_NABVCString@@0@Z
??P@YA_NABVCString@@PBG@Z
??P@YA_NPBGABVCString@@@Z
??YCString@@QAAABV0@ABV0@@Z
??YCString@@QAAABV0@D@Z
??YCString@@QAAABV0@G@Z
??YCString@@QAAABV0@PBG@Z
??_7CCriticalSection@@6B@ DATA
??_7CMapStringToPtr@@6B@ DATA
??_7CObject@@6B@ DATA
??_7CStringArray@@6B@ DATA
??_7CSyncObject@@6B@ DATA
??_FCMapStringToPtr@@QAAXXZ
?Add@CStringArray@@QAAHPBG@Z
?AfxA2WHelper@@YAPAGPAGPBDH@Z
?AfxExtractSubString@@YAHAAVCString@@PBGHG@Z
?AfxGetEmptyString@@YAABVCString@@XZ
?AfxLoadString@@YAHIPAGI@Z
?AfxW2AHelper@@YAPADPADPBGH@Z
?AllocBeforeWrite@CString@@IAAXH@Z
?AllocBuffer@CString@@IAAXH@Z
?AllocCopy@CString@@IBAXAAV1@III@Z
?Append@CStringArray@@QAAHABV1@@Z
?AssignCopy@CString@@IAAXHPBG@Z
?Collate@CString@@QBAHPBG@Z
?Compare@CString@@QBAHPBG@Z
?CompareNoCase@CString@@QBAHPBG@Z
?ConcatCopy@CString@@IAAXHPBGH0@Z
?ConcatInPlace@CString@@IAAXHPBG@Z
?Copy@CStringArray@@QAAXABV1@@Z
?CopyBeforeWrite@CString@@IAAXXZ
?Create@CPlex@@SAPAU1@AAPAU1@II@Z
?ElementAt@CStringArray@@QAAAAVCString@@H@Z
?Empty@CString@@QAAXXZ
?Find@CString@@QBAHG@Z
?Find@CString@@QBAHPBG@Z
?FindOneOf@CString@@QBAHPBG@Z
?Format@CString@@QAAXIZZ
?Format@CString@@QAAXPBGZZ
?FormatMessageW@CString@@QAAXIZZ
?FormatMessageW@CString@@QAAXPBGZZ
?FormatV@CString@@IAAXPBGPAD@Z
?FreeAssoc@CMapStringToPtr@@IAAXPAUCAssoc@1@@Z
?FreeDataChain@CPlex@@QAAXXZ
?FreeExtra@CString@@QAAXXZ
?FreeExtra@CStringArray@@QAAXXZ
?GetAllocLength@CString@@QBAHXZ
?GetAssocAt@CMapStringToPtr@@IBAPAUCAssoc@1@PBGAAI@Z
?GetAt@CString@@QBAGH@Z
?GetAt@CStringArray@@QBA?AVCString@@H@Z
?GetBuffer@CString@@QAAPAGH@Z
?GetBufferSetLength@CString@@QAAPAGH@Z
?GetCount@CMapStringToPtr@@QBAHXZ
?GetData@CString@@IBAPAUCStringData@@XZ
?GetData@CStringArray@@QAAPAVCString@@XZ
?GetData@CStringArray@@QBAPBVCString@@XZ
?GetHashTableSize@CMapStringToPtr@@QBAIXZ
?GetLength@CString@@QBAHXZ
?GetNextAssoc@CMapStringToPtr@@QBAXAAPAU__POSITION@@AAVCString@@AAPAX@Z
?GetSize@CStringArray@@QBAHXZ
?GetStartPosition@CMapStringToPtr@@QBAPAU__POSITION@@XZ
?GetUpperBound@CStringArray@@QBAHXZ
?HashKey@CMapStringToPtr@@QBAIPBG@Z
?Init@CString@@IAAXXZ
?InitHashTable@CMapStringToPtr@@QAAXIH@Z
?InsertAt@CStringArray@@QAAXHPAV1@@Z
?InsertAt@CStringArray@@QAAXHPBGH@Z
?IsEmpty@CMapStringToPtr@@QBAHXZ
?IsEmpty@CString@@QBAHXZ
?Left@CString@@QBA?AV1@H@Z
?LoadStringW@CString@@QAAHI@Z
?Lock@CCriticalSection@@QAAHXZ
?Lock@CCriticalSection@@UAAHK@Z
?Lock@CSyncObject@@UAAHK@Z
?LockBuffer@CString@@QAAPAGXZ
?Lookup@CMapStringToPtr@@QBAHPBGAAPAX@Z
?LookupKey@CMapStringToPtr@@QBAHPBGAAPBG@Z
?MakeLower@CString@@QAAXXZ
?MakeReverse@CString@@QAAXXZ
?MakeUpper@CString@@QAAXXZ
?Mid@CString@@QBA?AV1@H@Z
?Mid@CString@@QBA?AV1@HH@Z
?NewAssoc@CMapStringToPtr@@IAAPAUCAssoc@1@XZ
?Release@CString@@IAAXXZ
?Release@CString@@KAXPAUCStringData@@@Z
?ReleaseBuffer@CString@@QAAXH@Z
?RemoveAll@CMapStringToPtr@@QAAXXZ
?RemoveAll@CStringArray@@QAAXXZ
?RemoveAt@CStringArray@@QAAXHH@Z
?RemoveKey@CMapStringToPtr@@QAAHPBG@Z
?ReverseFind@CString@@QBAHG@Z
?Right@CString@@QBA?AV1@H@Z
?SafeStrlen@CString@@KAHPBG@Z
?SetAt@CMapStringToPtr@@QAAXPBGPAX@Z
?SetAt@CString@@QAAXHG@Z
?SetAt@CStringArray@@QAAXHPBG@Z
?SetAtGrow@CStringArray@@QAAXHPBG@Z
?SetSize@CStringArray@@QAAXHH@Z
?SpanExcluding@CString@@QBA?AV1@PBG@Z
?SpanIncluding@CString@@QBA?AV1@PBG@Z
?TrimLeft@CString@@QAAXXZ
?TrimRight@CString@@QAAXXZ
?Unlock@CCriticalSection@@UAAHXZ
?Unlock@CSyncObject@@UAAHJPAJ@Z
?UnlockBuffer@CString@@QAAXXZ
?data@CPlex@@QAAPAXXZ
