;
; Definition file of migisol.dll
; Automatic generated by gendef
; written by Kai Tietz 2008-2014
;
LIBRARY "migisol.dll"
EXPORTS
??0CDynLib@@IAA@XZ
??0CIlAdvapi32@@QAA@ABV0@@Z
??0CIlAdvapi32@@QAA@XZ
??0CIlDeplorch@@QAA@ABV0@@Z
??0CIlDeplorch@@QAA@XZ
??0CIlIphlpapi@@QAA@ABV0@@Z
??0CIlIphlpapi@@QAA@XZ
??0CIlKernel32@@QAA@ABV0@@Z
??0CIlKernel32@@QAA@XZ
??0CIlMuisetupapi@@QAA@ABV0@@Z
??0CIlMuisetupapi@@QAA@XZ
??0CIlNt4Advapi32@@QAA@ABV0@@Z
??0CIlNt4Advapi32@@QAA@XZ
??0CIlNt4Kernel32@@QAA@ABV0@@Z
??0CIlNt4Kernel32@@QAA@XZ
??0CIlNt4Netapi32@@QAA@ABV0@@Z
??0CIlNt4Netapi32@@QAA@XZ
??0CIlNt4Setupapi@@QAA@ABV0@@Z
??0CIlNt4Setupapi@@QAA@XZ
??0CIlNt4User32@@QAA@ABV0@@Z
??0CIlNt4User32@@QAA@XZ
??0CIlNt4Userenv@@QAA@ABV0@@Z
??0CIlNt4Userenv@@QAA@XZ
??0CIlNt6Userenv@@QAA@ABV0@@Z
??0CIlNt6Userenv@@QAA@XZ
??0CIlOle32@@QAA@ABV0@@Z
??0CIlOle32@@QAA@XZ
??0CIlOleaut32@@QAA@ABV0@@Z
??0CIlOleaut32@@QAA@XZ
??0CIlSetupapi@@QAA@ABV0@@Z
??0CIlSetupapi@@QAA@XZ
??0CIlShell32@@QAA@ABV0@@Z
??0CIlShell32@@QAA@XZ
??0CIlUser32@@QAA@ABV0@@Z
??0CIlUser32@@QAA@XZ
??0CIlVersion@@QAA@ABV0@@Z
??0CIlVersion@@QAA@XZ
??0CIlW2kDynWs2_32@@QAA@ABV0@@Z
??0CIlW2kDynWs2_32@@QAA@XZ
??0CIlWimgapi@@QAA@ABV0@@Z
??0CIlWimgapi@@QAA@XZ
??0CIlWs2_32@@QAA@ABV0@@Z
??0CIlWs2_32@@QAA@XZ
??1CIlKernel32@@QAA@XZ
??4CDynLib@@QAAAAV0@ABV0@@Z
??4CIlAdvapi32@@QAAAAV0@ABV0@@Z
??4CIlDeplorch@@QAAAAV0@ABV0@@Z
??4CIlIphlpapi@@QAAAAV0@ABV0@@Z
??4CIlKernel32@@QAAAAV0@ABV0@@Z
??4CIlMuisetupapi@@QAAAAV0@ABV0@@Z
??4CIlNt4Advapi32@@QAAAAV0@ABV0@@Z
??4CIlNt4Kernel32@@QAAAAV0@ABV0@@Z
??4CIlNt4Netapi32@@QAAAAV0@ABV0@@Z
??4CIlNt4Setupapi@@QAAAAV0@ABV0@@Z
??4CIlNt4User32@@QAAAAV0@ABV0@@Z
??4CIlNt4Userenv@@QAAAAV0@ABV0@@Z
??4CIlNt6Userenv@@QAAAAV0@ABV0@@Z
??4CIlOle32@@QAAAAV0@ABV0@@Z
??4CIlOleaut32@@QAAAAV0@ABV0@@Z
??4CIlSetupapi@@QAAAAV0@ABV0@@Z
??4CIlShell32@@QAAAAV0@ABV0@@Z
??4CIlUser32@@QAAAAV0@ABV0@@Z
??4CIlVersion@@QAAAAV0@ABV0@@Z
??4CIlW2kDynWs2_32@@QAAAAV0@ABV0@@Z
??4CIlWimgapi@@QAAAAV0@ABV0@@Z
??4CIlWs2_32@@QAAAAV0@ABV0@@Z
??_7CIlAdvapi32@@6B@ DATA
??_7CIlDeplorch@@6B@ DATA
??_7CIlIphlpapi@@6B@ DATA
??_7CIlKernel32@@6B@ DATA
??_7CIlMuisetupapi@@6B@ DATA
??_7CIlNt4Advapi32@@6B@ DATA
??_7CIlNt4Kernel32@@6B@ DATA
??_7CIlNt4Netapi32@@6B@ DATA
??_7CIlNt4Setupapi@@6B@ DATA
??_7CIlNt4User32@@6B@ DATA
??_7CIlNt4Userenv@@6B@ DATA
??_7CIlNt6Userenv@@6B@ DATA
??_7CIlOle32@@6B@ DATA
??_7CIlOleaut32@@6B@ DATA
??_7CIlSetupapi@@6B@ DATA
??_7CIlShell32@@6B@ DATA
??_7CIlUser32@@6B@ DATA
??_7CIlVersion@@6B@ DATA
??_7CIlW2kDynWs2_32@@6B@ DATA
??_7CIlWimgapi@@6B@ DATA
??_7CIlWs2_32@@6B@ DATA
?AdjustTokenPrivileges@CIlAdvapi32@@UAAHPAXHPAU_TOKEN_PRIVILEGES@@K1PAK@Z
?AllocateAndInitializeSid@CIlAdvapi32@@UAAHPAU_SID_IDENTIFIER_AUTHORITY@@EKKKKKKKKPAPAX@Z
?ChangeServiceConfigW@CIlNt4Advapi32@@UAAHPAUSC_HANDLE__@@KKKPBG1PAK1111@Z
?CloseHandle@CIlKernel32@@UAAHPAX@Z
?CloseServiceHandle@CIlNt4Advapi32@@UAAHPAUSC_HANDLE__@@@Z
?CoCreateInstance@CIlOle32@@UAAJABU_GUID@@PAUIUnknown@@K0PAPAX@Z
?CoInitialize@CIlOle32@@UAAJPAX@Z
?CoInitializeEx@CIlOle32@@UAAJPAXK@Z
?CoTaskMemAlloc@CIlOle32@@UAAPAXK@Z
?CoTaskMemFree@CIlOle32@@UAAXPAX@Z
?CoUninitialize@CIlOle32@@UAAXXZ
?ConvertSecurityDescriptorToStringSecurityDescriptorW@CIlNt4Advapi32@@UAAHPAXKKPAPAGPAK@Z
?ConvertSidToStringSidW@CIlNt4Advapi32@@UAAHPAXPAPAG@Z
?ConvertStringSecurityDescriptorToSecurityDescriptorW@CIlNt4Advapi32@@UAAHPBGKPAPAXPAK@Z
?ConvertStringSidToSidW@CIlNt4Advapi32@@UAAHPAGPAPAX@Z
?CopyFileW@CIlKernel32@@UAAHPBG0H@Z
?CreateDirectoryW@CIlKernel32@@UAAHPBGPAU_SECURITY_ATTRIBUTES@@@Z
?CreateEventW@CIlKernel32@@UAAPAXPAU_SECURITY_ATTRIBUTES@@HHPBG@Z
?CreateFileMappingW@CIlKernel32@@UAAPAXPAXPAU_SECURITY_ATTRIBUTES@@KKKPBG@Z
?CreateFileW@CIlKernel32@@UAAPAXPBGKKPAU_SECURITY_ATTRIBUTES@@KKPAX@Z
?CreateProcessA@CIlKernel32@@UAAHPBDPADPAU_SECURITY_ATTRIBUTES@@2HKPAX0PAU_STARTUPINFOA@@PAU_PROCESS_INFORMATION@@@Z
?CreateProcessW@CIlKernel32@@UAAHPBGPAGPAU_SECURITY_ATTRIBUTES@@2HKPAX0PAU_STARTUPINFOW@@PAU_PROCESS_INFORMATION@@@Z
?CreateProfile@CIlNt6Userenv@@UAAJPBG0PAGK@Z
?CreateServiceW@CIlNt4Advapi32@@UAAPAUSC_HANDLE__@@PAU2@PBG1KKKK11PAK111@Z
?CreateStreamOnHGlobal@CIlOle32@@UAAJPAXHPAPAUIStream@@@Z
?CreateThread@CIlKernel32@@UAAPAXPAU_SECURITY_ATTRIBUTES@@KP6AKPAX@Z1KPAK@Z
?CreateToolhelp32Snapshot@CIlNt4Kernel32@@UAAPAXKK@Z
?CreateUserProfileExW@CIlNt4Userenv@@UAAHPAXPBG1PAGKH@Z
?CreateWellKnownSid@CIlNt4Advapi32@@UAAHW4WELL_KNOWN_SID_TYPE@@PAX1PAK@Z
?CryptAcquireContextW@CIlAdvapi32@@UAAHPAKPBG1KK@Z
?CryptCreateHash@CIlAdvapi32@@UAAHKIKKPAK@Z
?CryptDecrypt@CIlAdvapi32@@UAAHKKHKPAEPAK@Z
?CryptDeriveKey@CIlAdvapi32@@UAAHKIKKPAK@Z
?CryptDestroyHash@CIlAdvapi32@@UAAHK@Z
?CryptDestroyKey@CIlAdvapi32@@UAAHK@Z
?CryptDuplicateHash@CIlAdvapi32@@UAAHKPAKK0@Z
?CryptDuplicateKey@CIlAdvapi32@@UAAHKPAKK0@Z
?CryptEncrypt@CIlAdvapi32@@UAAHKKHKPAEPAKK@Z
?CryptGenRandom@CIlAdvapi32@@UAAHKKPAE@Z
?CryptGetHashParam@CIlAdvapi32@@UAAHKKPAEPAKK@Z
?CryptGetKeyParam@CIlAdvapi32@@UAAHKKPAEPAKK@Z
?CryptHashData@CIlAdvapi32@@UAAHKPBEKK@Z
?CryptReleaseContext@CIlAdvapi32@@UAAHKK@Z
?CryptSetKeyParam@CIlAdvapi32@@UAAHKKPBEK@Z
?DebugBreak@CIlKernel32@@UAAXXZ
?DeleteCriticalSection@CIlKernel32@@UAAXPAU_RTL_CRITICAL_SECTION@@@Z
?DeleteFileW@CIlKernel32@@UAAHPBG@Z
?DuplicateHandle@CIlKernel32@@UAAHPAX00PAPAXKHK@Z
?EncryptFileW@CIlNt4Advapi32@@UAAHPBG@Z
?EnterCriticalSection@CIlKernel32@@UAAXPAU_RTL_CRITICAL_SECTION@@@Z
?EnumServicesStatusExW@CIlNt4Advapi32@@UAAHPAUSC_HANDLE__@@W4_SC_ENUM_TYPE@@KKPAEKPAK33PBG@Z
?EqualSid@CIlAdvapi32@@UAAHPAX0@Z
?ExitProcess@CIlKernel32@@UAAXI@Z
?ExpandEnvironmentStringsW@CIlKernel32@@UAAKPBGPAGK@Z
?ExtractIconExW@CIlShell32@@UAAIPBGHPAPAUHICON__@@1I@Z
?FindClose@CIlKernel32@@UAAHPAX@Z
?FindFirstFileW@CIlKernel32@@UAAPAXPBGPAU_WIN32_FIND_DATAW@@@Z
?FindNextFileW@CIlKernel32@@UAAHPAXPAU_WIN32_FIND_DATAW@@@Z
?FreeLibrary@CIlKernel32@@UAAHPAUHINSTANCE__@@@Z
?FreeSid@CIlAdvapi32@@UAAPAXPAX@Z
?GetCommandLineW@CIlKernel32@@UAAPAGXZ
?GetComputerNameW@CIlKernel32@@UAAHPAGPAK@Z
?GetCurrentProcess@CIlKernel32@@UAAPAXXZ
?GetCurrentThreadId@CIlKernel32@@UAAKXZ
?GetDiskFreeSpaceExW@CIlKernel32@@UAAHPBGPAT_ULARGE_INTEGER@@11@Z
?GetDiskFreeSpaceW@CIlKernel32@@UAAHPBGPAK111@Z
?GetDriveTypeW@CIlKernel32@@UAAIPBG@Z
?GetExitCodeProcess@CIlKernel32@@UAAHPAXPAK@Z
?GetFileAttributesW@CIlKernel32@@UAAKPBG@Z
?GetFileSize@CIlKernel32@@UAAKPAXPAK@Z
?GetFileType@CIlKernel32@@UAAKPAX@Z
?GetFileVersionInfoSizeW@CIlVersion@@UAAKPBGPAK@Z
?GetFileVersionInfoW@CIlVersion@@UAAHPBGKKPAX@Z
?GetFullPathNameW@CIlKernel32@@UAAKPBGKPAGPAPAG@Z
?GetHGlobalFromStream@CIlOle32@@UAAJPAUIStream@@PAPAX@Z
?GetIlProc@CDynLib@@IAAP6AHXZPBGPBDP6AHXZAAP6AHXZAAK@Z
?GetIpAddrTable@CIlIphlpapi@@UAAKPAU_MIB_IPADDRTABLE@@PAKH@Z
?GetLastError@CIlKernel32@@UAAKXZ
?GetLocaleInfoW@CIlKernel32@@UAAHKKPAGH@Z
?GetLogicalDriveStringsW@CIlKernel32@@UAAKKPAG@Z
?GetLogicalDrives@CIlKernel32@@UAAKXZ
?GetOverlappedResult@CIlKernel32@@UAAHPAXPAU_OVERLAPPED@@PAKH@Z
?GetPrivateProfileStringW@CIlKernel32@@UAAKPBG00PAGK0@Z
?GetProcAddress@CIlKernel32@@UAAP6AHXZPAUHINSTANCE__@@PBD@Z
?GetProcessHeap@CIlKernel32@@UAAPAXXZ
?GetSecurityDescriptorDacl@CIlAdvapi32@@UAAHPAXPAHPAPAU_ACL@@1@Z
?GetSecurityDescriptorGroup@CIlAdvapi32@@UAAHPAXPAPAXPAH@Z
?GetSecurityDescriptorOwner@CIlAdvapi32@@UAAHPAXPAPAXPAH@Z
?GetSecurityDescriptorSacl@CIlAdvapi32@@UAAHPAXPAHPAPAU_ACL@@1@Z
?GetSecurityInfo@CIlAdvapi32@@UAAKPAXW4_SE_OBJECT_TYPE@@KPAPAX2PAPAU_ACL@@32@Z
?GetShortPathNameW@CIlKernel32@@UAAKPBGPAGK@Z
?GetSystemInfo@CIlKernel32@@UAAXPAU_SYSTEM_INFO@@@Z
?GetSystemWindowsDirectoryW@CIlNt4Kernel32@@UAAIPAGI@Z
?GetTempFileNameW@CIlKernel32@@UAAIPBG0IPAG@Z
?GetTempPathW@CIlKernel32@@UAAKKPAG@Z
?GetTickCount@CIlKernel32@@UAAKXZ
?GetTokenInformation@CIlAdvapi32@@UAAHPAXW4_TOKEN_INFORMATION_CLASS@@0KPAK@Z
?GetUpgradeLanguage@CIlMuisetupapi@@UAAKPAGII@Z
?GetUpgradeLanguageEx@CIlMuisetupapi@@UAAKPAGIIPBG@Z
?GetUserNameW@CIlAdvapi32@@UAAHPAGPAK@Z
?GetVersionExA@CIlKernel32@@UAAHPAU_OSVERSIONINFOA@@@Z
?GetVersionExW@CIlKernel32@@UAAHPAU_OSVERSIONINFOW@@@Z
?GetVolumeInformationW@CIlKernel32@@UAAHPBGPAGKPAK221K@Z
?GetWindowsDirectoryW@CIlKernel32@@UAAIPAGI@Z
?GlobalAlloc@CIlKernel32@@UAAPAXIK@Z
?GlobalFree@CIlKernel32@@UAAPAXPAX@Z
?GlobalLock@CIlKernel32@@UAAPAXPAX@Z
?GlobalMemoryStatus@CIlKernel32@@UAAXPAU_MEMORYSTATUS@@@Z
?GlobalMemoryStatusEx@CIlNt4Kernel32@@UAAHPAU_MEMORYSTATUSEX@@@Z
?GlobalSize@CIlKernel32@@UAAKPAX@Z
?GlobalUnlock@CIlKernel32@@UAAHPAX@Z
?HeapAlloc@CIlKernel32@@UAAPAXPAXKK@Z
?HeapCompact@CIlKernel32@@UAAKPAXK@Z
?HeapCreate@CIlKernel32@@UAAPAXKKK@Z
?HeapDestroy@CIlKernel32@@UAAHPAX@Z
?HeapFree@CIlKernel32@@UAAHPAXK0@Z
?HeapReAlloc@CIlKernel32@@UAAPAXPAXK0K@Z
?HeapValidate@CIlKernel32@@UAAHPAXKPBX@Z
?HeapWalk@CIlKernel32@@UAAHPAXPAU_PROCESS_HEAP_ENTRY@@@Z
?IlAdvapi32@@3VCIlAdvapi32@@A DATA
?IlChangeServiceConfigW@CIlNt4Advapi32@@CAHPAUSC_HANDLE__@@KKKPBG1PAK1111@Z
?IlCloseServiceHandle@CIlNt4Advapi32@@CAHPAUSC_HANDLE__@@@Z
?IlConvertSecurityDescriptorToStringSecurityDescriptorW@CIlNt4Advapi32@@CAHPAXKKPAPAGPAK@Z
?IlConvertSidToStringSidW@CIlNt4Advapi32@@CAHPAXPAPAG@Z
?IlConvertStringSecurityDescriptorToSecurityDescriptorW@CIlNt4Advapi32@@CAHPBGKPAPAXPAK@Z
?IlConvertStringSidToSidW@CIlNt4Advapi32@@CAHPAGPAPAX@Z
?IlCreateProfile@CIlNt6Userenv@@CAJPBG0PAGK@Z
?IlCreateServiceW@CIlNt4Advapi32@@CAPAUSC_HANDLE__@@PAU2@PBG1KKKK11PAK111@Z
?IlCreateToolhelp32Snapshot@CIlNt4Kernel32@@CAPAXKK@Z
?IlCreateUserProfileExW@CIlNt4Userenv@@CAHPAXPBG1PAGKH@Z
?IlCreateWellKnownSid@CIlNt4Advapi32@@CAHW4WELL_KNOWN_SID_TYPE@@PAX1PAK@Z
?IlDeplorch@@3VCIlDeplorch@@A DATA
?IlEncryptFileW@CIlNt4Advapi32@@CAHPBG@Z
?IlEnumServicesStatusExW@CIlNt4Advapi32@@CAHPAUSC_HANDLE__@@W4_SC_ENUM_TYPE@@KKPAEKPAK33PBG@Z
?IlGetSystemWindowsDirectoryW@CIlNt4Kernel32@@CAIPAGI@Z
?IlGlobalMemoryStatusEx@CIlNt4Kernel32@@CAHPAU_MEMORYSTATUSEX@@@Z
?IlInitiateSystemShutdownExW@CIlNt4Advapi32@@CAHPAG0KHHK@Z
?IlIphlpapi@@3VCIlIphlpapi@@A DATA
?IlKernel32@@3VCIlKernel32@@A DATA
?IlLockServiceDatabase@CIlNt4Advapi32@@CAPAXPAUSC_HANDLE__@@@Z
?IlLockSetForegroundWindow@CIlNt4User32@@CAHI@Z
?IlMuisetupapi@@3VCIlMuisetupapi@@A DATA
?IlNetApiBufferFree@CIlNt4Netapi32@@CAKPAX@Z
?IlNetLocalGroupAdd@CIlNt4Netapi32@@CAKPBGKPAEPAK@Z
?IlNetLocalGroupAddMembers@CIlNt4Netapi32@@CAKPBG0KPAEK@Z
?IlNetLocalGroupEnum@CIlNt4Netapi32@@CAKPBGKPAPAEKPAK22@Z
?IlNetUserAdd@CIlNt4Netapi32@@CAKPBGKPAEPAK@Z
?IlNetUserDel@CIlNt4Netapi32@@CAKPBG0@Z
?IlNetUserEnum@CIlNt4Netapi32@@CAKPBGKKPAPAEKPAK22@Z
?IlNetUserGetLocalGroups@CIlNt4Netapi32@@CAKPBG0KKPAPAEKPAK2@Z
?IlNetWkstaGetInfo@CIlNt4Netapi32@@CAKPAGKPAPAE@Z
?IlNt4Advapi32@@3VCIlNt4Advapi32@@A DATA
?IlNt4Kernel32@@3VCIlNt4Kernel32@@A DATA
?IlNt4Netapi32@@3VCIlNt4Netapi32@@A DATA
?IlNt4Setupapi@@3VCIlNt4Setupapi@@A DATA
?IlNt4User32@@3VCIlNt4User32@@A DATA
?IlNt4Userenv@@3VCIlNt4Userenv@@A DATA
?IlNt6Userenv@@3VCIlNt6Userenv@@A DATA
?IlOle32@@3VCIlOle32@@A DATA
?IlOleaut32@@3VCIlOleaut32@@A DATA
?IlOpenSCManagerW@CIlNt4Advapi32@@CAPAUSC_HANDLE__@@PBG0K@Z
?IlOpenServiceW@CIlNt4Advapi32@@CAPAUSC_HANDLE__@@PAU2@PBGK@Z
?IlProcess32FirstW@CIlNt4Kernel32@@CAHPAXPAUtagPROCESSENTRY32W@@@Z
?IlProcess32NextW@CIlNt4Kernel32@@CAHPAXPAUtagPROCESSENTRY32W@@@Z
?IlQueryServiceConfigW@CIlNt4Advapi32@@CAHPAUSC_HANDLE__@@PAU_QUERY_SERVICE_CONFIGW@@KPAK@Z
?IlRegisterWaitForSingleObject@CIlNt4Kernel32@@CAHPAPAXPAXP6AX1E@Z1KK@Z
?IlSetupCloseFileQueue@CIlNt4Setupapi@@CAHPAX@Z
?IlSetupDiBuildDriverInfoList@CIlNt4Setupapi@@CAHPAXPAU_SP_DEVINFO_DATA@@K@Z
?IlSetupDiCallClassInstaller@CIlNt4Setupapi@@CAHIPAXPAU_SP_DEVINFO_DATA@@@Z
?IlSetupDiCreateDeviceInfoListExW@CIlNt4Setupapi@@CAPAXPBU_GUID@@PAUHWND__@@PBGPAX@Z
?IlSetupDiDestroyDeviceInfoList@CIlNt4Setupapi@@CAHPAX@Z
?IlSetupDiDestroyDriverInfoList@CIlNt4Setupapi@@CAHPAXPAU_SP_DEVINFO_DATA@@K@Z
?IlSetupDiEnumDeviceInfo@CIlNt4Setupapi@@CAHPAXKPAU_SP_DEVINFO_DATA@@@Z
?IlSetupDiEnumDeviceInterfaces@CIlNt4Setupapi@@CAHPAXPAU_SP_DEVINFO_DATA@@PBU_GUID@@KPAU_SP_DEVICE_INTERFACE_DATA@@@Z
?IlSetupDiEnumDriverInfoW@CIlNt4Setupapi@@CAHPAXPAU_SP_DEVINFO_DATA@@KKPAU_SP_DRVINFO_DATA_V2_W@@@Z
?IlSetupDiGetClassDevsExW@CIlNt4Setupapi@@CAPAXPBU_GUID@@PBGPAUHWND__@@KPAX13@Z
?IlSetupDiGetClassDevsW@CIlNt4Setupapi@@CAPAXPBU_GUID@@PBGPAUHWND__@@K@Z
?IlSetupDiGetDeviceInstallParamsW@CIlNt4Setupapi@@CAHPAXPAU_SP_DEVINFO_DATA@@PAU_SP_DEVINSTALL_PARAMS_W@@@Z
?IlSetupDiGetDeviceInterfaceDetailW@CIlNt4Setupapi@@CAHPAXPAU_SP_DEVICE_INTERFACE_DATA@@PAU_SP_DEVICE_INTERFACE_DETAIL_DATA_W@@KPAKPAU_SP_DEVINFO_DATA@@@Z
?IlSetupDiGetDeviceRegistryPropertyW@CIlNt4Setupapi@@CAHPAXPAU_SP_DEVINFO_DATA@@KPAKPAEK2@Z
?IlSetupDiGetDriverInfoDetailW@CIlNt4Setupapi@@CAHPAXPAU_SP_DEVINFO_DATA@@PAU_SP_DRVINFO_DATA_V2_W@@PAU_SP_DRVINFO_DETAIL_DATA_W@@KPAK@Z
?IlSetupDiOpenDevRegKey@CIlNt4Setupapi@@CAPAUHKEY__@@PAXPAU_SP_DEVINFO_DATA@@KKKK@Z
?IlSetupDiOpenDeviceInfoW@CIlNt4Setupapi@@CAHPAXPBGPAUHWND__@@KPAU_SP_DEVINFO_DATA@@@Z
?IlSetupDiSetDeviceInstallParamsW@CIlNt4Setupapi@@CAHPAXPAU_SP_DEVINFO_DATA@@PAU_SP_DEVINSTALL_PARAMS_W@@@Z
?IlSetupDiSetSelectedDriverW@CIlNt4Setupapi@@CAHPAXPAU_SP_DEVINFO_DATA@@PAU_SP_DRVINFO_DATA_V2_W@@@Z
?IlSetupGetInfInformationW@CIlNt4Setupapi@@CAHPBXKPAU_SP_INF_INFORMATION@@KPAK@Z
?IlSetupOpenFileQueue@CIlNt4Setupapi@@CAPAXXZ
?IlSetupQueryInfOriginalFileInformationW@CIlNt4Setupapi@@CAHPAU_SP_INF_INFORMATION@@IPAU_SP_ALTPLATFORM_INFO_V2@@PAU_SP_ORIGINAL_FILE_INFO_W@@@Z
?IlSetupScanFileQueueW@CIlNt4Setupapi@@CAHPAXKPAUHWND__@@P6AI0III@Z0PAK@Z
?IlSetupapi@@3VCIlSetupapi@@A DATA
?IlShell32@@3VCIlShell32@@A DATA
?IlStartServiceW@CIlNt4Advapi32@@CAHPAUSC_HANDLE__@@KPAPBG@Z
?IlUnlockServiceDatabase@CIlNt4Advapi32@@CAHPAX@Z
?IlUser32@@3VCIlUser32@@A DATA
?IlVersion@@3VCIlVersion@@A DATA
?IlW2kDynWs2_32@@3VCIlW2kDynWs2_32@@A DATA
?IlWimgapi@@3VCIlWimgapi@@A DATA
?IlWs2_32@@3VCIlWs2_32@@A DATA
?Ilfreeaddrinfo@CIlW2kDynWs2_32@@CAXPAUaddrinfo@@@Z
?Ilgetaddrinfo@CIlW2kDynWs2_32@@CAHPBD0PBUaddrinfo@@PAPAU2@@Z
?Ilgetnameinfo@CIlW2kDynWs2_32@@CAHPBUsockaddr@@HPADK1KH@Z
?InitializeCriticalSection@CIlKernel32@@UAAXPAU_RTL_CRITICAL_SECTION@@@Z
?InitializeSecurityDescriptor@CIlAdvapi32@@UAAHPAXK@Z
?InitiateSystemShutdownExW@CIlNt4Advapi32@@UAAHPAG0KHHK@Z
?IsValidSid@CIlAdvapi32@@UAAHPAX@Z
?LeaveCriticalSection@CIlKernel32@@UAAXPAU_RTL_CRITICAL_SECTION@@@Z
?LoadIconW@CIlUser32@@UAAPAUHICON__@@PAUHINSTANCE__@@PBG@Z
?LoadLibraryW@CIlKernel32@@UAAPAUHINSTANCE__@@PBG@Z
?LockServiceDatabase@CIlNt4Advapi32@@UAAPAXPAUSC_HANDLE__@@@Z
?LockSetForegroundWindow@CIlNt4User32@@UAAHI@Z
?LookupAccountNameW@CIlAdvapi32@@UAAHPBG0PAXPAKPAG2PAW4_SID_NAME_USE@@@Z
?LookupAccountSidW@CIlAdvapi32@@UAAHPBGPAXPAGPAK23PAW4_SID_NAME_USE@@@Z
?LookupPrivilegeValueW@CIlAdvapi32@@UAAHPBG0PAU_LUID@@@Z
?MapViewOfFile@CIlKernel32@@UAAPAXPAXKKKK@Z
?MessageBoxA@CIlUser32@@UAAHPAUHWND__@@PBD1I@Z
?MessageBoxW@CIlUser32@@UAAHPAUHWND__@@PBG1I@Z
?MoveFileExW@CIlKernel32@@UAAHPBG0K@Z
?MoveFileW@CIlKernel32@@UAAHPBG0@Z
?NetApiBufferFree@CIlNt4Netapi32@@UAAKPAX@Z
?NetLocalGroupAdd@CIlNt4Netapi32@@UAAKPBGKPAEPAK@Z
?NetLocalGroupAddMembers@CIlNt4Netapi32@@UAAKPBG0KPAEK@Z
?NetLocalGroupEnum@CIlNt4Netapi32@@UAAKPBGKPAPAEKPAK22@Z
?NetUserAdd@CIlNt4Netapi32@@UAAKPBGKPAEPAK@Z
?NetUserDel@CIlNt4Netapi32@@UAAKPBG0@Z
?NetUserEnum@CIlNt4Netapi32@@UAAKPBGKKPAPAEKPAK22@Z
?NetUserGetLocalGroups@CIlNt4Netapi32@@UAAKPBG0KKPAPAEKPAK2@Z
?NetWkstaGetInfo@CIlNt4Netapi32@@UAAKPAGKPAPAE@Z
?OpenEventW@CIlKernel32@@UAAPAXKHPBG@Z
?OpenProcess@CIlKernel32@@UAAPAXKHK@Z
?OpenProcessToken@CIlAdvapi32@@UAAHPAXKPAPAX@Z
?OpenSCManagerW@CIlNt4Advapi32@@UAAPAUSC_HANDLE__@@PBG0K@Z
?OpenServiceW@CIlNt4Advapi32@@UAAPAUSC_HANDLE__@@PAU2@PBGK@Z
?PostMessageW@CIlUser32@@UAAHPAUHWND__@@IIJ@Z
?Process32FirstW@CIlNt4Kernel32@@UAAHPAXPAUtagPROCESSENTRY32W@@@Z
?Process32NextW@CIlNt4Kernel32@@UAAHPAXPAUtagPROCESSENTRY32W@@@Z
?QueryServiceConfigW@CIlNt4Advapi32@@UAAHPAUSC_HANDLE__@@PAU_QUERY_SERVICE_CONFIGW@@KPAK@Z
?RaiseException@CIlKernel32@@UAAXKKKPBK@Z
?ReadFile@CIlKernel32@@UAAHPAX0KPAKPAU_OVERLAPPED@@@Z
?RegCloseKey@CIlAdvapi32@@UAAJPAUHKEY__@@@Z
?RegCreateKeyExW@CIlAdvapi32@@UAAJPAUHKEY__@@PBGKPAGKKPAU_SECURITY_ATTRIBUTES@@PAPAU2@PAK@Z
?RegDeleteKeyW@CIlAdvapi32@@UAAJPAUHKEY__@@PBG@Z
?RegDeleteValueW@CIlAdvapi32@@UAAJPAUHKEY__@@PBG@Z
?RegEnumKeyExW@CIlAdvapi32@@UAAJPAUHKEY__@@KPAGPAK212PAU_FILETIME@@@Z
?RegEnumValueW@CIlAdvapi32@@UAAJPAUHKEY__@@KPAGPAK22PAE2@Z
?RegFlushKey@CIlAdvapi32@@UAAJPAUHKEY__@@@Z
?RegLoadKeyW@CIlAdvapi32@@UAAJPAUHKEY__@@PBG1@Z
?RegOpenKeyExW@CIlAdvapi32@@UAAJPAUHKEY__@@PBGKKPAPAU2@@Z
?RegQueryInfoKeyW@CIlAdvapi32@@UAAJPAUHKEY__@@PAGPAK22222222PAU_FILETIME@@@Z
?RegQueryValueExW@CIlAdvapi32@@UAAJPAUHKEY__@@PBGPAK2PAE2@Z
?RegSetKeySecurity@CIlAdvapi32@@UAAJPAUHKEY__@@KPAX@Z
?RegSetValueExW@CIlAdvapi32@@UAAJPAUHKEY__@@PBGKKPBEK@Z
?RegUnLoadKeyW@CIlAdvapi32@@UAAJPAUHKEY__@@PBG@Z
?RegisterWaitForSingleObject@CIlNt4Kernel32@@UAAHPAPAXPAXP6AX1E@Z1KK@Z
?ReleaseProc@CDynLib@@IAAXAAP6AHXZAAK@Z
?RemoveDirectoryW@CIlKernel32@@UAAHPBG@Z
?ResetEvent@CIlKernel32@@UAAHPAX@Z
?SetEndOfFile@CIlKernel32@@UAAHPAX@Z
?SetErrorMode@CIlKernel32@@UAAII@Z
?SetEvent@CIlKernel32@@UAAHPAX@Z
?SetFileAttributesW@CIlKernel32@@UAAHPBGK@Z
?SetFilePointer@CIlKernel32@@UAAKPAXJPAJK@Z
?SetFileTime@CIlKernel32@@UAAHPAXPBU_FILETIME@@11@Z
?SetLastError@CIlKernel32@@UAAXK@Z
?SetNamedSecurityInfoW@CIlAdvapi32@@UAAKPAGW4_SE_OBJECT_TYPE@@KPAX2PAU_ACL@@3@Z
?SetSecurityDescriptorOwner@CIlAdvapi32@@UAAHPAX0H@Z
?SetSecurityInfo@CIlAdvapi32@@UAAKPAXW4_SE_OBJECT_TYPE@@K00PAU_ACL@@2@Z
?SetupCloseFileQueue@CIlNt4Setupapi@@UAAHPAX@Z
?SetupCloseInfFile@CIlSetupapi@@UAAXPAX@Z
?SetupDiBuildDriverInfoList@CIlNt4Setupapi@@UAAHPAXPAU_SP_DEVINFO_DATA@@K@Z
?SetupDiCallClassInstaller@CIlNt4Setupapi@@UAAHIPAXPAU_SP_DEVINFO_DATA@@@Z
?SetupDiCreateDeviceInfoListExW@CIlNt4Setupapi@@UAAPAXPBU_GUID@@PAUHWND__@@PBGPAX@Z
?SetupDiDestroyDeviceInfoList@CIlNt4Setupapi@@UAAHPAX@Z
?SetupDiDestroyDriverInfoList@CIlNt4Setupapi@@UAAHPAXPAU_SP_DEVINFO_DATA@@K@Z
?SetupDiEnumDeviceInfo@CIlNt4Setupapi@@UAAHPAXKPAU_SP_DEVINFO_DATA@@@Z
?SetupDiEnumDeviceInterfaces@CIlNt4Setupapi@@UAAHPAXPAU_SP_DEVINFO_DATA@@PBU_GUID@@KPAU_SP_DEVICE_INTERFACE_DATA@@@Z
?SetupDiEnumDriverInfoW@CIlNt4Setupapi@@UAAHPAXPAU_SP_DEVINFO_DATA@@KKPAU_SP_DRVINFO_DATA_V2_W@@@Z
?SetupDiGetClassDevsExW@CIlNt4Setupapi@@UAAPAXPBU_GUID@@PBGPAUHWND__@@KPAX13@Z
?SetupDiGetClassDevsW@CIlNt4Setupapi@@UAAPAXPBU_GUID@@PBGPAUHWND__@@K@Z
?SetupDiGetDeviceInstallParamsW@CIlNt4Setupapi@@UAAHPAXPAU_SP_DEVINFO_DATA@@PAU_SP_DEVINSTALL_PARAMS_W@@@Z
?SetupDiGetDeviceInterfaceDetailW@CIlNt4Setupapi@@UAAHPAXPAU_SP_DEVICE_INTERFACE_DATA@@PAU_SP_DEVICE_INTERFACE_DETAIL_DATA_W@@KPAKPAU_SP_DEVINFO_DATA@@@Z
?SetupDiGetDeviceRegistryPropertyW@CIlNt4Setupapi@@UAAHPAXPAU_SP_DEVINFO_DATA@@KPAKPAEK2@Z
?SetupDiGetDriverInfoDetailW@CIlNt4Setupapi@@UAAHPAXPAU_SP_DEVINFO_DATA@@PAU_SP_DRVINFO_DATA_V2_W@@PAU_SP_DRVINFO_DETAIL_DATA_W@@KPAK@Z
?SetupDiOpenDevRegKey@CIlNt4Setupapi@@UAAPAUHKEY__@@PAXPAU_SP_DEVINFO_DATA@@KKKK@Z
?SetupDiOpenDeviceInfoW@CIlNt4Setupapi@@UAAHPAXPBGPAUHWND__@@KPAU_SP_DEVINFO_DATA@@@Z
?SetupDiSetDeviceInstallParamsW@CIlNt4Setupapi@@UAAHPAXPAU_SP_DEVINFO_DATA@@PAU_SP_DEVINSTALL_PARAMS_W@@@Z
?SetupDiSetSelectedDriverW@CIlNt4Setupapi@@UAAHPAXPAU_SP_DEVINFO_DATA@@PAU_SP_DRVINFO_DATA_V2_W@@@Z
?SetupFindFirstLineW@CIlSetupapi@@UAAHPAXPBG1PAU_INFCONTEXT@@@Z
?SetupFindNextLine@CIlSetupapi@@UAAHPAU_INFCONTEXT@@0@Z
?SetupGetInfInformationW@CIlNt4Setupapi@@UAAHPBXKPAU_SP_INF_INFORMATION@@KPAK@Z
?SetupGetLineTextW@CIlSetupapi@@UAAHPAU_INFCONTEXT@@PAXPBG2PAGKPAK@Z
?SetupGetStringFieldW@CIlSetupapi@@UAAHPAU_INFCONTEXT@@KPAGKPAK@Z
?SetupOpenFileQueue@CIlNt4Setupapi@@UAAPAXXZ
?SetupOpenInfFileW@CIlSetupapi@@UAAPAXPBG0KPAI@Z
?SetupQueryInfOriginalFileInformationW@CIlNt4Setupapi@@UAAHPAU_SP_INF_INFORMATION@@IPAU_SP_ALTPLATFORM_INFO_V2@@PAU_SP_ORIGINAL_FILE_INFO_W@@@Z
?SetupScanFileQueueW@CIlNt4Setupapi@@UAAHPAXKPAUHWND__@@P6AI0III@Z0PAK@Z
?ShellExecuteExW@CIlShell32@@UAAHPAU_SHELLEXECUTEINFOW@@@Z
?Sleep@CIlKernel32@@UAAXK@Z
?StartServiceW@CIlNt4Advapi32@@UAAHPAUSC_HANDLE__@@KPAPBG@Z
?SysprepIsStagedOS@CIlDeplorch@@UAAHXZ
?TerminateProcess@CIlKernel32@@UAAHPAXI@Z
?UnlockServiceDatabase@CIlNt4Advapi32@@UAAHPAX@Z
?UnmapViewOfFile@CIlKernel32@@UAAHPBX@Z
?VariantClear@CIlOleaut32@@UAAJPAUtagVARIANT@@@Z
?VerQueryValueW@CIlVersion@@UAAHQAXPBGPAPAXPAI@Z
?VirtualAlloc@CIlKernel32@@UAAPAXPAXKKK@Z
?VirtualFree@CIlKernel32@@UAAHPAXKK@Z
?WIMApplyImage@CIlWimgapi@@UAAHPAXPAGK@Z
?WIMCloseHandle@CIlWimgapi@@UAAHPAX@Z
?WIMCreateFile@CIlWimgapi@@UAAPAXPAGKKKKPAK@Z
?WIMLoadImage@CIlWimgapi@@UAAPAXPAXK@Z
?WIMRegisterMessageCallback@CIlWimgapi@@UAAKPAXP6AHXZ0@Z
?WIMSetTemporaryPath@CIlWimgapi@@UAAHPAXPAG@Z
?WIMUnregisterMessageCallback@CIlWimgapi@@UAAHPAXP6AHXZ@Z
?WSACleanup@CIlWs2_32@@UAAHXZ
?WSAGetLastError@CIlWs2_32@@UAAHXZ
?WSAIoctl@CIlWs2_32@@UAAHIKPAXK0KPAKPAU_OVERLAPPED@@P6AXKK2K@Z@Z
?WSAStartup@CIlWs2_32@@UAAHGPAUWSAData@@@Z
?WaitForMultipleObjects@CIlKernel32@@UAAKKPBQAXHK@Z
?WaitForSingleObject@CIlKernel32@@UAAKPAXK@Z
?WriteFile@CIlKernel32@@UAAHPAXPBXKPAKPAU_OVERLAPPED@@@Z
?__WSAFDIsSet@CIlWs2_32@@UAAHIPAUfd_set@@@Z
?accept@CIlWs2_32@@UAAIIPAUsockaddr@@PAH@Z
?bind@CIlWs2_32@@UAAHIPBUsockaddr@@H@Z
?closesocket@CIlWs2_32@@UAAHI@Z
?connect@CIlWs2_32@@UAAHIPBUsockaddr@@H@Z
?freeaddrinfo@CIlW2kDynWs2_32@@UAAXPAUaddrinfo@@@Z
?g_Advapi32@@3PAUIAdvapi32Interface@@A DATA
?g_Deplorch@@3PAUIDeplorchInterface@@A DATA
?g_Iphlpapi@@3PAUIIphlpapiInterface@@A DATA
?g_Kernel32@@3PAUIKernel32Interface@@A DATA
?g_Muisetupapi@@3PAUIMuisetupapiInterface@@A DATA
?g_Nt4Advapi32@@3PAUIW2kAdvapi32Interface@@A DATA
?g_Nt4Kernel32@@3PAUIW2kKernel32Interface@@A DATA
?g_Nt4Netapi32@@3PAUIW2kNetapi32Interface@@A DATA
?g_Nt4Setupapi@@3PAUIW2kSetupapiInterface@@A DATA
?g_Nt4User32@@3PAUIW2kUser32Interface@@A DATA
?g_Nt4Userenv@@3PAUIW2kUserenvInterface@@A DATA
?g_Nt6Userenv@@3PAUINt6UserenvInterface@@A DATA
?g_Ole32@@3PAUIOle32Interface@@A DATA
?g_Oleaut32@@3PAUIOleaut32Interface@@A DATA
?g_Setupapi@@3PAUISetupapiInterface@@A DATA
?g_Shell32@@3PAUIShell32Interface@@A DATA
?g_User32@@3PAUIUser32Interface@@A DATA
?g_Version@@3PAUIVersionInterface@@A DATA
?g_W2kWs2_32@@3PAUIlW2kDynWs2_32Interface@@A DATA
?g_Wimgapi@@3PAUIWimgapiInterface@@A DATA
?g_Ws2_32@@3PAUIWs2_32Interface@@A DATA
?get_ChangeServiceConfigW@CIlNt4Advapi32@@QAAP6AHPAUSC_HANDLE__@@KKKPBG1PAK1111@ZXZ
?get_CloseServiceHandle@CIlNt4Advapi32@@QAAP6AHPAUSC_HANDLE__@@@ZXZ
?get_ConvertSecurityDescriptorToStringSecurityDescriptorW@CIlNt4Advapi32@@QAAP6AHPAXKKPAPAGPAK@ZXZ
?get_ConvertSidToStringSidW@CIlNt4Advapi32@@QAAP6AHPAXPAPAG@ZXZ
?get_ConvertStringSecurityDescriptorToSecurityDescriptorW@CIlNt4Advapi32@@QAAP6AHPBGKPAPAXPAK@ZXZ
?get_ConvertStringSidToSidW@CIlNt4Advapi32@@QAAP6AHPAGPAPAX@ZXZ
?get_CreateProfile@CIlNt6Userenv@@QAAP6AJPBG0PAGK@ZXZ
?get_CreateServiceW@CIlNt4Advapi32@@QAAP6APAUSC_HANDLE__@@PAU2@PBG1KKKK11PAK111@ZXZ
?get_CreateToolhelp32Snapshot@CIlNt4Kernel32@@QAAP6APAXKK@ZXZ
?get_CreateUserProfileExW@CIlNt4Userenv@@QAAP6AHPAXPBG1PAGKH@ZXZ
?get_CreateWellKnownSid@CIlNt4Advapi32@@QAAP6AHW4WELL_KNOWN_SID_TYPE@@PAX1PAK@ZXZ
?get_EncryptFileW@CIlNt4Advapi32@@QAAP6AHPBG@ZXZ
?get_EnumServicesStatusExW@CIlNt4Advapi32@@QAAP6AHPAUSC_HANDLE__@@W4_SC_ENUM_TYPE@@KKPAEKPAK33PBG@ZXZ
?get_GetSystemWindowsDirectoryW@CIlNt4Kernel32@@QAAP6AIPAGI@ZXZ
?get_GlobalMemoryStatusEx@CIlNt4Kernel32@@QAAP6AHPAU_MEMORYSTATUSEX@@@ZXZ
?get_InitiateSystemShutdownExW@CIlNt4Advapi32@@QAAP6AHPAG0KHHK@ZXZ
?get_LockServiceDatabase@CIlNt4Advapi32@@QAAP6APAXPAUSC_HANDLE__@@@ZXZ
?get_LockSetForegroundWindow@CIlNt4User32@@QAAP6AHI@ZXZ
?get_NetApiBufferFree@CIlNt4Netapi32@@QAAP6AKPAX@ZXZ
?get_NetLocalGroupAdd@CIlNt4Netapi32@@QAAP6AKPBGKPAEPAK@ZXZ
?get_NetLocalGroupAddMembers@CIlNt4Netapi32@@QAAP6AKPBG0KPAEK@ZXZ
?get_NetLocalGroupEnum@CIlNt4Netapi32@@QAAP6AKPBGKPAPAEKPAK22@ZXZ
?get_NetUserAdd@CIlNt4Netapi32@@QAAP6AKPBGKPAEPAK@ZXZ
?get_NetUserDel@CIlNt4Netapi32@@QAAP6AKPBG0@ZXZ
?get_NetUserEnum@CIlNt4Netapi32@@QAAP6AKPBGKKPAPAEKPAK22@ZXZ
?get_NetUserGetLocalGroups@CIlNt4Netapi32@@QAAP6AKPBG0KKPAPAEKPAK2@ZXZ
?get_NetWkstaGetInfo@CIlNt4Netapi32@@QAAP6AKPAGKPAPAE@ZXZ
?get_OpenSCManagerW@CIlNt4Advapi32@@QAAP6APAUSC_HANDLE__@@PBG0K@ZXZ
?get_OpenServiceW@CIlNt4Advapi32@@QAAP6APAUSC_HANDLE__@@PAU2@PBGK@ZXZ
?get_Process32FirstW@CIlNt4Kernel32@@QAAP6AHPAXPAUtagPROCESSENTRY32W@@@ZXZ
?get_Process32NextW@CIlNt4Kernel32@@QAAP6AHPAXPAUtagPROCESSENTRY32W@@@ZXZ
?get_QueryServiceConfigW@CIlNt4Advapi32@@QAAP6AHPAUSC_HANDLE__@@PAU_QUERY_SERVICE_CONFIGW@@KPAK@ZXZ
?get_RegisterWaitForSingleObject@CIlNt4Kernel32@@QAAP6AHPAPAXPAXP6AX1E@Z1KK@ZXZ
?get_SetupCloseFileQueue@CIlNt4Setupapi@@QAAP6AHPAX@ZXZ
?get_SetupDiBuildDriverInfoList@CIlNt4Setupapi@@QAAP6AHPAXPAU_SP_DEVINFO_DATA@@K@ZXZ
?get_SetupDiCallClassInstaller@CIlNt4Setupapi@@QAAP6AHIPAXPAU_SP_DEVINFO_DATA@@@ZXZ
?get_SetupDiCreateDeviceInfoListExW@CIlNt4Setupapi@@QAAP6APAXPBU_GUID@@PAUHWND__@@PBGPAX@ZXZ
?get_SetupDiDestroyDeviceInfoList@CIlNt4Setupapi@@QAAP6AHPAX@ZXZ
?get_SetupDiDestroyDriverInfoList@CIlNt4Setupapi@@QAAP6AHPAXPAU_SP_DEVINFO_DATA@@K@ZXZ
?get_SetupDiEnumDeviceInfo@CIlNt4Setupapi@@QAAP6AHPAXKPAU_SP_DEVINFO_DATA@@@ZXZ
?get_SetupDiEnumDeviceInterfaces@CIlNt4Setupapi@@QAAP6AHPAXPAU_SP_DEVINFO_DATA@@PBU_GUID@@KPAU_SP_DEVICE_INTERFACE_DATA@@@ZXZ
?get_SetupDiEnumDriverInfoW@CIlNt4Setupapi@@QAAP6AHPAXPAU_SP_DEVINFO_DATA@@KKPAU_SP_DRVINFO_DATA_V2_W@@@ZXZ
?get_SetupDiGetClassDevsExW@CIlNt4Setupapi@@QAAP6APAXPBU_GUID@@PBGPAUHWND__@@KPAX13@ZXZ
?get_SetupDiGetClassDevsW@CIlNt4Setupapi@@QAAP6APAXPBU_GUID@@PBGPAUHWND__@@K@ZXZ
?get_SetupDiGetDeviceInstallParamsW@CIlNt4Setupapi@@QAAP6AHPAXPAU_SP_DEVINFO_DATA@@PAU_SP_DEVINSTALL_PARAMS_W@@@ZXZ
?get_SetupDiGetDeviceInterfaceDetailW@CIlNt4Setupapi@@QAAP6AHPAXPAU_SP_DEVICE_INTERFACE_DATA@@PAU_SP_DEVICE_INTERFACE_DETAIL_DATA_W@@KPAKPAU_SP_DEVINFO_DATA@@@ZXZ
?get_SetupDiGetDeviceRegistryPropertyW@CIlNt4Setupapi@@QAAP6AHPAXPAU_SP_DEVINFO_DATA@@KPAKPAEK2@ZXZ
?get_SetupDiGetDriverInfoDetailW@CIlNt4Setupapi@@QAAP6AHPAXPAU_SP_DEVINFO_DATA@@PAU_SP_DRVINFO_DATA_V2_W@@PAU_SP_DRVINFO_DETAIL_DATA_W@@KPAK@ZXZ
?get_SetupDiOpenDevRegKey@CIlNt4Setupapi@@QAAP6APAUHKEY__@@PAXPAU_SP_DEVINFO_DATA@@KKKK@ZXZ
?get_SetupDiOpenDeviceInfoW@CIlNt4Setupapi@@QAAP6AHPAXPBGPAUHWND__@@KPAU_SP_DEVINFO_DATA@@@ZXZ
?get_SetupDiSetDeviceInstallParamsW@CIlNt4Setupapi@@QAAP6AHPAXPAU_SP_DEVINFO_DATA@@PAU_SP_DEVINSTALL_PARAMS_W@@@ZXZ
?get_SetupDiSetSelectedDriverW@CIlNt4Setupapi@@QAAP6AHPAXPAU_SP_DEVINFO_DATA@@PAU_SP_DRVINFO_DATA_V2_W@@@ZXZ
?get_SetupGetInfInformationW@CIlNt4Setupapi@@QAAP6AHPBXKPAU_SP_INF_INFORMATION@@KPAK@ZXZ
?get_SetupOpenFileQueue@CIlNt4Setupapi@@QAAP6APAXXZXZ
?get_SetupQueryInfOriginalFileInformationW@CIlNt4Setupapi@@QAAP6AHPAU_SP_INF_INFORMATION@@IPAU_SP_ALTPLATFORM_INFO_V2@@PAU_SP_ORIGINAL_FILE_INFO_W@@@ZXZ
?get_SetupScanFileQueueW@CIlNt4Setupapi@@QAAP6AHPAXKPAUHWND__@@P6AI0III@Z0PAK@ZXZ
?get_StartServiceW@CIlNt4Advapi32@@QAAP6AHPAUSC_HANDLE__@@KPAPBG@ZXZ
?get_UnlockServiceDatabase@CIlNt4Advapi32@@QAAP6AHPAX@ZXZ
?get_freeaddrinfo@CIlW2kDynWs2_32@@UAAP6AXPAUaddrinfo@@@ZXZ
?get_getaddrinfo@CIlW2kDynWs2_32@@UAAP6AHPBD0PBUaddrinfo@@PAPAU2@@ZXZ
?get_getnameinfo@CIlW2kDynWs2_32@@UAAP6AHPBUsockaddr@@HPADK1KH@ZXZ
?getaddrinfo@CIlW2kDynWs2_32@@UAAHPBD0PBUaddrinfo@@PAPAU2@@Z
?gethostbyname@CIlWs2_32@@UAAPAUhostent@@PBD@Z
?gethostname@CIlWs2_32@@UAAHPADH@Z
?getnameinfo@CIlW2kDynWs2_32@@UAAHPBUsockaddr@@HPADK1KH@Z
?getsockname@CIlWs2_32@@UAAHIPAUsockaddr@@PAH@Z
?getsockopt@CIlWs2_32@@UAAHIHHPADPAH@Z
?htonl@CIlWs2_32@@UAAKK@Z
?htons@CIlWs2_32@@UAAGG@Z
?inet_addr@CIlWs2_32@@UAAKPBD@Z
?inet_ntoa@CIlWs2_32@@UAAPADUin_addr@@@Z
?ioctlsocket@CIlWs2_32@@UAAHIJPAK@Z
?listen@CIlWs2_32@@UAAHIH@Z
?m_ChangeServiceConfigW@CIlNt4Advapi32@@0P6AHPAUSC_HANDLE__@@KKKPBG1PAK1111@ZA DATA
?m_CloseServiceHandle@CIlNt4Advapi32@@0P6AHPAUSC_HANDLE__@@@ZA DATA
?m_ConvertSecurityDescriptorToStringSecurityDescriptorW@CIlNt4Advapi32@@0P6AHPAXKKPAPAGPAK@ZA DATA
?m_ConvertSidToStringSidW@CIlNt4Advapi32@@0P6AHPAXPAPAG@ZA DATA
?m_ConvertStringSecurityDescriptorToSecurityDescriptorW@CIlNt4Advapi32@@0P6AHPBGKPAPAXPAK@ZA DATA
?m_ConvertStringSidToSidW@CIlNt4Advapi32@@0P6AHPAGPAPAX@ZA DATA
?m_CreateProfile@CIlNt6Userenv@@0P6AJPBG0PAGK@ZA DATA
?m_CreateServiceW@CIlNt4Advapi32@@0P6APAUSC_HANDLE__@@PAU2@PBG1KKKK11PAK111@ZA DATA
?m_CreateToolhelp32Snapshot@CIlNt4Kernel32@@0P6APAXKK@ZA DATA
?m_CreateUserProfileExW@CIlNt4Userenv@@0P6AHPAXPBG1PAGKH@ZA DATA
?m_CreateWellKnownSid@CIlNt4Advapi32@@0P6AHW4WELL_KNOWN_SID_TYPE@@PAX1PAK@ZA DATA
?m_EncryptFileW@CIlNt4Advapi32@@0P6AHPBG@ZA DATA
?m_EnumServicesStatusExW@CIlNt4Advapi32@@0P6AHPAUSC_HANDLE__@@W4_SC_ENUM_TYPE@@KKPAEKPAK33PBG@ZA DATA
?m_GetSystemWindowsDirectoryW@CIlNt4Kernel32@@0P6AIPAGI@ZA DATA
?m_GlobalMemoryStatusEx@CIlNt4Kernel32@@0P6AHPAU_MEMORYSTATUSEX@@@ZA DATA
?m_InitiateSystemShutdownExW@CIlNt4Advapi32@@0P6AHPAG0KHHK@ZA DATA
?m_LockServiceDatabase@CIlNt4Advapi32@@0P6APAXPAUSC_HANDLE__@@@ZA DATA
?m_LockSetForegroundWindow@CIlNt4User32@@0P6AHI@ZA DATA
?m_NetApiBufferFree@CIlNt4Netapi32@@0P6AKPAX@ZA DATA
?m_NetLocalGroupAdd@CIlNt4Netapi32@@0P6AKPBGKPAEPAK@ZA DATA
?m_NetLocalGroupAddMembers@CIlNt4Netapi32@@0P6AKPBG0KPAEK@ZA DATA
?m_NetLocalGroupEnum@CIlNt4Netapi32@@0P6AKPBGKPAPAEKPAK22@ZA DATA
?m_NetUserAdd@CIlNt4Netapi32@@0P6AKPBGKPAEPAK@ZA DATA
?m_NetUserDel@CIlNt4Netapi32@@0P6AKPBG0@ZA DATA
?m_NetUserEnum@CIlNt4Netapi32@@0P6AKPBGKKPAPAEKPAK22@ZA DATA
?m_NetUserGetLocalGroups@CIlNt4Netapi32@@0P6AKPBG0KKPAPAEKPAK2@ZA DATA
?m_NetWkstaGetInfo@CIlNt4Netapi32@@0P6AKPAGKPAPAE@ZA DATA
?m_OpenSCManagerW@CIlNt4Advapi32@@0P6APAUSC_HANDLE__@@PBG0K@ZA DATA
?m_OpenServiceW@CIlNt4Advapi32@@0P6APAUSC_HANDLE__@@PAU2@PBGK@ZA DATA
?m_Process32FirstW@CIlNt4Kernel32@@0P6AHPAXPAUtagPROCESSENTRY32W@@@ZA DATA
?m_Process32NextW@CIlNt4Kernel32@@0P6AHPAXPAUtagPROCESSENTRY32W@@@ZA DATA
?m_QueryServiceConfigW@CIlNt4Advapi32@@0P6AHPAUSC_HANDLE__@@PAU_QUERY_SERVICE_CONFIGW@@KPAK@ZA DATA
?m_RefCountChangeServiceConfigW@CIlNt4Advapi32@@0KA DATA
?m_RefCountCloseServiceHandle@CIlNt4Advapi32@@0KA DATA
?m_RefCountConvertSecurityDescriptorToStringSecurityDescriptorW@CIlNt4Advapi32@@0KA DATA
?m_RefCountConvertSidToStringSidW@CIlNt4Advapi32@@0KA DATA
?m_RefCountConvertStringSecurityDescriptorToSecurityDescriptorW@CIlNt4Advapi32@@0KA DATA
?m_RefCountConvertStringSidToSidW@CIlNt4Advapi32@@0KA DATA
?m_RefCountCreateProfile@CIlNt6Userenv@@0KA DATA
?m_RefCountCreateServiceW@CIlNt4Advapi32@@0KA DATA
?m_RefCountCreateToolhelp32Snapshot@CIlNt4Kernel32@@0KA DATA
?m_RefCountCreateUserProfileExW@CIlNt4Userenv@@0KA DATA
?m_RefCountCreateWellKnownSid@CIlNt4Advapi32@@0KA DATA
?m_RefCountEncryptFileW@CIlNt4Advapi32@@0KA DATA
?m_RefCountEnumServicesStatusExW@CIlNt4Advapi32@@0KA DATA
?m_RefCountGetSystemWindowsDirectoryW@CIlNt4Kernel32@@0KA DATA
?m_RefCountGlobalMemoryStatusEx@CIlNt4Kernel32@@0KA DATA
?m_RefCountInitiateSystemShutdownExW@CIlNt4Advapi32@@0KA DATA
?m_RefCountLockServiceDatabase@CIlNt4Advapi32@@0KA DATA
?m_RefCountLockSetForegroundWindow@CIlNt4User32@@0KA DATA
?m_RefCountNetApiBufferFree@CIlNt4Netapi32@@0KA DATA
?m_RefCountNetLocalGroupAdd@CIlNt4Netapi32@@0KA DATA
?m_RefCountNetLocalGroupAddMembers@CIlNt4Netapi32@@0KA DATA
?m_RefCountNetLocalGroupEnum@CIlNt4Netapi32@@0KA DATA
?m_RefCountNetUserAdd@CIlNt4Netapi32@@0KA DATA
?m_RefCountNetUserDel@CIlNt4Netapi32@@0KA DATA
?m_RefCountNetUserEnum@CIlNt4Netapi32@@0KA DATA
?m_RefCountNetUserGetLocalGroups@CIlNt4Netapi32@@0KA DATA
?m_RefCountNetWkstaGetInfo@CIlNt4Netapi32@@0KA DATA
?m_RefCountOpenSCManagerW@CIlNt4Advapi32@@0KA DATA
?m_RefCountOpenServiceW@CIlNt4Advapi32@@0KA DATA
?m_RefCountProcess32FirstW@CIlNt4Kernel32@@0KA DATA
?m_RefCountProcess32NextW@CIlNt4Kernel32@@0KA DATA
?m_RefCountQueryServiceConfigW@CIlNt4Advapi32@@0KA DATA
?m_RefCountRegisterWaitForSingleObject@CIlNt4Kernel32@@0KA DATA
?m_RefCountSetupCloseFileQueue@CIlNt4Setupapi@@0KA DATA
?m_RefCountSetupDiBuildDriverInfoList@CIlNt4Setupapi@@0KA DATA
?m_RefCountSetupDiCallClassInstaller@CIlNt4Setupapi@@0KA DATA
?m_RefCountSetupDiCreateDeviceInfoListExW@CIlNt4Setupapi@@0KA DATA
?m_RefCountSetupDiDestroyDeviceInfoList@CIlNt4Setupapi@@0KA DATA
?m_RefCountSetupDiDestroyDriverInfoList@CIlNt4Setupapi@@0KA DATA
?m_RefCountSetupDiEnumDeviceInfo@CIlNt4Setupapi@@0KA DATA
?m_RefCountSetupDiEnumDeviceInterfaces@CIlNt4Setupapi@@0KA DATA
?m_RefCountSetupDiEnumDriverInfoW@CIlNt4Setupapi@@0KA DATA
?m_RefCountSetupDiGetClassDevsExW@CIlNt4Setupapi@@0KA DATA
?m_RefCountSetupDiGetClassDevsW@CIlNt4Setupapi@@0KA DATA
?m_RefCountSetupDiGetDeviceInstallParamsW@CIlNt4Setupapi@@0KA DATA
?m_RefCountSetupDiGetDeviceInterfaceDetailW@CIlNt4Setupapi@@0KA DATA
?m_RefCountSetupDiGetDeviceRegistryPropertyW@CIlNt4Setupapi@@0KA DATA
?m_RefCountSetupDiGetDriverInfoDetailW@CIlNt4Setupapi@@0KA DATA
?m_RefCountSetupDiOpenDevRegKey@CIlNt4Setupapi@@0KA DATA
?m_RefCountSetupDiOpenDeviceInfoW@CIlNt4Setupapi@@0KA DATA
?m_RefCountSetupDiSetDeviceInstallParamsW@CIlNt4Setupapi@@0KA DATA
?m_RefCountSetupDiSetSelectedDriverW@CIlNt4Setupapi@@0KA DATA
?m_RefCountSetupGetInfInformationW@CIlNt4Setupapi@@0KA DATA
?m_RefCountSetupOpenFileQueue@CIlNt4Setupapi@@0KA DATA
?m_RefCountSetupQueryInfOriginalFileInformationW@CIlNt4Setupapi@@0KA DATA
?m_RefCountSetupScanFileQueueW@CIlNt4Setupapi@@0KA DATA
?m_RefCountStartServiceW@CIlNt4Advapi32@@0KA DATA
?m_RefCountUnlockServiceDatabase@CIlNt4Advapi32@@0KA DATA
?m_RefCountfreeaddrinfo@CIlW2kDynWs2_32@@0KA DATA
?m_RefCountgetaddrinfo@CIlW2kDynWs2_32@@0KA DATA
?m_RefCountgetnameinfo@CIlW2kDynWs2_32@@0KA DATA
?m_RegisterWaitForSingleObject@CIlNt4Kernel32@@0P6AHPAPAXPAXP6AX1E@Z1KK@ZA DATA
?m_SetupCloseFileQueue@CIlNt4Setupapi@@0P6AHPAX@ZA DATA
?m_SetupDiBuildDriverInfoList@CIlNt4Setupapi@@0P6AHPAXPAU_SP_DEVINFO_DATA@@K@ZA DATA
?m_SetupDiCallClassInstaller@CIlNt4Setupapi@@0P6AHIPAXPAU_SP_DEVINFO_DATA@@@ZA DATA
?m_SetupDiCreateDeviceInfoListExW@CIlNt4Setupapi@@0P6APAXPBU_GUID@@PAUHWND__@@PBGPAX@ZA DATA
?m_SetupDiDestroyDeviceInfoList@CIlNt4Setupapi@@0P6AHPAX@ZA DATA
?m_SetupDiDestroyDriverInfoList@CIlNt4Setupapi@@0P6AHPAXPAU_SP_DEVINFO_DATA@@K@ZA DATA
?m_SetupDiEnumDeviceInfo@CIlNt4Setupapi@@0P6AHPAXKPAU_SP_DEVINFO_DATA@@@ZA DATA
?m_SetupDiEnumDeviceInterfaces@CIlNt4Setupapi@@0P6AHPAXPAU_SP_DEVINFO_DATA@@PBU_GUID@@KPAU_SP_DEVICE_INTERFACE_DATA@@@ZA DATA
?m_SetupDiEnumDriverInfoW@CIlNt4Setupapi@@0P6AHPAXPAU_SP_DEVINFO_DATA@@KKPAU_SP_DRVINFO_DATA_V2_W@@@ZA DATA
?m_SetupDiGetClassDevsExW@CIlNt4Setupapi@@0P6APAXPBU_GUID@@PBGPAUHWND__@@KPAX13@ZA DATA
?m_SetupDiGetClassDevsW@CIlNt4Setupapi@@0P6APAXPBU_GUID@@PBGPAUHWND__@@K@ZA DATA
?m_SetupDiGetDeviceInstallParamsW@CIlNt4Setupapi@@0P6AHPAXPAU_SP_DEVINFO_DATA@@PAU_SP_DEVINSTALL_PARAMS_W@@@ZA DATA
?m_SetupDiGetDeviceInterfaceDetailW@CIlNt4Setupapi@@0P6AHPAXPAU_SP_DEVICE_INTERFACE_DATA@@PAU_SP_DEVICE_INTERFACE_DETAIL_DATA_W@@KPAKPAU_SP_DEVINFO_DATA@@@ZA DATA
?m_SetupDiGetDeviceRegistryPropertyW@CIlNt4Setupapi@@0P6AHPAXPAU_SP_DEVINFO_DATA@@KPAKPAEK2@ZA DATA
?m_SetupDiGetDriverInfoDetailW@CIlNt4Setupapi@@0P6AHPAXPAU_SP_DEVINFO_DATA@@PAU_SP_DRVINFO_DATA_V2_W@@PAU_SP_DRVINFO_DETAIL_DATA_W@@KPAK@ZA DATA
?m_SetupDiOpenDevRegKey@CIlNt4Setupapi@@0P6APAUHKEY__@@PAXPAU_SP_DEVINFO_DATA@@KKKK@ZA DATA
?m_SetupDiOpenDeviceInfoW@CIlNt4Setupapi@@0P6AHPAXPBGPAUHWND__@@KPAU_SP_DEVINFO_DATA@@@ZA DATA
?m_SetupDiSetDeviceInstallParamsW@CIlNt4Setupapi@@0P6AHPAXPAU_SP_DEVINFO_DATA@@PAU_SP_DEVINSTALL_PARAMS_W@@@ZA DATA
?m_SetupDiSetSelectedDriverW@CIlNt4Setupapi@@0P6AHPAXPAU_SP_DEVINFO_DATA@@PAU_SP_DRVINFO_DATA_V2_W@@@ZA DATA
?m_SetupGetInfInformationW@CIlNt4Setupapi@@0P6AHPBXKPAU_SP_INF_INFORMATION@@KPAK@ZA DATA
?m_SetupOpenFileQueue@CIlNt4Setupapi@@0P6APAXXZA DATA
?m_SetupQueryInfOriginalFileInformationW@CIlNt4Setupapi@@0P6AHPAU_SP_INF_INFORMATION@@IPAU_SP_ALTPLATFORM_INFO_V2@@PAU_SP_ORIGINAL_FILE_INFO_W@@@ZA DATA
?m_SetupScanFileQueueW@CIlNt4Setupapi@@0P6AHPAXKPAUHWND__@@P6AI0III@Z0PAK@ZA DATA
?m_StartServiceW@CIlNt4Advapi32@@0P6AHPAUSC_HANDLE__@@KPAPBG@ZA DATA
?m_UnlockServiceDatabase@CIlNt4Advapi32@@0P6AHPAX@ZA DATA
?m_freeaddrinfo@CIlW2kDynWs2_32@@0P6AXPAUaddrinfo@@@ZA DATA
?m_getaddrinfo@CIlW2kDynWs2_32@@0P6AHPBD0PBUaddrinfo@@PAPAU2@@ZA DATA
?m_getnameinfo@CIlW2kDynWs2_32@@0P6AHPBUsockaddr@@HPADK1KH@ZA DATA
?recv@CIlWs2_32@@UAAHIPADHH@Z
?recvfrom@CIlWs2_32@@UAAHIPADHHPAUsockaddr@@PAH@Z
?release_ChangeServiceConfigW@CIlNt4Advapi32@@QAAXXZ
?release_CloseServiceHandle@CIlNt4Advapi32@@QAAXXZ
?release_ConvertSecurityDescriptorToStringSecurityDescriptorW@CIlNt4Advapi32@@QAAXXZ
?release_ConvertSidToStringSidW@CIlNt4Advapi32@@QAAXXZ
?release_ConvertStringSecurityDescriptorToSecurityDescriptorW@CIlNt4Advapi32@@QAAXXZ
?release_ConvertStringSidToSidW@CIlNt4Advapi32@@QAAXXZ
?release_CreateProfile@CIlNt6Userenv@@QAAXXZ
?release_CreateServiceW@CIlNt4Advapi32@@QAAXXZ
?release_CreateToolhelp32Snapshot@CIlNt4Kernel32@@QAAXXZ
?release_CreateUserProfileExW@CIlNt4Userenv@@QAAXXZ
?release_CreateWellKnownSid@CIlNt4Advapi32@@QAAXXZ
?release_EncryptFileW@CIlNt4Advapi32@@QAAXXZ
?release_EnumServicesStatusExW@CIlNt4Advapi32@@QAAXXZ
?release_GetSystemWindowsDirectoryW@CIlNt4Kernel32@@QAAXXZ
?release_GlobalMemoryStatusEx@CIlNt4Kernel32@@QAAXXZ
?release_InitiateSystemShutdownExW@CIlNt4Advapi32@@QAAXXZ
?release_LockServiceDatabase@CIlNt4Advapi32@@QAAXXZ
?release_LockSetForegroundWindow@CIlNt4User32@@QAAXXZ
?release_NetApiBufferFree@CIlNt4Netapi32@@QAAXXZ
?release_NetLocalGroupAdd@CIlNt4Netapi32@@QAAXXZ
?release_NetLocalGroupAddMembers@CIlNt4Netapi32@@QAAXXZ
?release_NetLocalGroupEnum@CIlNt4Netapi32@@QAAXXZ
?release_NetUserAdd@CIlNt4Netapi32@@QAAXXZ
?release_NetUserDel@CIlNt4Netapi32@@QAAXXZ
?release_NetUserEnum@CIlNt4Netapi32@@QAAXXZ
?release_NetUserGetLocalGroups@CIlNt4Netapi32@@QAAXXZ
?release_NetWkstaGetInfo@CIlNt4Netapi32@@QAAXXZ
?release_OpenSCManagerW@CIlNt4Advapi32@@QAAXXZ
?release_OpenServiceW@CIlNt4Advapi32@@QAAXXZ
?release_Process32FirstW@CIlNt4Kernel32@@QAAXXZ
?release_Process32NextW@CIlNt4Kernel32@@QAAXXZ
?release_QueryServiceConfigW@CIlNt4Advapi32@@QAAXXZ
?release_RegisterWaitForSingleObject@CIlNt4Kernel32@@QAAXXZ
?release_SetupCloseFileQueue@CIlNt4Setupapi@@QAAXXZ
?release_SetupDiBuildDriverInfoList@CIlNt4Setupapi@@QAAXXZ
?release_SetupDiCallClassInstaller@CIlNt4Setupapi@@QAAXXZ
?release_SetupDiCreateDeviceInfoListExW@CIlNt4Setupapi@@QAAXXZ
?release_SetupDiDestroyDeviceInfoList@CIlNt4Setupapi@@QAAXXZ
?release_SetupDiDestroyDriverInfoList@CIlNt4Setupapi@@QAAXXZ
?release_SetupDiEnumDeviceInfo@CIlNt4Setupapi@@QAAXXZ
?release_SetupDiEnumDeviceInterfaces@CIlNt4Setupapi@@QAAXXZ
?release_SetupDiEnumDriverInfoW@CIlNt4Setupapi@@QAAXXZ
?release_SetupDiGetClassDevsExW@CIlNt4Setupapi@@QAAXXZ
?release_SetupDiGetClassDevsW@CIlNt4Setupapi@@QAAXXZ
?release_SetupDiGetDeviceInstallParamsW@CIlNt4Setupapi@@QAAXXZ
?release_SetupDiGetDeviceInterfaceDetailW@CIlNt4Setupapi@@QAAXXZ
?release_SetupDiGetDeviceRegistryPropertyW@CIlNt4Setupapi@@QAAXXZ
?release_SetupDiGetDriverInfoDetailW@CIlNt4Setupapi@@QAAXXZ
?release_SetupDiOpenDevRegKey@CIlNt4Setupapi@@QAAXXZ
?release_SetupDiOpenDeviceInfoW@CIlNt4Setupapi@@QAAXXZ
?release_SetupDiSetDeviceInstallParamsW@CIlNt4Setupapi@@QAAXXZ
?release_SetupDiSetSelectedDriverW@CIlNt4Setupapi@@QAAXXZ
?release_SetupGetInfInformationW@CIlNt4Setupapi@@QAAXXZ
?release_SetupOpenFileQueue@CIlNt4Setupapi@@QAAXXZ
?release_SetupQueryInfOriginalFileInformationW@CIlNt4Setupapi@@QAAXXZ
?release_SetupScanFileQueueW@CIlNt4Setupapi@@QAAXXZ
?release_StartServiceW@CIlNt4Advapi32@@QAAXXZ
?release_UnlockServiceDatabase@CIlNt4Advapi32@@QAAXXZ
?release_freeaddrinfo@CIlW2kDynWs2_32@@UAAXXZ
?release_getaddrinfo@CIlW2kDynWs2_32@@UAAXXZ
?release_getnameinfo@CIlW2kDynWs2_32@@UAAXXZ
?select@CIlWs2_32@@UAAHHPAUfd_set@@00PBUtimeval@@@Z
?send@CIlWs2_32@@UAAHIPBDHH@Z
?sendto@CIlWs2_32@@UAAHIPBDHHPBUsockaddr@@H@Z
?setsockopt@CIlWs2_32@@UAAHIHHPBDH@Z
?shutdown@CIlWs2_32@@UAAHIH@Z
?socket@CIlWs2_32@@UAAIHHH@Z
