;
; Definition file of msvcp60.dll
; Automatic generated by gendef
; written by Kai Tietz 2008-2014
;
LIBRARY "msvcp60.dll"
EXPORTS
??$?5DU?$char_traits@D@std@@@std@@YAAAV?$basic_istream@DU?$char_traits@D@std@@@0@AAV10@AAC@Z
??$?5DU?$char_traits@D@std@@@std@@YAAAV?$basic_istream@DU?$char_traits@D@std@@@0@AAV10@AAD@Z
??$?5DU?$char_traits@D@std@@@std@@YAAAV?$basic_istream@DU?$char_traits@D@std@@@0@AAV10@AAE@Z
??$?5DU?$char_traits@D@std@@@std@@YAAAV?$basic_istream@DU?$char_traits@D@std@@@0@AAV10@PAC@Z
??$?5DU?$char_traits@D@std@@@std@@YAAAV?$basic_istream@DU?$char_traits@D@std@@@0@AAV10@PAD@Z
??$?5DU?$char_traits@D@std@@@std@@YAAAV?$basic_istream@DU?$char_traits@D@std@@@0@AAV10@PAE@Z
??$?5DU?$char_traits@D@std@@M@std@@YAAAV?$basic_istream@DU?$char_traits@D@std@@@0@AAV10@AAV?$complex@M@0@@Z
??$?5DU?$char_traits@D@std@@N@std@@YAAAV?$basic_istream@DU?$char_traits@D@std@@@0@AAV10@AAV?$complex@N@0@@Z
??$?5DU?$char_traits@D@std@@O@std@@YAAAV?$basic_istream@DU?$char_traits@D@std@@@0@AAV10@AAV?$complex@O@0@@Z
??$?5DU?$char_traits@D@std@@V?$allocator@D@1@@std@@YAAAV?$basic_istream@DU?$char_traits@D@std@@@0@AAV10@AAV?$basic_string@DU?$char_traits@D@std@@V?$allocator@D@2@@0@@Z
??$?5GU?$char_traits@G@std@@@std@@YAAAV?$basic_istream@GU?$char_traits@G@std@@@0@AAV10@AAG@Z
??$?5GU?$char_traits@G@std@@@std@@YAAAV?$basic_istream@GU?$char_traits@G@std@@@0@AAV10@PAF@Z
??$?5GU?$char_traits@G@std@@@std@@YAAAV?$basic_istream@GU?$char_traits@G@std@@@0@AAV10@PAG@Z
??$?5GU?$char_traits@G@std@@M@std@@YAAAV?$basic_istream@GU?$char_traits@G@std@@@0@AAV10@AAV?$complex@M@0@@Z
??$?5GU?$char_traits@G@std@@N@std@@YAAAV?$basic_istream@GU?$char_traits@G@std@@@0@AAV10@AAV?$complex@N@0@@Z
??$?5GU?$char_traits@G@std@@O@std@@YAAAV?$basic_istream@GU?$char_traits@G@std@@@0@AAV10@AAV?$complex@O@0@@Z
??$?5GU?$char_traits@G@std@@V?$allocator@G@1@@std@@YAAAV?$basic_istream@GU?$char_traits@G@std@@@0@AAV10@AAV?$basic_string@GU?$char_traits@G@std@@V?$allocator@G@2@@0@@Z
??$?6DU?$char_traits@D@std@@@std@@YAAAV?$basic_ostream@DU?$char_traits@D@std@@@0@AAV10@C@Z
??$?6DU?$char_traits@D@std@@@std@@YAAAV?$basic_ostream@DU?$char_traits@D@std@@@0@AAV10@D@Z
??$?6DU?$char_traits@D@std@@@std@@YAAAV?$basic_ostream@DU?$char_traits@D@std@@@0@AAV10@E@Z
??$?6DU?$char_traits@D@std@@@std@@YAAAV?$basic_ostream@DU?$char_traits@D@std@@@0@AAV10@PBC@Z
??$?6DU?$char_traits@D@std@@@std@@YAAAV?$basic_ostream@DU?$char_traits@D@std@@@0@AAV10@PBD@Z
??$?6DU?$char_traits@D@std@@@std@@YAAAV?$basic_ostream@DU?$char_traits@D@std@@@0@AAV10@PBE@Z
??$?6DU?$char_traits@D@std@@M@std@@YAAAV?$basic_ostream@DU?$char_traits@D@std@@@0@AAV10@ABV?$complex@M@0@@Z
??$?6DU?$char_traits@D@std@@N@std@@YAAAV?$basic_ostream@DU?$char_traits@D@std@@@0@AAV10@ABV?$complex@N@0@@Z
??$?6DU?$char_traits@D@std@@O@std@@YAAAV?$basic_ostream@DU?$char_traits@D@std@@@0@AAV10@ABV?$complex@O@0@@Z
??$?6DU?$char_traits@D@std@@V?$allocator@D@1@@std@@YAAAV?$basic_ostream@DU?$char_traits@D@std@@@0@AAV10@ABV?$basic_string@DU?$char_traits@D@std@@V?$allocator@D@2@@0@@Z
??$?6GU?$char_traits@G@std@@@std@@YAAAV?$basic_ostream@GU?$char_traits@G@std@@@0@AAV10@G@Z
??$?6GU?$char_traits@G@std@@@std@@YAAAV?$basic_ostream@GU?$char_traits@G@std@@@0@AAV10@PBF@Z
??$?6GU?$char_traits@G@std@@@std@@YAAAV?$basic_ostream@GU?$char_traits@G@std@@@0@AAV10@PBG@Z
??$?6GU?$char_traits@G@std@@M@std@@YAAAV?$basic_ostream@GU?$char_traits@G@std@@@0@AAV10@ABV?$complex@M@0@@Z
??$?6GU?$char_traits@G@std@@N@std@@YAAAV?$basic_ostream@GU?$char_traits@G@std@@@0@AAV10@ABV?$complex@N@0@@Z
??$?6GU?$char_traits@G@std@@O@std@@YAAAV?$basic_ostream@GU?$char_traits@G@std@@@0@AAV10@ABV?$complex@O@0@@Z
??$?6GU?$char_traits@G@std@@V?$allocator@G@1@@std@@YAAAV?$basic_ostream@GU?$char_traits@G@std@@@0@AAV10@ABV?$basic_string@GU?$char_traits@G@std@@V?$allocator@G@2@@0@@Z
??$?8DU?$char_traits@D@std@@V?$allocator@D@1@@std@@YA_NABV?$basic_string@DU?$char_traits@D@std@@V?$allocator@D@2@@0@0@Z
??$?8DU?$char_traits@D@std@@V?$allocator@D@1@@std@@YA_NABV?$basic_string@DU?$char_traits@D@std@@V?$allocator@D@2@@0@PBD@Z
??$?8DU?$char_traits@D@std@@V?$allocator@D@1@@std@@YA_NPBDABV?$basic_string@DU?$char_traits@D@std@@V?$allocator@D@2@@0@@Z
??$?8GU?$char_traits@G@std@@V?$allocator@G@1@@std@@YA_NABV?$basic_string@GU?$char_traits@G@std@@V?$allocator@G@2@@0@0@Z
??$?8GU?$char_traits@G@std@@V?$allocator@G@1@@std@@YA_NABV?$basic_string@GU?$char_traits@G@std@@V?$allocator@G@2@@0@PBG@Z
??$?8GU?$char_traits@G@std@@V?$allocator@G@1@@std@@YA_NPBGABV?$basic_string@GU?$char_traits@G@std@@V?$allocator@G@2@@0@@Z
??$?8M@std@@YA_NABMABV?$complex@M@0@@Z
??$?8M@std@@YA_NABV?$complex@M@0@0@Z
??$?8M@std@@YA_NABV?$complex@M@0@ABM@Z
??$?8N@std@@YA_NABNABV?$complex@N@0@@Z
??$?8N@std@@YA_NABV?$complex@N@0@0@Z
??$?8N@std@@YA_NABV?$complex@N@0@ABN@Z
??$?8O@std@@YA_NABOABV?$complex@O@0@@Z
??$?8O@std@@YA_NABV?$complex@O@0@0@Z
??$?8O@std@@YA_NABV?$complex@O@0@ABO@Z
??$?9DU?$char_traits@D@std@@V?$allocator@D@1@@std@@YA_NABV?$basic_string@DU?$char_traits@D@std@@V?$allocator@D@2@@0@0@Z
??$?9DU?$char_traits@D@std@@V?$allocator@D@1@@std@@YA_NABV?$basic_string@DU?$char_traits@D@std@@V?$allocator@D@2@@0@PBD@Z
??$?9DU?$char_traits@D@std@@V?$allocator@D@1@@std@@YA_NPBDABV?$basic_string@DU?$char_traits@D@std@@V?$allocator@D@2@@0@@Z
??$?9GU?$char_traits@G@std@@V?$allocator@G@1@@std@@YA_NABV?$basic_string@GU?$char_traits@G@std@@V?$allocator@G@2@@0@0@Z
??$?9GU?$char_traits@G@std@@V?$allocator@G@1@@std@@YA_NABV?$basic_string@GU?$char_traits@G@std@@V?$allocator@G@2@@0@PBG@Z
??$?9GU?$char_traits@G@std@@V?$allocator@G@1@@std@@YA_NPBGABV?$basic_string@GU?$char_traits@G@std@@V?$allocator@G@2@@0@@Z
??$?9M@std@@YA_NABMABV?$complex@M@0@@Z
??$?9M@std@@YA_NABV?$complex@M@0@0@Z
??$?9M@std@@YA_NABV?$complex@M@0@ABM@Z
??$?9N@std@@YA_NABNABV?$complex@N@0@@Z
??$?9N@std@@YA_NABV?$complex@N@0@0@Z
??$?9N@std@@YA_NABV?$complex@N@0@ABN@Z
??$?9O@std@@YA_NABOABV?$complex@O@0@@Z
??$?9O@std@@YA_NABV?$complex@O@0@0@Z
??$?9O@std@@YA_NABV?$complex@O@0@ABO@Z
??$?DM@std@@YA?AV?$complex@M@0@ABMABV10@@Z
??$?DM@std@@YA?AV?$complex@M@0@ABV10@0@Z
??$?DM@std@@YA?AV?$complex@M@0@ABV10@ABM@Z
??$?DN@std@@YA?AV?$complex@N@0@ABNABV10@@Z
??$?DN@std@@YA?AV?$complex@N@0@ABV10@0@Z
??$?DN@std@@YA?AV?$complex@N@0@ABV10@ABN@Z
??$?DO@std@@YA?AV?$complex@O@0@ABOABV10@@Z
??$?DO@std@@YA?AV?$complex@O@0@ABV10@0@Z
??$?DO@std@@YA?AV?$complex@O@0@ABV10@ABO@Z
??$?GM@std@@YA?AV?$complex@M@0@ABMABV10@@Z
??$?GM@std@@YA?AV?$complex@M@0@ABV10@0@Z
??$?GM@std@@YA?AV?$complex@M@0@ABV10@@Z
??$?GM@std@@YA?AV?$complex@M@0@ABV10@ABM@Z
??$?GN@std@@YA?AV?$complex@N@0@ABNABV10@@Z
??$?GN@std@@YA?AV?$complex@N@0@ABV10@0@Z
??$?GN@std@@YA?AV?$complex@N@0@ABV10@@Z
??$?GN@std@@YA?AV?$complex@N@0@ABV10@ABN@Z
??$?GO@std@@YA?AV?$complex@O@0@ABOABV10@@Z
??$?GO@std@@YA?AV?$complex@O@0@ABV10@0@Z
??$?GO@std@@YA?AV?$complex@O@0@ABV10@@Z
??$?GO@std@@YA?AV?$complex@O@0@ABV10@ABO@Z
??$?HDU?$char_traits@D@std@@V?$allocator@D@1@@std@@YA?AV?$basic_string@DU?$char_traits@D@std@@V?$allocator@D@2@@0@ABV10@0@Z
??$?HDU?$char_traits@D@std@@V?$allocator@D@1@@std@@YA?AV?$basic_string@DU?$char_traits@D@std@@V?$allocator@D@2@@0@ABV10@D@Z
??$?HDU?$char_traits@D@std@@V?$allocator@D@1@@std@@YA?AV?$basic_string@DU?$char_traits@D@std@@V?$allocator@D@2@@0@ABV10@PBD@Z
??$?HDU?$char_traits@D@std@@V?$allocator@D@1@@std@@YA?AV?$basic_string@DU?$char_traits@D@std@@V?$allocator@D@2@@0@DABV10@@Z
??$?HDU?$char_traits@D@std@@V?$allocator@D@1@@std@@YA?AV?$basic_string@DU?$char_traits@D@std@@V?$allocator@D@2@@0@PBDABV10@@Z
??$?HGU?$char_traits@G@std@@V?$allocator@G@1@@std@@YA?AV?$basic_string@GU?$char_traits@G@std@@V?$allocator@G@2@@0@ABV10@0@Z
??$?HGU?$char_traits@G@std@@V?$allocator@G@1@@std@@YA?AV?$basic_string@GU?$char_traits@G@std@@V?$allocator@G@2@@0@ABV10@G@Z
??$?HGU?$char_traits@G@std@@V?$allocator@G@1@@std@@YA?AV?$basic_string@GU?$char_traits@G@std@@V?$allocator@G@2@@0@ABV10@PBG@Z
??$?HGU?$char_traits@G@std@@V?$allocator@G@1@@std@@YA?AV?$basic_string@GU?$char_traits@G@std@@V?$allocator@G@2@@0@GABV10@@Z
??$?HGU?$char_traits@G@std@@V?$allocator@G@1@@std@@YA?AV?$basic_string@GU?$char_traits@G@std@@V?$allocator@G@2@@0@PBGABV10@@Z
??$?HM@std@@YA?AV?$complex@M@0@ABMABV10@@Z
??$?HM@std@@YA?AV?$complex@M@0@ABV10@0@Z
??$?HM@std@@YA?AV?$complex@M@0@ABV10@@Z
??$?HM@std@@YA?AV?$complex@M@0@ABV10@ABM@Z
??$?HN@std@@YA?AV?$complex@N@0@ABNABV10@@Z
??$?HN@std@@YA?AV?$complex@N@0@ABV10@0@Z
??$?HN@std@@YA?AV?$complex@N@0@ABV10@@Z
??$?HN@std@@YA?AV?$complex@N@0@ABV10@ABN@Z
??$?HO@std@@YA?AV?$complex@O@0@ABOABV10@@Z
??$?HO@std@@YA?AV?$complex@O@0@ABV10@0@Z
??$?HO@std@@YA?AV?$complex@O@0@ABV10@@Z
??$?HO@std@@YA?AV?$complex@O@0@ABV10@ABO@Z
??$?KM@std@@YA?AV?$complex@M@0@ABMABV10@@Z
??$?KM@std@@YA?AV?$complex@M@0@ABV10@0@Z
??$?KM@std@@YA?AV?$complex@M@0@ABV10@ABM@Z
??$?KN@std@@YA?AV?$complex@N@0@ABNABV10@@Z
??$?KN@std@@YA?AV?$complex@N@0@ABV10@0@Z
??$?KN@std@@YA?AV?$complex@N@0@ABV10@ABN@Z
??$?KO@std@@YA?AV?$complex@O@0@ABOABV10@@Z
??$?KO@std@@YA?AV?$complex@O@0@ABV10@0@Z
??$?KO@std@@YA?AV?$complex@O@0@ABV10@ABO@Z
??$?MDU?$char_traits@D@std@@V?$allocator@D@1@@std@@YA_NABV?$basic_string@DU?$char_traits@D@std@@V?$allocator@D@2@@0@0@Z
??$?MDU?$char_traits@D@std@@V?$allocator@D@1@@std@@YA_NABV?$basic_string@DU?$char_traits@D@std@@V?$allocator@D@2@@0@PBD@Z
??$?MDU?$char_traits@D@std@@V?$allocator@D@1@@std@@YA_NPBDABV?$basic_string@DU?$char_traits@D@std@@V?$allocator@D@2@@0@@Z
??$?MGU?$char_traits@G@std@@V?$allocator@G@1@@std@@YA_NABV?$basic_string@GU?$char_traits@G@std@@V?$allocator@G@2@@0@0@Z
??$?MGU?$char_traits@G@std@@V?$allocator@G@1@@std@@YA_NABV?$basic_string@GU?$char_traits@G@std@@V?$allocator@G@2@@0@PBG@Z
??$?MGU?$char_traits@G@std@@V?$allocator@G@1@@std@@YA_NPBGABV?$basic_string@GU?$char_traits@G@std@@V?$allocator@G@2@@0@@Z
??$?NDU?$char_traits@D@std@@V?$allocator@D@1@@std@@YA_NABV?$basic_string@DU?$char_traits@D@std@@V?$allocator@D@2@@0@0@Z
??$?NDU?$char_traits@D@std@@V?$allocator@D@1@@std@@YA_NABV?$basic_string@DU?$char_traits@D@std@@V?$allocator@D@2@@0@PBD@Z
??$?NDU?$char_traits@D@std@@V?$allocator@D@1@@std@@YA_NPBDABV?$basic_string@DU?$char_traits@D@std@@V?$allocator@D@2@@0@@Z
??$?NGU?$char_traits@G@std@@V?$allocator@G@1@@std@@YA_NABV?$basic_string@GU?$char_traits@G@std@@V?$allocator@G@2@@0@0@Z
??$?NGU?$char_traits@G@std@@V?$allocator@G@1@@std@@YA_NABV?$basic_string@GU?$char_traits@G@std@@V?$allocator@G@2@@0@PBG@Z
??$?NGU?$char_traits@G@std@@V?$allocator@G@1@@std@@YA_NPBGABV?$basic_string@GU?$char_traits@G@std@@V?$allocator@G@2@@0@@Z
??$?ODU?$char_traits@D@std@@V?$allocator@D@1@@std@@YA_NABV?$basic_string@DU?$char_traits@D@std@@V?$allocator@D@2@@0@0@Z
??$?ODU?$char_traits@D@std@@V?$allocator@D@1@@std@@YA_NABV?$basic_string@DU?$char_traits@D@std@@V?$allocator@D@2@@0@PBD@Z
??$?ODU?$char_traits@D@std@@V?$allocator@D@1@@std@@YA_NPBDABV?$basic_string@DU?$char_traits@D@std@@V?$allocator@D@2@@0@@Z
??$?OGU?$char_traits@G@std@@V?$allocator@G@1@@std@@YA_NABV?$basic_string@GU?$char_traits@G@std@@V?$allocator@G@2@@0@0@Z
??$?OGU?$char_traits@G@std@@V?$allocator@G@1@@std@@YA_NABV?$basic_string@GU?$char_traits@G@std@@V?$allocator@G@2@@0@PBG@Z
??$?OGU?$char_traits@G@std@@V?$allocator@G@1@@std@@YA_NPBGABV?$basic_string@GU?$char_traits@G@std@@V?$allocator@G@2@@0@@Z
??$?PDU?$char_traits@D@std@@V?$allocator@D@1@@std@@YA_NABV?$basic_string@DU?$char_traits@D@std@@V?$allocator@D@2@@0@0@Z
??$?PDU?$char_traits@D@std@@V?$allocator@D@1@@std@@YA_NABV?$basic_string@DU?$char_traits@D@std@@V?$allocator@D@2@@0@PBD@Z
??$?PDU?$char_traits@D@std@@V?$allocator@D@1@@std@@YA_NPBDABV?$basic_string@DU?$char_traits@D@std@@V?$allocator@D@2@@0@@Z
??$?PGU?$char_traits@G@std@@V?$allocator@G@1@@std@@YA_NABV?$basic_string@GU?$char_traits@G@std@@V?$allocator@G@2@@0@0@Z
??$?PGU?$char_traits@G@std@@V?$allocator@G@1@@std@@YA_NABV?$basic_string@GU?$char_traits@G@std@@V?$allocator@G@2@@0@PBG@Z
??$?PGU?$char_traits@G@std@@V?$allocator@G@1@@std@@YA_NPBGABV?$basic_string@GU?$char_traits@G@std@@V?$allocator@G@2@@0@@Z
??$?XMM@std@@YAAAV?$complex@M@0@AAV10@ABV10@@Z
??$?XNN@std@@YAAAV?$complex@N@0@AAV10@ABV10@@Z
??$?XOO@std@@YAAAV?$complex@O@0@AAV10@ABV10@@Z
??$?YMM@std@@YAAAV?$complex@M@0@AAV10@ABV10@@Z
??$?YNN@std@@YAAAV?$complex@N@0@AAV10@ABV10@@Z
??$?YOO@std@@YAAAV?$complex@O@0@AAV10@ABV10@@Z
??$?ZMM@std@@YAAAV?$complex@M@0@AAV10@ABV10@@Z
??$?ZNN@std@@YAAAV?$complex@N@0@AAV10@ABV10@@Z
??$?ZOO@std@@YAAAV?$complex@O@0@AAV10@ABV10@@Z
??$?_0MM@std@@YAAAV?$complex@M@0@AAV10@ABV10@@Z
??$?_0NN@std@@YAAAV?$complex@N@0@AAV10@ABV10@@Z
??$?_0OO@std@@YAAAV?$complex@O@0@AAV10@ABV10@@Z
??$_Fabs@M@std@@YAMABV?$complex@M@0@PAH@Z
??$_Fabs@N@std@@YANABV?$complex@N@0@PAH@Z
??$_Fabs@O@std@@YAOABV?$complex@O@0@PAH@Z
??$abs@M@std@@YAMABV?$complex@M@0@@Z
??$abs@N@std@@YANABV?$complex@N@0@@Z
??$abs@O@std@@YAOABV?$complex@O@0@@Z
??$arg@M@std@@YAMABV?$complex@M@0@@Z
??$arg@N@std@@YANABV?$complex@N@0@@Z
??$arg@O@std@@YAOABV?$complex@O@0@@Z
??$conj@M@std@@YA?AV?$complex@M@0@ABV10@@Z
??$conj@N@std@@YA?AV?$complex@N@0@ABV10@@Z
??$conj@O@std@@YA?AV?$complex@O@0@ABV10@@Z
??$cos@M@std@@YA?AV?$complex@M@0@ABV10@@Z
??$cos@N@std@@YA?AV?$complex@N@0@ABV10@@Z
??$cos@O@std@@YA?AV?$complex@O@0@ABV10@@Z
??$cosh@M@std@@YA?AV?$complex@M@0@ABV10@@Z
??$cosh@N@std@@YA?AV?$complex@N@0@ABV10@@Z
??$cosh@O@std@@YA?AV?$complex@O@0@ABV10@@Z
??$exp@M@std@@YA?AV?$complex@M@0@ABV10@@Z
??$exp@N@std@@YA?AV?$complex@N@0@ABV10@@Z
??$exp@O@std@@YA?AV?$complex@O@0@ABV10@@Z
??$getline@DU?$char_traits@D@std@@V?$allocator@D@2@@std@@YAAAV?$basic_istream@DU?$char_traits@D@std@@@0@AAV10@AAV?$basic_string@DU?$char_traits@D@std@@V?$allocator@D@2@@0@@Z
??$getline@DU?$char_traits@D@std@@V?$allocator@D@2@@std@@YAAAV?$basic_istream@DU?$char_traits@D@std@@@0@AAV10@AAV?$basic_string@DU?$char_traits@D@std@@V?$allocator@D@2@@0@D@Z
??$getline@GU?$char_traits@G@std@@V?$allocator@G@2@@std@@YAAAV?$basic_istream@GU?$char_traits@G@std@@@0@AAV10@AAV?$basic_string@GU?$char_traits@G@std@@V?$allocator@G@2@@0@@Z
??$getline@GU?$char_traits@G@std@@V?$allocator@G@2@@std@@YAAAV?$basic_istream@GU?$char_traits@G@std@@@0@AAV10@AAV?$basic_string@GU?$char_traits@G@std@@V?$allocator@G@2@@0@G@Z
??$imag@M@std@@YAMABV?$complex@M@0@@Z
??$imag@N@std@@YANABV?$complex@N@0@@Z
??$imag@O@std@@YAOABV?$complex@O@0@@Z
??$log10@M@std@@YA?AV?$complex@M@0@ABV10@@Z
??$log10@N@std@@YA?AV?$complex@N@0@ABV10@@Z
??$log10@O@std@@YA?AV?$complex@O@0@ABV10@@Z
??$log@M@std@@YA?AV?$complex@M@0@ABV10@@Z
??$log@N@std@@YA?AV?$complex@N@0@ABV10@@Z
??$log@O@std@@YA?AV?$complex@O@0@ABV10@@Z
??$norm@M@std@@YAMABV?$complex@M@0@@Z
??$norm@N@std@@YANABV?$complex@N@0@@Z
??$norm@O@std@@YAOABV?$complex@O@0@@Z
??$polar@M@std@@YA?AV?$complex@M@0@ABM0@Z
??$polar@M@std@@YA?AV?$complex@M@0@ABM@Z
??$polar@N@std@@YA?AV?$complex@N@0@ABN0@Z
??$polar@N@std@@YA?AV?$complex@N@0@ABN@Z
??$polar@O@std@@YA?AV?$complex@O@0@ABO0@Z
??$polar@O@std@@YA?AV?$complex@O@0@ABO@Z
??$pow@M@std@@YA?AV?$complex@M@0@ABMABV10@@Z
??$pow@M@std@@YA?AV?$complex@M@0@ABV10@0@Z
??$pow@M@std@@YA?AV?$complex@M@0@ABV10@ABM@Z
??$pow@M@std@@YA?AV?$complex@M@0@ABV10@H@Z
??$pow@N@std@@YA?AV?$complex@N@0@ABNABV10@@Z
??$pow@N@std@@YA?AV?$complex@N@0@ABV10@0@Z
??$pow@N@std@@YA?AV?$complex@N@0@ABV10@ABN@Z
??$pow@N@std@@YA?AV?$complex@N@0@ABV10@H@Z
??$pow@O@std@@YA?AV?$complex@O@0@ABOABV10@@Z
??$pow@O@std@@YA?AV?$complex@O@0@ABV10@0@Z
??$pow@O@std@@YA?AV?$complex@O@0@ABV10@ABO@Z
??$pow@O@std@@YA?AV?$complex@O@0@ABV10@H@Z
??$real@M@std@@YAMABV?$complex@M@0@@Z
??$real@N@std@@YANABV?$complex@N@0@@Z
??$real@O@std@@YAOABV?$complex@O@0@@Z
??$sin@M@std@@YA?AV?$complex@M@0@ABV10@@Z
??$sin@N@std@@YA?AV?$complex@N@0@ABV10@@Z
??$sin@O@std@@YA?AV?$complex@O@0@ABV10@@Z
??$sinh@M@std@@YA?AV?$complex@M@0@ABV10@@Z
??$sinh@N@std@@YA?AV?$complex@N@0@ABV10@@Z
??$sinh@O@std@@YA?AV?$complex@O@0@ABV10@@Z
??$sqrt@M@std@@YA?AV?$complex@M@0@ABV10@@Z
??$sqrt@N@std@@YA?AV?$complex@N@0@ABV10@@Z
??$sqrt@O@std@@YA?AV?$complex@O@0@ABV10@@Z
??0?$_Complex_base@M@std@@QAA@ABM0@Z
??0?$_Complex_base@N@std@@QAA@ABN0@Z
??0?$_Complex_base@O@std@@QAA@ABO0@Z
??0?$_Mpunct@D@std@@QAA@ABV_Locinfo@1@I_N@Z
??0?$_Mpunct@D@std@@QAA@I_N@Z
??0?$_Mpunct@G@std@@QAA@ABV_Locinfo@1@I_N@Z
??0?$_Mpunct@G@std@@QAA@I_N@Z
??0?$basic_filebuf@DU?$char_traits@D@std@@@std@@QAA@ABV01@@Z
??0?$basic_filebuf@DU?$char_traits@D@std@@@std@@QAA@PAU_iobuf@@@Z
??0?$basic_filebuf@DU?$char_traits@D@std@@@std@@QAA@W4_Uninitialized@1@@Z
??0?$basic_filebuf@GU?$char_traits@G@std@@@std@@QAA@ABV01@@Z
??0?$basic_filebuf@GU?$char_traits@G@std@@@std@@QAA@PAU_iobuf@@@Z
??0?$basic_filebuf@GU?$char_traits@G@std@@@std@@QAA@W4_Uninitialized@1@@Z
??0?$basic_fstream@DU?$char_traits@D@std@@@std@@QAA@ABV01@@Z
??0?$basic_fstream@DU?$char_traits@D@std@@@std@@QAA@PBDH@Z
??0?$basic_fstream@DU?$char_traits@D@std@@@std@@QAA@XZ
??0?$basic_fstream@GU?$char_traits@G@std@@@std@@QAA@ABV01@@Z
??0?$basic_fstream@GU?$char_traits@G@std@@@std@@QAA@PBDH@Z
??0?$basic_fstream@GU?$char_traits@G@std@@@std@@QAA@XZ
??0?$basic_ifstream@DU?$char_traits@D@std@@@std@@QAA@ABV01@@Z
??0?$basic_ifstream@DU?$char_traits@D@std@@@std@@QAA@PBDH@Z
??0?$basic_ifstream@DU?$char_traits@D@std@@@std@@QAA@XZ
??0?$basic_ifstream@GU?$char_traits@G@std@@@std@@QAA@ABV01@@Z
??0?$basic_ifstream@GU?$char_traits@G@std@@@std@@QAA@PBDH@Z
??0?$basic_ifstream@GU?$char_traits@G@std@@@std@@QAA@XZ
??0?$basic_ios@DU?$char_traits@D@std@@@std@@IAA@XZ
??0?$basic_ios@DU?$char_traits@D@std@@@std@@QAA@ABV01@@Z
??0?$basic_ios@DU?$char_traits@D@std@@@std@@QAA@PAV?$basic_streambuf@DU?$char_traits@D@std@@@1@@Z
??0?$basic_ios@GU?$char_traits@G@std@@@std@@IAA@XZ
??0?$basic_ios@GU?$char_traits@G@std@@@std@@QAA@ABV01@@Z
??0?$basic_ios@GU?$char_traits@G@std@@@std@@QAA@PAV?$basic_streambuf@GU?$char_traits@G@std@@@1@@Z
??0?$basic_iostream@DU?$char_traits@D@std@@@std@@QAA@ABV01@@Z
??0?$basic_iostream@DU?$char_traits@D@std@@@std@@QAA@PAV?$basic_streambuf@DU?$char_traits@D@std@@@1@@Z
??0?$basic_iostream@GU?$char_traits@G@std@@@std@@QAA@ABV01@@Z
??0?$basic_iostream@GU?$char_traits@G@std@@@std@@QAA@PAV?$basic_streambuf@GU?$char_traits@G@std@@@1@@Z
??0?$basic_istream@DU?$char_traits@D@std@@@std@@QAA@ABV01@@Z
??0?$basic_istream@DU?$char_traits@D@std@@@std@@QAA@PAV?$basic_streambuf@DU?$char_traits@D@std@@@1@_N@Z
??0?$basic_istream@DU?$char_traits@D@std@@@std@@QAA@W4_Uninitialized@1@@Z
??0?$basic_istream@GU?$char_traits@G@std@@@std@@QAA@ABV01@@Z
??0?$basic_istream@GU?$char_traits@G@std@@@std@@QAA@PAV?$basic_streambuf@GU?$char_traits@G@std@@@1@_N@Z
??0?$basic_istream@GU?$char_traits@G@std@@@std@@QAA@W4_Uninitialized@1@@Z
??0?$basic_istringstream@DU?$char_traits@D@std@@V?$allocator@D@2@@std@@QAA@ABV01@@Z
??0?$basic_istringstream@DU?$char_traits@D@std@@V?$allocator@D@2@@std@@QAA@ABV?$basic_string@DU?$char_traits@D@std@@V?$allocator@D@2@@1@H@Z
??0?$basic_istringstream@DU?$char_traits@D@std@@V?$allocator@D@2@@std@@QAA@H@Z
??0?$basic_istringstream@GU?$char_traits@G@std@@V?$allocator@G@2@@std@@QAA@ABV01@@Z
??0?$basic_istringstream@GU?$char_traits@G@std@@V?$allocator@G@2@@std@@QAA@ABV?$basic_string@GU?$char_traits@G@std@@V?$allocator@G@2@@1@H@Z
??0?$basic_istringstream@GU?$char_traits@G@std@@V?$allocator@G@2@@std@@QAA@H@Z
??0?$basic_ofstream@DU?$char_traits@D@std@@@std@@QAA@ABV01@@Z
??0?$basic_ofstream@DU?$char_traits@D@std@@@std@@QAA@PBDH@Z
??0?$basic_ofstream@DU?$char_traits@D@std@@@std@@QAA@XZ
??0?$basic_ofstream@GU?$char_traits@G@std@@@std@@QAA@ABV01@@Z
??0?$basic_ofstream@GU?$char_traits@G@std@@@std@@QAA@PBDH@Z
??0?$basic_ofstream@GU?$char_traits@G@std@@@std@@QAA@XZ
??0?$basic_ostream@DU?$char_traits@D@std@@@std@@QAA@ABV01@@Z
??0?$basic_ostream@DU?$char_traits@D@std@@@std@@QAA@PAV?$basic_streambuf@DU?$char_traits@D@std@@@1@_N1@Z
??0?$basic_ostream@DU?$char_traits@D@std@@@std@@QAA@W4_Uninitialized@1@@Z
??0?$basic_ostream@GU?$char_traits@G@std@@@std@@QAA@ABV01@@Z
??0?$basic_ostream@GU?$char_traits@G@std@@@std@@QAA@PAV?$basic_streambuf@GU?$char_traits@G@std@@@1@_N1@Z
??0?$basic_ostream@GU?$char_traits@G@std@@@std@@QAA@W4_Uninitialized@1@@Z
??0?$basic_ostringstream@DU?$char_traits@D@std@@V?$allocator@D@2@@std@@QAA@ABV01@@Z
??0?$basic_ostringstream@DU?$char_traits@D@std@@V?$allocator@D@2@@std@@QAA@ABV?$basic_string@DU?$char_traits@D@std@@V?$allocator@D@2@@1@H@Z
??0?$basic_ostringstream@DU?$char_traits@D@std@@V?$allocator@D@2@@std@@QAA@H@Z
??0?$basic_ostringstream@GU?$char_traits@G@std@@V?$allocator@G@2@@std@@QAA@ABV01@@Z
??0?$basic_ostringstream@GU?$char_traits@G@std@@V?$allocator@G@2@@std@@QAA@ABV?$basic_string@GU?$char_traits@G@std@@V?$allocator@G@2@@1@H@Z
??0?$basic_ostringstream@GU?$char_traits@G@std@@V?$allocator@G@2@@std@@QAA@H@Z
??0?$basic_streambuf@DU?$char_traits@D@std@@@std@@IAA@W4_Uninitialized@1@@Z
??0?$basic_streambuf@DU?$char_traits@D@std@@@std@@IAA@XZ
??0?$basic_streambuf@DU?$char_traits@D@std@@@std@@QAA@ABV01@@Z
??0?$basic_streambuf@GU?$char_traits@G@std@@@std@@IAA@W4_Uninitialized@1@@Z
??0?$basic_streambuf@GU?$char_traits@G@std@@@std@@IAA@XZ
??0?$basic_streambuf@GU?$char_traits@G@std@@@std@@QAA@ABV01@@Z
??0?$basic_string@DU?$char_traits@D@std@@V?$allocator@D@2@@std@@QAA@ABV01@@Z
??0?$basic_string@DU?$char_traits@D@std@@V?$allocator@D@2@@std@@QAA@ABV01@IIABV?$allocator@D@1@@Z
??0?$basic_string@DU?$char_traits@D@std@@V?$allocator@D@2@@std@@QAA@ABV?$allocator@D@1@@Z
??0?$basic_string@DU?$char_traits@D@std@@V?$allocator@D@2@@std@@QAA@IDABV?$allocator@D@1@@Z
??0?$basic_string@DU?$char_traits@D@std@@V?$allocator@D@2@@std@@QAA@PBD0ABV?$allocator@D@1@@Z
??0?$basic_string@DU?$char_traits@D@std@@V?$allocator@D@2@@std@@QAA@PBDABV?$allocator@D@1@@Z
??0?$basic_string@DU?$char_traits@D@std@@V?$allocator@D@2@@std@@QAA@PBDIABV?$allocator@D@1@@Z
??0?$basic_string@GU?$char_traits@G@std@@V?$allocator@G@2@@std@@QAA@ABV01@@Z
??0?$basic_string@GU?$char_traits@G@std@@V?$allocator@G@2@@std@@QAA@ABV01@IIABV?$allocator@G@1@@Z
??0?$basic_string@GU?$char_traits@G@std@@V?$allocator@G@2@@std@@QAA@ABV?$allocator@G@1@@Z
??0?$basic_string@GU?$char_traits@G@std@@V?$allocator@G@2@@std@@QAA@IGABV?$allocator@G@1@@Z
??0?$basic_string@GU?$char_traits@G@std@@V?$allocator@G@2@@std@@QAA@PBG0ABV?$allocator@G@1@@Z
??0?$basic_string@GU?$char_traits@G@std@@V?$allocator@G@2@@std@@QAA@PBGABV?$allocator@G@1@@Z
??0?$basic_string@GU?$char_traits@G@std@@V?$allocator@G@2@@std@@QAA@PBGIABV?$allocator@G@1@@Z
??0?$basic_stringbuf@DU?$char_traits@D@std@@V?$allocator@D@2@@std@@QAA@ABV01@@Z
??0?$basic_stringbuf@DU?$char_traits@D@std@@V?$allocator@D@2@@std@@QAA@ABV?$basic_string@DU?$char_traits@D@std@@V?$allocator@D@2@@1@H@Z
??0?$basic_stringbuf@DU?$char_traits@D@std@@V?$allocator@D@2@@std@@QAA@H@Z
??0?$basic_stringbuf@GU?$char_traits@G@std@@V?$allocator@G@2@@std@@QAA@ABV01@@Z
??0?$basic_stringbuf@GU?$char_traits@G@std@@V?$allocator@G@2@@std@@QAA@ABV?$basic_string@GU?$char_traits@G@std@@V?$allocator@G@2@@1@H@Z
??0?$basic_stringbuf@GU?$char_traits@G@std@@V?$allocator@G@2@@std@@QAA@H@Z
??0?$basic_stringstream@DU?$char_traits@D@std@@V?$allocator@D@2@@std@@QAA@ABV01@@Z
??0?$basic_stringstream@DU?$char_traits@D@std@@V?$allocator@D@2@@std@@QAA@ABV?$basic_string@DU?$char_traits@D@std@@V?$allocator@D@2@@1@H@Z
??0?$basic_stringstream@DU?$char_traits@D@std@@V?$allocator@D@2@@std@@QAA@H@Z
??0?$basic_stringstream@GU?$char_traits@G@std@@V?$allocator@G@2@@std@@QAA@ABV01@@Z
??0?$basic_stringstream@GU?$char_traits@G@std@@V?$allocator@G@2@@std@@QAA@ABV?$basic_string@GU?$char_traits@G@std@@V?$allocator@G@2@@1@H@Z
??0?$basic_stringstream@GU?$char_traits@G@std@@V?$allocator@G@2@@std@@QAA@H@Z
??0?$codecvt@DDH@std@@QAA@ABV_Locinfo@1@I@Z
??0?$codecvt@DDH@std@@QAA@I@Z
??0?$codecvt@GDH@std@@QAA@ABV_Locinfo@1@I@Z
??0?$codecvt@GDH@std@@QAA@I@Z
??0?$collate@D@std@@QAA@ABV_Locinfo@1@I@Z
??0?$collate@D@std@@QAA@I@Z
??0?$collate@G@std@@QAA@ABV_Locinfo@1@I@Z
??0?$collate@G@std@@QAA@I@Z
??0?$complex@M@std@@QAA@ABM0@Z
??0?$complex@M@std@@QAA@ABV?$complex@N@1@@Z
??0?$complex@M@std@@QAA@ABV?$complex@O@1@@Z
??0?$complex@N@std@@QAA@ABN0@Z
??0?$complex@N@std@@QAA@ABV?$complex@M@1@@Z
??0?$complex@N@std@@QAA@ABV?$complex@O@1@@Z
??0?$complex@O@std@@QAA@ABO0@Z
??0?$complex@O@std@@QAA@ABV?$complex@M@1@@Z
??0?$complex@O@std@@QAA@ABV?$complex@N@1@@Z
??0?$ctype@D@std@@QAA@ABV_Locinfo@1@I@Z
??0?$ctype@D@std@@QAA@PBF_NI@Z
??0?$ctype@G@std@@QAA@ABV_Locinfo@1@I@Z
??0?$ctype@G@std@@QAA@I@Z
??0?$messages@D@std@@QAA@ABV_Locinfo@1@I@Z
??0?$messages@D@std@@QAA@I@Z
??0?$messages@G@std@@QAA@ABV_Locinfo@1@I@Z
??0?$messages@G@std@@QAA@I@Z
??0?$money_get@DV?$istreambuf_iterator@DU?$char_traits@D@std@@@std@@@std@@QAA@ABV_Locinfo@1@I@Z
??0?$money_get@DV?$istreambuf_iterator@DU?$char_traits@D@std@@@std@@@std@@QAA@I@Z
??0?$money_get@GV?$istreambuf_iterator@GU?$char_traits@G@std@@@std@@@std@@QAA@ABV_Locinfo@1@I@Z
??0?$money_get@GV?$istreambuf_iterator@GU?$char_traits@G@std@@@std@@@std@@QAA@I@Z
??0?$money_put@DV?$ostreambuf_iterator@DU?$char_traits@D@std@@@std@@@std@@QAA@ABV_Locinfo@1@I@Z
??0?$money_put@DV?$ostreambuf_iterator@DU?$char_traits@D@std@@@std@@@std@@QAA@I@Z
??0?$money_put@GV?$ostreambuf_iterator@GU?$char_traits@G@std@@@std@@@std@@QAA@ABV_Locinfo@1@I@Z
??0?$money_put@GV?$ostreambuf_iterator@GU?$char_traits@G@std@@@std@@@std@@QAA@I@Z
??0?$moneypunct@D$00@std@@QAA@ABV_Locinfo@1@I@Z
??0?$moneypunct@D$00@std@@QAA@I@Z
??0?$moneypunct@D$0A@@std@@QAA@ABV_Locinfo@1@I@Z
??0?$moneypunct@D$0A@@std@@QAA@I@Z
??0?$moneypunct@G$00@std@@QAA@ABV_Locinfo@1@I@Z
??0?$moneypunct@G$00@std@@QAA@I@Z
??0?$moneypunct@G$0A@@std@@QAA@ABV_Locinfo@1@I@Z
??0?$moneypunct@G$0A@@std@@QAA@I@Z
??0?$num_get@DV?$istreambuf_iterator@DU?$char_traits@D@std@@@std@@@std@@QAA@ABV_Locinfo@1@I@Z
??0?$num_get@DV?$istreambuf_iterator@DU?$char_traits@D@std@@@std@@@std@@QAA@I@Z
??0?$num_get@GV?$istreambuf_iterator@GU?$char_traits@G@std@@@std@@@std@@QAA@ABV_Locinfo@1@I@Z
??0?$num_get@GV?$istreambuf_iterator@GU?$char_traits@G@std@@@std@@@std@@QAA@I@Z
??0?$num_put@DV?$ostreambuf_iterator@DU?$char_traits@D@std@@@std@@@std@@QAA@ABV_Locinfo@1@I@Z
??0?$num_put@DV?$ostreambuf_iterator@DU?$char_traits@D@std@@@std@@@std@@QAA@I@Z
??0?$num_put@GV?$ostreambuf_iterator@GU?$char_traits@G@std@@@std@@@std@@QAA@ABV_Locinfo@1@I@Z
??0?$num_put@GV?$ostreambuf_iterator@GU?$char_traits@G@std@@@std@@@std@@QAA@I@Z
??0?$numpunct@D@std@@QAA@ABV_Locinfo@1@I@Z
??0?$numpunct@D@std@@QAA@I@Z
??0?$numpunct@G@std@@QAA@ABV_Locinfo@1@I@Z
??0?$numpunct@G@std@@QAA@I@Z
??0?$time_get@DV?$istreambuf_iterator@DU?$char_traits@D@std@@@std@@@std@@QAA@ABV_Locinfo@1@I@Z
??0?$time_get@DV?$istreambuf_iterator@DU?$char_traits@D@std@@@std@@@std@@QAA@I@Z
??0?$time_get@GV?$istreambuf_iterator@GU?$char_traits@G@std@@@std@@@std@@QAA@ABV_Locinfo@1@I@Z
??0?$time_get@GV?$istreambuf_iterator@GU?$char_traits@G@std@@@std@@@std@@QAA@I@Z
??0?$time_put@DV?$ostreambuf_iterator@DU?$char_traits@D@std@@@std@@@std@@QAA@ABV_Locinfo@1@I@Z
??0?$time_put@DV?$ostreambuf_iterator@DU?$char_traits@D@std@@@std@@@std@@QAA@I@Z
??0?$time_put@GV?$ostreambuf_iterator@GU?$char_traits@G@std@@@std@@@std@@QAA@ABV_Locinfo@1@I@Z
??0?$time_put@GV?$ostreambuf_iterator@GU?$char_traits@G@std@@@std@@@std@@QAA@I@Z
??0Init@ios_base@std@@QAA@XZ
??0_Locinfo@std@@QAA@ABV01@@Z
??0_Locinfo@std@@QAA@HPBD@Z
??0_Locinfo@std@@QAA@PBD@Z
??0_Lockit@std@@QAA@XZ
??0_Timevec@std@@QAA@ABV01@@Z
??0_Timevec@std@@QAA@PAX@Z
??0_Winit@std@@QAA@XZ
??0__non_rtti_object@std@@QAA@ABV01@@Z
??0__non_rtti_object@std@@QAA@PBD@Z
??0bad_alloc@std@@QAA@ABV01@@Z
??0bad_alloc@std@@QAA@PBD@Z
??0bad_alloc@std@@QAA@XZ
??0bad_cast@std@@QAA@ABV01@@Z
??0bad_cast@std@@QAA@PBD@Z
??0bad_exception@std@@QAA@ABV01@@Z
??0bad_exception@std@@QAA@PBD@Z
??0bad_typeid@std@@QAA@ABV01@@Z
??0bad_typeid@std@@QAA@PBD@Z
??0codecvt_base@std@@QAA@I@Z
??0ctype_base@std@@QAA@I@Z
??0domain_error@std@@QAA@ABV01@@Z
??0domain_error@std@@QAA@ABV?$basic_string@DU?$char_traits@D@std@@V?$allocator@D@2@@1@@Z
??0facet@locale@std@@IAA@I@Z
??0ios_base@std@@IAA@XZ
??0ios_base@std@@QAA@ABV01@@Z
??0length_error@std@@QAA@ABV01@@Z
??0length_error@std@@QAA@ABV?$basic_string@DU?$char_traits@D@std@@V?$allocator@D@2@@1@@Z
??0locale@std@@AAA@PAV_Locimp@01@@Z
??0locale@std@@QAA@ABV01@0H@Z
??0locale@std@@QAA@ABV01@@Z
??0locale@std@@QAA@ABV01@PBDH@Z
??0locale@std@@QAA@PBDH@Z
??0locale@std@@QAA@W4_Uninitialized@1@@Z
??0locale@std@@QAA@XZ
??0logic_error@std@@QAA@ABV01@@Z
??0logic_error@std@@QAA@ABV?$basic_string@DU?$char_traits@D@std@@V?$allocator@D@2@@1@@Z
??0messages_base@std@@QAA@I@Z
??0money_base@std@@QAA@I@Z
??0ostrstream@std@@QAA@PADHH@Z
??0out_of_range@std@@QAA@ABV01@@Z
??0out_of_range@std@@QAA@ABV?$basic_string@DU?$char_traits@D@std@@V?$allocator@D@2@@1@@Z
??0overflow_error@std@@QAA@ABV01@@Z
??0overflow_error@std@@QAA@ABV?$basic_string@DU?$char_traits@D@std@@V?$allocator@D@2@@1@@Z
??0range_error@std@@QAA@ABV01@@Z
??0range_error@std@@QAA@ABV?$basic_string@DU?$char_traits@D@std@@V?$allocator@D@2@@1@@Z
??0runtime_error@std@@QAA@ABV01@@Z
??0runtime_error@std@@QAA@ABV?$basic_string@DU?$char_traits@D@std@@V?$allocator@D@2@@1@@Z
??0strstream@std@@QAA@PADHH@Z
??0time_base@std@@QAA@I@Z
??0underflow_error@std@@QAA@ABV01@@Z
??0underflow_error@std@@QAA@ABV?$basic_string@DU?$char_traits@D@std@@V?$allocator@D@2@@1@@Z
??1?$_Mpunct@D@std@@UAA@XZ
??1?$_Mpunct@G@std@@UAA@XZ
??1?$basic_filebuf@DU?$char_traits@D@std@@@std@@UAA@XZ
??1?$basic_filebuf@GU?$char_traits@G@std@@@std@@UAA@XZ
??1?$basic_fstream@DU?$char_traits@D@std@@@std@@UAA@XZ
??1?$basic_fstream@GU?$char_traits@G@std@@@std@@UAA@XZ
??1?$basic_ifstream@DU?$char_traits@D@std@@@std@@UAA@XZ
??1?$basic_ifstream@GU?$char_traits@G@std@@@std@@UAA@XZ
??1?$basic_ios@DU?$char_traits@D@std@@@std@@UAA@XZ
??1?$basic_ios@GU?$char_traits@G@std@@@std@@UAA@XZ
??1?$basic_iostream@DU?$char_traits@D@std@@@std@@UAA@XZ
??1?$basic_iostream@GU?$char_traits@G@std@@@std@@UAA@XZ
??1?$basic_istream@DU?$char_traits@D@std@@@std@@UAA@XZ
??1?$basic_istream@GU?$char_traits@G@std@@@std@@UAA@XZ
??1?$basic_istringstream@DU?$char_traits@D@std@@V?$allocator@D@2@@std@@UAA@XZ
??1?$basic_istringstream@GU?$char_traits@G@std@@V?$allocator@G@2@@std@@UAA@XZ
??1?$basic_ofstream@DU?$char_traits@D@std@@@std@@UAA@XZ
??1?$basic_ofstream@GU?$char_traits@G@std@@@std@@UAA@XZ
??1?$basic_ostream@DU?$char_traits@D@std@@@std@@UAA@XZ
??1?$basic_ostream@GU?$char_traits@G@std@@@std@@UAA@XZ
??1?$basic_ostringstream@DU?$char_traits@D@std@@V?$allocator@D@2@@std@@UAA@XZ
??1?$basic_ostringstream@GU?$char_traits@G@std@@V?$allocator@G@2@@std@@UAA@XZ
??1?$basic_streambuf@DU?$char_traits@D@std@@@std@@UAA@XZ
??1?$basic_streambuf@GU?$char_traits@G@std@@@std@@UAA@XZ
??1?$basic_string@DU?$char_traits@D@std@@V?$allocator@D@2@@std@@QAA@XZ
??1?$basic_string@GU?$char_traits@G@std@@V?$allocator@G@2@@std@@QAA@XZ
??1?$basic_stringbuf@DU?$char_traits@D@std@@V?$allocator@D@2@@std@@UAA@XZ
??1?$basic_stringbuf@GU?$char_traits@G@std@@V?$allocator@G@2@@std@@UAA@XZ
??1?$basic_stringstream@DU?$char_traits@D@std@@V?$allocator@D@2@@std@@UAA@XZ
??1?$basic_stringstream@GU?$char_traits@G@std@@V?$allocator@G@2@@std@@UAA@XZ
??1?$codecvt@DDH@std@@UAA@XZ
??1?$codecvt@GDH@std@@UAA@XZ
??1?$collate@D@std@@UAA@XZ
??1?$collate@G@std@@UAA@XZ
??1?$ctype@D@std@@UAA@XZ
??1?$ctype@G@std@@UAA@XZ
??1?$messages@D@std@@UAA@XZ
??1?$messages@G@std@@UAA@XZ
??1?$money_get@DV?$istreambuf_iterator@DU?$char_traits@D@std@@@std@@@std@@UAA@XZ
??1?$money_get@GV?$istreambuf_iterator@GU?$char_traits@G@std@@@std@@@std@@UAA@XZ
??1?$money_put@DV?$ostreambuf_iterator@DU?$char_traits@D@std@@@std@@@std@@UAA@XZ
??1?$money_put@GV?$ostreambuf_iterator@GU?$char_traits@G@std@@@std@@@std@@UAA@XZ
??1?$moneypunct@D$00@std@@UAA@XZ
??1?$moneypunct@D$0A@@std@@UAA@XZ
??1?$moneypunct@G$00@std@@UAA@XZ
??1?$moneypunct@G$0A@@std@@UAA@XZ
??1?$num_get@DV?$istreambuf_iterator@DU?$char_traits@D@std@@@std@@@std@@UAA@XZ
??1?$num_get@GV?$istreambuf_iterator@GU?$char_traits@G@std@@@std@@@std@@UAA@XZ
??1?$num_put@DV?$ostreambuf_iterator@DU?$char_traits@D@std@@@std@@@std@@UAA@XZ
??1?$num_put@GV?$ostreambuf_iterator@GU?$char_traits@G@std@@@std@@@std@@UAA@XZ
??1?$numpunct@D@std@@UAA@XZ
??1?$numpunct@G@std@@UAA@XZ
??1?$time_get@DV?$istreambuf_iterator@DU?$char_traits@D@std@@@std@@@std@@UAA@XZ
??1?$time_get@GV?$istreambuf_iterator@GU?$char_traits@G@std@@@std@@@std@@UAA@XZ
??1?$time_put@DV?$ostreambuf_iterator@DU?$char_traits@D@std@@@std@@@std@@UAA@XZ
??1?$time_put@GV?$ostreambuf_iterator@GU?$char_traits@G@std@@@std@@@std@@UAA@XZ
??1Init@ios_base@std@@QAA@XZ
??1_Locinfo@std@@QAA@XZ
??1_Lockit@std@@QAA@XZ
??1_Timevec@std@@QAA@XZ
??1_Winit@std@@QAA@XZ
??1__non_rtti_object@std@@UAA@XZ
??1bad_alloc@std@@UAA@XZ
??1bad_cast@std@@UAA@XZ
??1bad_exception@std@@UAA@XZ
??1bad_typeid@std@@UAA@XZ
??1codecvt_base@std@@UAA@XZ
??1ctype_base@std@@UAA@XZ
??1domain_error@std@@UAA@XZ
??1facet@locale@std@@UAA@XZ
??1ios_base@std@@UAA@XZ
??1istrstream@std@@UAA@XZ
??1length_error@std@@UAA@XZ
??1locale@std@@QAA@XZ
??1logic_error@std@@UAA@XZ
??1messages_base@std@@UAA@XZ
??1money_base@std@@UAA@XZ
??1ostrstream@std@@UAA@XZ
??1out_of_range@std@@UAA@XZ
??1overflow_error@std@@UAA@XZ
??1range_error@std@@UAA@XZ
??1runtime_error@std@@UAA@XZ
??1strstream@std@@UAA@XZ
??1strstreambuf@std@@UAA@XZ
??1time_base@std@@UAA@XZ
??1underflow_error@std@@UAA@XZ
??4?$_Complex_base@M@std@@QAAAAV01@ABV01@@Z
??4?$_Complex_base@N@std@@QAAAAV01@ABV01@@Z
??4?$_Complex_base@O@std@@QAAAAV01@ABV01@@Z
??4?$_Ctr@M@std@@QAAAAV01@ABV01@@Z
??4?$_Ctr@N@std@@QAAAAV01@ABV01@@Z
??4?$_Ctr@O@std@@QAAAAV01@ABV01@@Z
??4?$allocator@X@std@@QAAAAV01@ABV01@@Z
??4?$basic_filebuf@DU?$char_traits@D@std@@@std@@QAAAAV01@ABV01@@Z
??4?$basic_filebuf@GU?$char_traits@G@std@@@std@@QAAAAV01@ABV01@@Z
??4?$basic_fstream@DU?$char_traits@D@std@@@std@@QAAAAV01@ABV01@@Z
??4?$basic_fstream@GU?$char_traits@G@std@@@std@@QAAAAV01@ABV01@@Z
??4?$basic_ifstream@DU?$char_traits@D@std@@@std@@QAAAAV01@ABV01@@Z
??4?$basic_ifstream@GU?$char_traits@G@std@@@std@@QAAAAV01@ABV01@@Z
??4?$basic_ios@DU?$char_traits@D@std@@@std@@QAAAAV01@ABV01@@Z
??4?$basic_ios@GU?$char_traits@G@std@@@std@@QAAAAV01@ABV01@@Z
??4?$basic_iostream@DU?$char_traits@D@std@@@std@@QAAAAV01@ABV01@@Z
??4?$basic_iostream@GU?$char_traits@G@std@@@std@@QAAAAV01@ABV01@@Z
??4?$basic_istream@DU?$char_traits@D@std@@@std@@QAAAAV01@ABV01@@Z
??4?$basic_istream@GU?$char_traits@G@std@@@std@@QAAAAV01@ABV01@@Z
??4?$basic_istringstream@DU?$char_traits@D@std@@V?$allocator@D@2@@std@@QAAAAV01@ABV01@@Z
??4?$basic_istringstream@GU?$char_traits@G@std@@V?$allocator@G@2@@std@@QAAAAV01@ABV01@@Z
??4?$basic_ofstream@DU?$char_traits@D@std@@@std@@QAAAAV01@ABV01@@Z
??4?$basic_ofstream@GU?$char_traits@G@std@@@std@@QAAAAV01@ABV01@@Z
??4?$basic_ostream@DU?$char_traits@D@std@@@std@@QAAAAV01@ABV01@@Z
??4?$basic_ostream@GU?$char_traits@G@std@@@std@@QAAAAV01@ABV01@@Z
??4?$basic_ostringstream@DU?$char_traits@D@std@@V?$allocator@D@2@@std@@QAAAAV01@ABV01@@Z
??4?$basic_ostringstream@GU?$char_traits@G@std@@V?$allocator@G@2@@std@@QAAAAV01@ABV01@@Z
??4?$basic_streambuf@DU?$char_traits@D@std@@@std@@QAAAAV01@ABV01@@Z
??4?$basic_streambuf@GU?$char_traits@G@std@@@std@@QAAAAV01@ABV01@@Z
??4?$basic_string@DU?$char_traits@D@std@@V?$allocator@D@2@@std@@QAAAAV01@ABV01@@Z
??4?$basic_string@DU?$char_traits@D@std@@V?$allocator@D@2@@std@@QAAAAV01@D@Z
??4?$basic_string@DU?$char_traits@D@std@@V?$allocator@D@2@@std@@QAAAAV01@PBD@Z
??4?$basic_string@GU?$char_traits@G@std@@V?$allocator@G@2@@std@@QAAAAV01@ABV01@@Z
??4?$basic_string@GU?$char_traits@G@std@@V?$allocator@G@2@@std@@QAAAAV01@G@Z
??4?$basic_string@GU?$char_traits@G@std@@V?$allocator@G@2@@std@@QAAAAV01@PBG@Z
??4?$basic_stringbuf@DU?$char_traits@D@std@@V?$allocator@D@2@@std@@QAAAAV01@ABV01@@Z
??4?$basic_stringbuf@GU?$char_traits@G@std@@V?$allocator@G@2@@std@@QAAAAV01@ABV01@@Z
??4?$basic_stringstream@DU?$char_traits@D@std@@V?$allocator@D@2@@std@@QAAAAV01@ABV01@@Z
??4?$basic_stringstream@GU?$char_traits@G@std@@V?$allocator@G@2@@std@@QAAAAV01@ABV01@@Z
??4?$char_traits@D@std@@QAAAAU01@ABU01@@Z
??4?$char_traits@G@std@@QAAAAU01@ABU01@@Z
??4?$complex@M@std@@QAAAAV01@ABM@Z
??4?$complex@M@std@@QAAAAV01@ABV01@@Z
??4?$complex@N@std@@QAAAAV01@ABN@Z
??4?$complex@N@std@@QAAAAV01@ABV01@@Z
??4?$complex@O@std@@QAAAAV01@ABO@Z
??4?$complex@O@std@@QAAAAV01@ABV01@@Z
??4?$numeric_limits@C@std@@QAAAAV01@ABV01@@Z
??4?$numeric_limits@D@std@@QAAAAV01@ABV01@@Z
??4?$numeric_limits@E@std@@QAAAAV01@ABV01@@Z
??4?$numeric_limits@F@std@@QAAAAV01@ABV01@@Z
??4?$numeric_limits@G@std@@QAAAAV01@ABV01@@Z
??4?$numeric_limits@H@std@@QAAAAV01@ABV01@@Z
??4?$numeric_limits@I@std@@QAAAAV01@ABV01@@Z
??4?$numeric_limits@J@std@@QAAAAV01@ABV01@@Z
??4?$numeric_limits@K@std@@QAAAAV01@ABV01@@Z
??4?$numeric_limits@M@std@@QAAAAV01@ABV01@@Z
??4?$numeric_limits@N@std@@QAAAAV01@ABV01@@Z
??4?$numeric_limits@O@std@@QAAAAV01@ABV01@@Z
??4?$numeric_limits@_N@std@@QAAAAV01@ABV01@@Z
??4Init@ios_base@std@@QAAAAV012@ABV012@@Z
??4_Locinfo@std@@QAAAAV01@ABV01@@Z
??4_Lockit@std@@QAAAAV01@ABV01@@Z
??4_Num_base@std@@QAAAAU01@ABU01@@Z
??4_Num_float_base@std@@QAAAAU01@ABU01@@Z
??4_Num_int_base@std@@QAAAAU01@ABU01@@Z
??4_Timevec@std@@QAAAAV01@ABV01@@Z
??4_Winit@std@@QAAAAV01@ABV01@@Z
??4__non_rtti_object@std@@QAAAAV01@ABV01@@Z
??4bad_alloc@std@@QAAAAV01@ABV01@@Z
??4bad_cast@std@@QAAAAV01@ABV01@@Z
??4bad_exception@std@@QAAAAV01@ABV01@@Z
??4bad_typeid@std@@QAAAAV01@ABV01@@Z
??4domain_error@std@@QAAAAV01@ABV01@@Z
??4id@locale@std@@QAAAAV012@ABV012@@Z
??4ios_base@std@@QAAAAV01@ABV01@@Z
??4length_error@std@@QAAAAV01@ABV01@@Z
??4locale@std@@QAAAAV01@ABV01@@Z
??4logic_error@std@@QAAAAV01@ABV01@@Z
??4out_of_range@std@@QAAAAV01@ABV01@@Z
??4overflow_error@std@@QAAAAV01@ABV01@@Z
??4range_error@std@@QAAAAV01@ABV01@@Z
??4runtime_error@std@@QAAAAV01@ABV01@@Z
??4underflow_error@std@@QAAAAV01@ABV01@@Z
??5?$basic_istream@DU?$char_traits@D@std@@@std@@QAAAAV01@AAF@Z
??5?$basic_istream@DU?$char_traits@D@std@@@std@@QAAAAV01@AAG@Z
??5?$basic_istream@DU?$char_traits@D@std@@@std@@QAAAAV01@AAH@Z
??5?$basic_istream@DU?$char_traits@D@std@@@std@@QAAAAV01@AAI@Z
??5?$basic_istream@DU?$char_traits@D@std@@@std@@QAAAAV01@AAJ@Z
??5?$basic_istream@DU?$char_traits@D@std@@@std@@QAAAAV01@AAK@Z
??5?$basic_istream@DU?$char_traits@D@std@@@std@@QAAAAV01@AAM@Z
??5?$basic_istream@DU?$char_traits@D@std@@@std@@QAAAAV01@AAN@Z
??5?$basic_istream@DU?$char_traits@D@std@@@std@@QAAAAV01@AAO@Z
??5?$basic_istream@DU?$char_traits@D@std@@@std@@QAAAAV01@AAPAX@Z
??5?$basic_istream@DU?$char_traits@D@std@@@std@@QAAAAV01@AA_N@Z
??5?$basic_istream@DU?$char_traits@D@std@@@std@@QAAAAV01@P6AAAV01@AAV01@@Z@Z
??5?$basic_istream@DU?$char_traits@D@std@@@std@@QAAAAV01@P6AAAV?$basic_ios@DU?$char_traits@D@std@@@1@AAV21@@Z@Z
??5?$basic_istream@DU?$char_traits@D@std@@@std@@QAAAAV01@P6AAAVios_base@1@AAV21@@Z@Z
??5?$basic_istream@DU?$char_traits@D@std@@@std@@QAAAAV01@PAV?$basic_streambuf@DU?$char_traits@D@std@@@1@@Z
??5?$basic_istream@GU?$char_traits@G@std@@@std@@QAAAAV01@AAF@Z
??5?$basic_istream@GU?$char_traits@G@std@@@std@@QAAAAV01@AAG@Z
??5?$basic_istream@GU?$char_traits@G@std@@@std@@QAAAAV01@AAH@Z
??5?$basic_istream@GU?$char_traits@G@std@@@std@@QAAAAV01@AAI@Z
??5?$basic_istream@GU?$char_traits@G@std@@@std@@QAAAAV01@AAJ@Z
??5?$basic_istream@GU?$char_traits@G@std@@@std@@QAAAAV01@AAK@Z
??5?$basic_istream@GU?$char_traits@G@std@@@std@@QAAAAV01@AAM@Z
??5?$basic_istream@GU?$char_traits@G@std@@@std@@QAAAAV01@AAN@Z
??5?$basic_istream@GU?$char_traits@G@std@@@std@@QAAAAV01@AAO@Z
??5?$basic_istream@GU?$char_traits@G@std@@@std@@QAAAAV01@AAPAX@Z
??5?$basic_istream@GU?$char_traits@G@std@@@std@@QAAAAV01@AA_N@Z
??5?$basic_istream@GU?$char_traits@G@std@@@std@@QAAAAV01@P6AAAV01@AAV01@@Z@Z
??5?$basic_istream@GU?$char_traits@G@std@@@std@@QAAAAV01@P6AAAV?$basic_ios@GU?$char_traits@G@std@@@1@AAV21@@Z@Z
??5?$basic_istream@GU?$char_traits@G@std@@@std@@QAAAAV01@P6AAAVios_base@1@AAV21@@Z@Z
??5?$basic_istream@GU?$char_traits@G@std@@@std@@QAAAAV01@PAV?$basic_streambuf@GU?$char_traits@G@std@@@1@@Z
??5std@@YAAAV?$basic_istream@DU?$char_traits@D@std@@@0@AAV10@AAC@Z
??5std@@YAAAV?$basic_istream@DU?$char_traits@D@std@@@0@AAV10@AAD@Z
??5std@@YAAAV?$basic_istream@DU?$char_traits@D@std@@@0@AAV10@AAE@Z
??5std@@YAAAV?$basic_istream@DU?$char_traits@D@std@@@0@AAV10@AAV?$basic_string@DU?$char_traits@D@std@@V?$allocator@D@2@@0@@Z
??5std@@YAAAV?$basic_istream@DU?$char_traits@D@std@@@0@AAV10@AAV?$complex@M@0@@Z
??5std@@YAAAV?$basic_istream@DU?$char_traits@D@std@@@0@AAV10@AAV?$complex@N@0@@Z
??5std@@YAAAV?$basic_istream@DU?$char_traits@D@std@@@0@AAV10@AAV?$complex@O@0@@Z
??5std@@YAAAV?$basic_istream@DU?$char_traits@D@std@@@0@AAV10@PAC@Z
??5std@@YAAAV?$basic_istream@DU?$char_traits@D@std@@@0@AAV10@PAD@Z
??5std@@YAAAV?$basic_istream@DU?$char_traits@D@std@@@0@AAV10@PAE@Z
??5std@@YAAAV?$basic_istream@GU?$char_traits@G@std@@@0@AAV10@AAG@Z
??5std@@YAAAV?$basic_istream@GU?$char_traits@G@std@@@0@AAV10@AAV?$basic_string@GU?$char_traits@G@std@@V?$allocator@G@2@@0@@Z
??5std@@YAAAV?$basic_istream@GU?$char_traits@G@std@@@0@AAV10@AAV?$complex@M@0@@Z
??5std@@YAAAV?$basic_istream@GU?$char_traits@G@std@@@0@AAV10@AAV?$complex@N@0@@Z
??5std@@YAAAV?$basic_istream@GU?$char_traits@G@std@@@0@AAV10@AAV?$complex@O@0@@Z
??5std@@YAAAV?$basic_istream@GU?$char_traits@G@std@@@0@AAV10@PAF@Z
??5std@@YAAAV?$basic_istream@GU?$char_traits@G@std@@@0@AAV10@PAG@Z
??6?$basic_ostream@DU?$char_traits@D@std@@@std@@QAAAAV01@F@Z
??6?$basic_ostream@DU?$char_traits@D@std@@@std@@QAAAAV01@G@Z
??6?$basic_ostream@DU?$char_traits@D@std@@@std@@QAAAAV01@H@Z
??6?$basic_ostream@DU?$char_traits@D@std@@@std@@QAAAAV01@I@Z
??6?$basic_ostream@DU?$char_traits@D@std@@@std@@QAAAAV01@J@Z
??6?$basic_ostream@DU?$char_traits@D@std@@@std@@QAAAAV01@K@Z
??6?$basic_ostream@DU?$char_traits@D@std@@@std@@QAAAAV01@M@Z
??6?$basic_ostream@DU?$char_traits@D@std@@@std@@QAAAAV01@N@Z
??6?$basic_ostream@DU?$char_traits@D@std@@@std@@QAAAAV01@O@Z
??6?$basic_ostream@DU?$char_traits@D@std@@@std@@QAAAAV01@P6AAAV01@AAV01@@Z@Z
??6?$basic_ostream@DU?$char_traits@D@std@@@std@@QAAAAV01@P6AAAV?$basic_ios@DU?$char_traits@D@std@@@1@AAV21@@Z@Z
??6?$basic_ostream@DU?$char_traits@D@std@@@std@@QAAAAV01@P6AAAVios_base@1@AAV21@@Z@Z
??6?$basic_ostream@DU?$char_traits@D@std@@@std@@QAAAAV01@PAV?$basic_streambuf@DU?$char_traits@D@std@@@1@@Z
??6?$basic_ostream@DU?$char_traits@D@std@@@std@@QAAAAV01@PBX@Z
??6?$basic_ostream@DU?$char_traits@D@std@@@std@@QAAAAV01@_N@Z
??6?$basic_ostream@GU?$char_traits@G@std@@@std@@QAAAAV01@F@Z
??6?$basic_ostream@GU?$char_traits@G@std@@@std@@QAAAAV01@G@Z
??6?$basic_ostream@GU?$char_traits@G@std@@@std@@QAAAAV01@H@Z
??6?$basic_ostream@GU?$char_traits@G@std@@@std@@QAAAAV01@I@Z
??6?$basic_ostream@GU?$char_traits@G@std@@@std@@QAAAAV01@J@Z
??6?$basic_ostream@GU?$char_traits@G@std@@@std@@QAAAAV01@K@Z
??6?$basic_ostream@GU?$char_traits@G@std@@@std@@QAAAAV01@M@Z
??6?$basic_ostream@GU?$char_traits@G@std@@@std@@QAAAAV01@N@Z
??6?$basic_ostream@GU?$char_traits@G@std@@@std@@QAAAAV01@O@Z
??6?$basic_ostream@GU?$char_traits@G@std@@@std@@QAAAAV01@P6AAAV01@AAV01@@Z@Z
??6?$basic_ostream@GU?$char_traits@G@std@@@std@@QAAAAV01@P6AAAV?$basic_ios@GU?$char_traits@G@std@@@1@AAV21@@Z@Z
??6?$basic_ostream@GU?$char_traits@G@std@@@std@@QAAAAV01@P6AAAVios_base@1@AAV21@@Z@Z
??6?$basic_ostream@GU?$char_traits@G@std@@@std@@QAAAAV01@PAV?$basic_streambuf@GU?$char_traits@G@std@@@1@@Z
??6?$basic_ostream@GU?$char_traits@G@std@@@std@@QAAAAV01@PBX@Z
??6?$basic_ostream@GU?$char_traits@G@std@@@std@@QAAAAV01@_N@Z
??6std@@YAAAV?$basic_ostream@DU?$char_traits@D@std@@@0@AAV10@ABV?$basic_string@DU?$char_traits@D@std@@V?$allocator@D@2@@0@@Z
??6std@@YAAAV?$basic_ostream@DU?$char_traits@D@std@@@0@AAV10@ABV?$complex@M@0@@Z
??6std@@YAAAV?$basic_ostream@DU?$char_traits@D@std@@@0@AAV10@ABV?$complex@N@0@@Z
??6std@@YAAAV?$basic_ostream@DU?$char_traits@D@std@@@0@AAV10@ABV?$complex@O@0@@Z
??6std@@YAAAV?$basic_ostream@DU?$char_traits@D@std@@@0@AAV10@C@Z
??6std@@YAAAV?$basic_ostream@DU?$char_traits@D@std@@@0@AAV10@D@Z
??6std@@YAAAV?$basic_ostream@DU?$char_traits@D@std@@@0@AAV10@E@Z
??6std@@YAAAV?$basic_ostream@DU?$char_traits@D@std@@@0@AAV10@PBC@Z
??6std@@YAAAV?$basic_ostream@DU?$char_traits@D@std@@@0@AAV10@PBD@Z
??6std@@YAAAV?$basic_ostream@DU?$char_traits@D@std@@@0@AAV10@PBE@Z
??6std@@YAAAV?$basic_ostream@GU?$char_traits@G@std@@@0@AAV10@ABV?$basic_string@GU?$char_traits@G@std@@V?$allocator@G@2@@0@@Z
??6std@@YAAAV?$basic_ostream@GU?$char_traits@G@std@@@0@AAV10@ABV?$complex@M@0@@Z
??6std@@YAAAV?$basic_ostream@GU?$char_traits@G@std@@@0@AAV10@ABV?$complex@N@0@@Z
??6std@@YAAAV?$basic_ostream@GU?$char_traits@G@std@@@0@AAV10@ABV?$complex@O@0@@Z
??6std@@YAAAV?$basic_ostream@GU?$char_traits@G@std@@@0@AAV10@G@Z
??6std@@YAAAV?$basic_ostream@GU?$char_traits@G@std@@@0@AAV10@PBF@Z
??6std@@YAAAV?$basic_ostream@GU?$char_traits@G@std@@@0@AAV10@PBG@Z
??7ios_base@std@@QBA_NXZ
??8locale@std@@QBA_NABV01@@Z
??8std@@YA_NABMABV?$complex@M@0@@Z
??8std@@YA_NABNABV?$complex@N@0@@Z
??8std@@YA_NABOABV?$complex@O@0@@Z
??8std@@YA_NABV?$basic_string@DU?$char_traits@D@std@@V?$allocator@D@2@@0@0@Z
??8std@@YA_NABV?$basic_string@DU?$char_traits@D@std@@V?$allocator@D@2@@0@PBD@Z
??8std@@YA_NABV?$basic_string@GU?$char_traits@G@std@@V?$allocator@G@2@@0@0@Z
??8std@@YA_NABV?$basic_string@GU?$char_traits@G@std@@V?$allocator@G@2@@0@PBG@Z
??8std@@YA_NABV?$complex@M@0@0@Z
??8std@@YA_NABV?$complex@M@0@ABM@Z
??8std@@YA_NABV?$complex@N@0@0@Z
??8std@@YA_NABV?$complex@N@0@ABN@Z
??8std@@YA_NABV?$complex@O@0@0@Z
??8std@@YA_NABV?$complex@O@0@ABO@Z
??8std@@YA_NPBDABV?$basic_string@DU?$char_traits@D@std@@V?$allocator@D@2@@0@@Z
??8std@@YA_NPBGABV?$basic_string@GU?$char_traits@G@std@@V?$allocator@G@2@@0@@Z
??9locale@std@@QBA_NABV01@@Z
??9std@@YA_NABMABV?$complex@M@0@@Z
??9std@@YA_NABNABV?$complex@N@0@@Z
??9std@@YA_NABOABV?$complex@O@0@@Z
??9std@@YA_NABV?$basic_string@DU?$char_traits@D@std@@V?$allocator@D@2@@0@0@Z
??9std@@YA_NABV?$basic_string@DU?$char_traits@D@std@@V?$allocator@D@2@@0@PBD@Z
??9std@@YA_NABV?$basic_string@GU?$char_traits@G@std@@V?$allocator@G@2@@0@0@Z
??9std@@YA_NABV?$basic_string@GU?$char_traits@G@std@@V?$allocator@G@2@@0@PBG@Z
??9std@@YA_NABV?$complex@M@0@0@Z
??9std@@YA_NABV?$complex@M@0@ABM@Z
??9std@@YA_NABV?$complex@N@0@0@Z
??9std@@YA_NABV?$complex@N@0@ABN@Z
??9std@@YA_NABV?$complex@O@0@0@Z
??9std@@YA_NABV?$complex@O@0@ABO@Z
??9std@@YA_NPBDABV?$basic_string@DU?$char_traits@D@std@@V?$allocator@D@2@@0@@Z
??9std@@YA_NPBGABV?$basic_string@GU?$char_traits@G@std@@V?$allocator@G@2@@0@@Z
??A?$basic_string@DU?$char_traits@D@std@@V?$allocator@D@2@@std@@QAAAADI@Z
??A?$basic_string@DU?$char_traits@D@std@@V?$allocator@D@2@@std@@QBAABDI@Z
??A?$basic_string@GU?$char_traits@G@std@@V?$allocator@G@2@@std@@QAAAAGI@Z
??A?$basic_string@GU?$char_traits@G@std@@V?$allocator@G@2@@std@@QBAABGI@Z
??Bid@locale@std@@QAAIXZ
??Bios_base@std@@QBAPAXXZ
??Dstd@@YA?AV?$complex@M@0@ABMABV10@@Z
??Dstd@@YA?AV?$complex@M@0@ABV10@0@Z
??Dstd@@YA?AV?$complex@M@0@ABV10@ABM@Z
??Dstd@@YA?AV?$complex@N@0@ABNABV10@@Z
??Dstd@@YA?AV?$complex@N@0@ABV10@0@Z
??Dstd@@YA?AV?$complex@N@0@ABV10@ABN@Z
??Dstd@@YA?AV?$complex@O@0@ABOABV10@@Z
??Dstd@@YA?AV?$complex@O@0@ABV10@0@Z
??Dstd@@YA?AV?$complex@O@0@ABV10@ABO@Z
??Gstd@@YA?AV?$complex@M@0@ABMABV10@@Z
??Gstd@@YA?AV?$complex@M@0@ABV10@0@Z
??Gstd@@YA?AV?$complex@M@0@ABV10@@Z
??Gstd@@YA?AV?$complex@M@0@ABV10@ABM@Z
??Gstd@@YA?AV?$complex@N@0@ABNABV10@@Z
??Gstd@@YA?AV?$complex@N@0@ABV10@0@Z
??Gstd@@YA?AV?$complex@N@0@ABV10@@Z
??Gstd@@YA?AV?$complex@N@0@ABV10@ABN@Z
??Gstd@@YA?AV?$complex@O@0@ABOABV10@@Z
??Gstd@@YA?AV?$complex@O@0@ABV10@0@Z
??Gstd@@YA?AV?$complex@O@0@ABV10@@Z
??Gstd@@YA?AV?$complex@O@0@ABV10@ABO@Z
??Hstd@@YA?AV?$basic_string@DU?$char_traits@D@std@@V?$allocator@D@2@@0@ABV10@0@Z
??Hstd@@YA?AV?$basic_string@DU?$char_traits@D@std@@V?$allocator@D@2@@0@ABV10@D@Z
??Hstd@@YA?AV?$basic_string@DU?$char_traits@D@std@@V?$allocator@D@2@@0@ABV10@PBD@Z
??Hstd@@YA?AV?$basic_string@DU?$char_traits@D@std@@V?$allocator@D@2@@0@DABV10@@Z
??Hstd@@YA?AV?$basic_string@DU?$char_traits@D@std@@V?$allocator@D@2@@0@PBDABV10@@Z
??Hstd@@YA?AV?$basic_string@GU?$char_traits@G@std@@V?$allocator@G@2@@0@ABV10@0@Z
??Hstd@@YA?AV?$basic_string@GU?$char_traits@G@std@@V?$allocator@G@2@@0@ABV10@G@Z
??Hstd@@YA?AV?$basic_string@GU?$char_traits@G@std@@V?$allocator@G@2@@0@ABV10@PBG@Z
??Hstd@@YA?AV?$basic_string@GU?$char_traits@G@std@@V?$allocator@G@2@@0@GABV10@@Z
??Hstd@@YA?AV?$basic_string@GU?$char_traits@G@std@@V?$allocator@G@2@@0@PBGABV10@@Z
??Hstd@@YA?AV?$complex@M@0@ABMABV10@@Z
??Hstd@@YA?AV?$complex@M@0@ABV10@0@Z
??Hstd@@YA?AV?$complex@M@0@ABV10@@Z
??Hstd@@YA?AV?$complex@M@0@ABV10@ABM@Z
??Hstd@@YA?AV?$complex@N@0@ABNABV10@@Z
??Hstd@@YA?AV?$complex@N@0@ABV10@0@Z
??Hstd@@YA?AV?$complex@N@0@ABV10@@Z
??Hstd@@YA?AV?$complex@N@0@ABV10@ABN@Z
??Hstd@@YA?AV?$complex@O@0@ABOABV10@@Z
??Hstd@@YA?AV?$complex@O@0@ABV10@0@Z
??Hstd@@YA?AV?$complex@O@0@ABV10@@Z
??Hstd@@YA?AV?$complex@O@0@ABV10@ABO@Z
??Kstd@@YA?AV?$complex@M@0@ABMABV10@@Z
??Kstd@@YA?AV?$complex@M@0@ABV10@0@Z
??Kstd@@YA?AV?$complex@M@0@ABV10@ABM@Z
??Kstd@@YA?AV?$complex@N@0@ABNABV10@@Z
??Kstd@@YA?AV?$complex@N@0@ABV10@0@Z
??Kstd@@YA?AV?$complex@N@0@ABV10@ABN@Z
??Kstd@@YA?AV?$complex@O@0@ABOABV10@@Z
??Kstd@@YA?AV?$complex@O@0@ABV10@0@Z
??Kstd@@YA?AV?$complex@O@0@ABV10@ABO@Z
??Mstd@@YA_NABV?$basic_string@DU?$char_traits@D@std@@V?$allocator@D@2@@0@0@Z
??Mstd@@YA_NABV?$basic_string@DU?$char_traits@D@std@@V?$allocator@D@2@@0@PBD@Z
??Mstd@@YA_NABV?$basic_string@GU?$char_traits@G@std@@V?$allocator@G@2@@0@0@Z
??Mstd@@YA_NABV?$basic_string@GU?$char_traits@G@std@@V?$allocator@G@2@@0@PBG@Z
??Mstd@@YA_NPBDABV?$basic_string@DU?$char_traits@D@std@@V?$allocator@D@2@@0@@Z
??Mstd@@YA_NPBGABV?$basic_string@GU?$char_traits@G@std@@V?$allocator@G@2@@0@@Z
??Nstd@@YA_NABV?$basic_string@DU?$char_traits@D@std@@V?$allocator@D@2@@0@0@Z
??Nstd@@YA_NABV?$basic_string@DU?$char_traits@D@std@@V?$allocator@D@2@@0@PBD@Z
??Nstd@@YA_NABV?$basic_string@GU?$char_traits@G@std@@V?$allocator@G@2@@0@0@Z
??Nstd@@YA_NABV?$basic_string@GU?$char_traits@G@std@@V?$allocator@G@2@@0@PBG@Z
??Nstd@@YA_NPBDABV?$basic_string@DU?$char_traits@D@std@@V?$allocator@D@2@@0@@Z
??Nstd@@YA_NPBGABV?$basic_string@GU?$char_traits@G@std@@V?$allocator@G@2@@0@@Z
??Ostd@@YA_NABV?$basic_string@DU?$char_traits@D@std@@V?$allocator@D@2@@0@0@Z
??Ostd@@YA_NABV?$basic_string@DU?$char_traits@D@std@@V?$allocator@D@2@@0@PBD@Z
??Ostd@@YA_NABV?$basic_string@GU?$char_traits@G@std@@V?$allocator@G@2@@0@0@Z
??Ostd@@YA_NABV?$basic_string@GU?$char_traits@G@std@@V?$allocator@G@2@@0@PBG@Z
??Ostd@@YA_NPBDABV?$basic_string@DU?$char_traits@D@std@@V?$allocator@D@2@@0@@Z
??Ostd@@YA_NPBGABV?$basic_string@GU?$char_traits@G@std@@V?$allocator@G@2@@0@@Z
??Pstd@@YA_NABV?$basic_string@DU?$char_traits@D@std@@V?$allocator@D@2@@0@0@Z
??Pstd@@YA_NABV?$basic_string@DU?$char_traits@D@std@@V?$allocator@D@2@@0@PBD@Z
??Pstd@@YA_NABV?$basic_string@GU?$char_traits@G@std@@V?$allocator@G@2@@0@0@Z
??Pstd@@YA_NABV?$basic_string@GU?$char_traits@G@std@@V?$allocator@G@2@@0@PBG@Z
??Pstd@@YA_NPBDABV?$basic_string@DU?$char_traits@D@std@@V?$allocator@D@2@@0@@Z
??Pstd@@YA_NPBGABV?$basic_string@GU?$char_traits@G@std@@V?$allocator@G@2@@0@@Z
??Rlocale@std@@QBA_NABV?$basic_string@DU?$char_traits@D@std@@V?$allocator@D@2@@1@0@Z
??X?$_Complex_base@M@std@@QAAAAV01@ABM@Z
??X?$_Complex_base@N@std@@QAAAAV01@ABN@Z
??X?$_Complex_base@O@std@@QAAAAV01@ABO@Z
??Xstd@@YAAAV?$complex@M@0@AAV10@ABV10@@Z
??Xstd@@YAAAV?$complex@N@0@AAV10@ABV10@@Z
??Xstd@@YAAAV?$complex@O@0@AAV10@ABV10@@Z
??Y?$_Complex_base@M@std@@QAAAAV01@ABM@Z
??Y?$_Complex_base@N@std@@QAAAAV01@ABN@Z
??Y?$_Complex_base@O@std@@QAAAAV01@ABO@Z
??Y?$basic_string@DU?$char_traits@D@std@@V?$allocator@D@2@@std@@QAAAAV01@ABV01@@Z
??Y?$basic_string@DU?$char_traits@D@std@@V?$allocator@D@2@@std@@QAAAAV01@D@Z
??Y?$basic_string@DU?$char_traits@D@std@@V?$allocator@D@2@@std@@QAAAAV01@PBD@Z
??Y?$basic_string@GU?$char_traits@G@std@@V?$allocator@G@2@@std@@QAAAAV01@ABV01@@Z
??Y?$basic_string@GU?$char_traits@G@std@@V?$allocator@G@2@@std@@QAAAAV01@G@Z
??Y?$basic_string@GU?$char_traits@G@std@@V?$allocator@G@2@@std@@QAAAAV01@PBG@Z
??Ystd@@YAAAV?$complex@M@0@AAV10@ABV10@@Z
??Ystd@@YAAAV?$complex@N@0@AAV10@ABV10@@Z
??Ystd@@YAAAV?$complex@O@0@AAV10@ABV10@@Z
??Z?$_Complex_base@M@std@@QAAAAV01@ABM@Z
??Z?$_Complex_base@N@std@@QAAAAV01@ABN@Z
??Z?$_Complex_base@O@std@@QAAAAV01@ABO@Z
??Zstd@@YAAAV?$complex@M@0@AAV10@ABV10@@Z
??Zstd@@YAAAV?$complex@N@0@AAV10@ABV10@@Z
??Zstd@@YAAAV?$complex@O@0@AAV10@ABV10@@Z
??_0?$_Complex_base@M@std@@QAAAAV01@ABM@Z
??_0?$_Complex_base@N@std@@QAAAAV01@ABN@Z
??_0?$_Complex_base@O@std@@QAAAAV01@ABO@Z
??_0std@@YAAAV?$complex@M@0@AAV10@ABV10@@Z
??_0std@@YAAAV?$complex@N@0@AAV10@ABV10@@Z
??_0std@@YAAAV?$complex@O@0@AAV10@ABV10@@Z
??_7?$_Mpunct@D@std@@6B@ DATA
??_7?$_Mpunct@G@std@@6B@ DATA
??_7?$basic_filebuf@DU?$char_traits@D@std@@@std@@6B@ DATA
??_7?$basic_filebuf@GU?$char_traits@G@std@@@std@@6B@ DATA
??_7?$basic_fstream@DU?$char_traits@D@std@@@std@@6B@ DATA
??_7?$basic_fstream@GU?$char_traits@G@std@@@std@@6B@ DATA
??_7?$basic_ifstream@DU?$char_traits@D@std@@@std@@6B@ DATA
??_7?$basic_ifstream@GU?$char_traits@G@std@@@std@@6B@ DATA
??_7?$basic_ios@DU?$char_traits@D@std@@@std@@6B@ DATA
??_7?$basic_ios@GU?$char_traits@G@std@@@std@@6B@ DATA
??_7?$basic_iostream@DU?$char_traits@D@std@@@std@@6B@ DATA
??_7?$basic_iostream@GU?$char_traits@G@std@@@std@@6B@ DATA
??_7?$basic_istream@DU?$char_traits@D@std@@@std@@6B@ DATA
??_7?$basic_istream@GU?$char_traits@G@std@@@std@@6B@ DATA
??_7?$basic_istringstream@DU?$char_traits@D@std@@V?$allocator@D@2@@std@@6B@ DATA
??_7?$basic_istringstream@GU?$char_traits@G@std@@V?$allocator@G@2@@std@@6B@ DATA
??_7?$basic_ofstream@DU?$char_traits@D@std@@@std@@6B@ DATA
??_7?$basic_ofstream@GU?$char_traits@G@std@@@std@@6B@ DATA
??_7?$basic_ostream@DU?$char_traits@D@std@@@std@@6B@ DATA
??_7?$basic_ostream@GU?$char_traits@G@std@@@std@@6B@ DATA
??_7?$basic_ostringstream@DU?$char_traits@D@std@@V?$allocator@D@2@@std@@6B@ DATA
??_7?$basic_ostringstream@GU?$char_traits@G@std@@V?$allocator@G@2@@std@@6B@ DATA
??_7?$basic_streambuf@DU?$char_traits@D@std@@@std@@6B@ DATA
??_7?$basic_streambuf@GU?$char_traits@G@std@@@std@@6B@ DATA
??_7?$basic_stringbuf@DU?$char_traits@D@std@@V?$allocator@D@2@@std@@6B@ DATA
??_7?$basic_stringbuf@GU?$char_traits@G@std@@V?$allocator@G@2@@std@@6B@ DATA
??_7?$basic_stringstream@DU?$char_traits@D@std@@V?$allocator@D@2@@std@@6B@ DATA
??_7?$basic_stringstream@GU?$char_traits@G@std@@V?$allocator@G@2@@std@@6B@ DATA
??_7?$codecvt@DDH@std@@6B@ DATA
??_7?$codecvt@GDH@std@@6B@ DATA
??_7?$collate@D@std@@6B@ DATA
??_7?$collate@G@std@@6B@ DATA
??_7?$ctype@D@std@@6B@ DATA
??_7?$ctype@G@std@@6B@ DATA
??_7?$messages@D@std@@6B@ DATA
??_7?$messages@G@std@@6B@ DATA
??_7?$money_get@DV?$istreambuf_iterator@DU?$char_traits@D@std@@@std@@@std@@6B@ DATA
??_7?$money_get@GV?$istreambuf_iterator@GU?$char_traits@G@std@@@std@@@std@@6B@ DATA
??_7?$money_put@DV?$ostreambuf_iterator@DU?$char_traits@D@std@@@std@@@std@@6B@ DATA
??_7?$money_put@GV?$ostreambuf_iterator@GU?$char_traits@G@std@@@std@@@std@@6B@ DATA
??_7?$moneypunct@D$00@std@@6B@ DATA
??_7?$moneypunct@D$0A@@std@@6B@ DATA
??_7?$moneypunct@G$00@std@@6B@ DATA
??_7?$moneypunct@G$0A@@std@@6B@ DATA
??_7?$num_get@DV?$istreambuf_iterator@DU?$char_traits@D@std@@@std@@@std@@6B@ DATA
??_7?$num_get@GV?$istreambuf_iterator@GU?$char_traits@G@std@@@std@@@std@@6B@ DATA
??_7?$num_put@DV?$ostreambuf_iterator@DU?$char_traits@D@std@@@std@@@std@@6B@ DATA
??_7?$num_put@GV?$ostreambuf_iterator@GU?$char_traits@G@std@@@std@@@std@@6B@ DATA
??_7?$numpunct@D@std@@6B@ DATA
??_7?$numpunct@G@std@@6B@ DATA
??_7?$time_get@DV?$istreambuf_iterator@DU?$char_traits@D@std@@@std@@@std@@6B@ DATA
??_7?$time_get@GV?$istreambuf_iterator@GU?$char_traits@G@std@@@std@@@std@@6B@ DATA
??_7?$time_put@DV?$ostreambuf_iterator@DU?$char_traits@D@std@@@std@@@std@@6B@ DATA
??_7?$time_put@GV?$ostreambuf_iterator@GU?$char_traits@G@std@@@std@@@std@@6B@ DATA
??_7__non_rtti_object@std@@6B@ DATA
??_7bad_alloc@std@@6B@ DATA
??_7bad_cast@std@@6B@ DATA
??_7bad_exception@std@@6B@ DATA
??_7bad_typeid@std@@6B@ DATA
??_7codecvt_base@std@@6B@ DATA
??_7ctype_base@std@@6B@ DATA
??_7domain_error@std@@6B@ DATA
??_7facet@locale@std@@6B@ DATA
??_7ios_base@std@@6B@ DATA
??_7length_error@std@@6B@ DATA
??_7logic_error@std@@6B@ DATA
??_7messages_base@std@@6B@ DATA
??_7money_base@std@@6B@ DATA
??_7out_of_range@std@@6B@ DATA
??_7overflow_error@std@@6B@ DATA
??_7range_error@std@@6B@ DATA
??_7runtime_error@std@@6B@ DATA
??_7time_base@std@@6B@ DATA
??_7underflow_error@std@@6B@ DATA
??_8?$basic_fstream@DU?$char_traits@D@std@@@std@@7B?$basic_istream@DU?$char_traits@D@std@@@1@@
??_8?$basic_fstream@DU?$char_traits@D@std@@@std@@7B?$basic_ostream@DU?$char_traits@D@std@@@1@@
??_8?$basic_fstream@GU?$char_traits@G@std@@@std@@7B?$basic_istream@GU?$char_traits@G@std@@@1@@
??_8?$basic_fstream@GU?$char_traits@G@std@@@std@@7B?$basic_ostream@GU?$char_traits@G@std@@@1@@
??_8?$basic_ifstream@DU?$char_traits@D@std@@@std@@7B@
??_8?$basic_ifstream@GU?$char_traits@G@std@@@std@@7B@
??_8?$basic_iostream@DU?$char_traits@D@std@@@std@@7B?$basic_istream@DU?$char_traits@D@std@@@1@@
??_8?$basic_iostream@DU?$char_traits@D@std@@@std@@7B?$basic_ostream@DU?$char_traits@D@std@@@1@@
??_8?$basic_iostream@GU?$char_traits@G@std@@@std@@7B?$basic_istream@GU?$char_traits@G@std@@@1@@
??_8?$basic_iostream@GU?$char_traits@G@std@@@std@@7B?$basic_ostream@GU?$char_traits@G@std@@@1@@
??_8?$basic_istream@DU?$char_traits@D@std@@@std@@7B@
??_8?$basic_istream@GU?$char_traits@G@std@@@std@@7B@
??_8?$basic_istringstream@DU?$char_traits@D@std@@V?$allocator@D@2@@std@@7B@
??_8?$basic_istringstream@GU?$char_traits@G@std@@V?$allocator@G@2@@std@@7B@
??_8?$basic_ofstream@DU?$char_traits@D@std@@@std@@7B@
??_8?$basic_ofstream@GU?$char_traits@G@std@@@std@@7B@
??_8?$basic_ostream@DU?$char_traits@D@std@@@std@@7B@
??_8?$basic_ostream@GU?$char_traits@G@std@@@std@@7B@
??_8?$basic_ostringstream@DU?$char_traits@D@std@@V?$allocator@D@2@@std@@7B@
??_8?$basic_ostringstream@GU?$char_traits@G@std@@V?$allocator@G@2@@std@@7B@
??_8?$basic_stringstream@DU?$char_traits@D@std@@V?$allocator@D@2@@std@@7B?$basic_istream@DU?$char_traits@D@std@@@1@@
??_8?$basic_stringstream@DU?$char_traits@D@std@@V?$allocator@D@2@@std@@7B?$basic_ostream@DU?$char_traits@D@std@@@1@@
??_8?$basic_stringstream@GU?$char_traits@G@std@@V?$allocator@G@2@@std@@7B?$basic_istream@GU?$char_traits@G@std@@@1@@
??_8?$basic_stringstream@GU?$char_traits@G@std@@V?$allocator@G@2@@std@@7B?$basic_ostream@GU?$char_traits@G@std@@@1@@
??_D?$basic_fstream@DU?$char_traits@D@std@@@std@@QAAXXZ
??_D?$basic_fstream@GU?$char_traits@G@std@@@std@@QAAXXZ
??_D?$basic_ifstream@DU?$char_traits@D@std@@@std@@QAAXXZ
??_D?$basic_ifstream@GU?$char_traits@G@std@@@std@@QAAXXZ
??_D?$basic_iostream@DU?$char_traits@D@std@@@std@@QAAXXZ
??_D?$basic_iostream@GU?$char_traits@G@std@@@std@@QAAXXZ
??_D?$basic_istream@DU?$char_traits@D@std@@@std@@QAAXXZ
??_D?$basic_istream@GU?$char_traits@G@std@@@std@@QAAXXZ
??_D?$basic_istringstream@DU?$char_traits@D@std@@V?$allocator@D@2@@std@@QAAXXZ
??_D?$basic_istringstream@GU?$char_traits@G@std@@V?$allocator@G@2@@std@@QAAXXZ
??_D?$basic_ofstream@DU?$char_traits@D@std@@@std@@QAAXXZ
??_D?$basic_ofstream@GU?$char_traits@G@std@@@std@@QAAXXZ
??_D?$basic_ostream@DU?$char_traits@D@std@@@std@@QAAXXZ
??_D?$basic_ostream@GU?$char_traits@G@std@@@std@@QAAXXZ
??_D?$basic_ostringstream@DU?$char_traits@D@std@@V?$allocator@D@2@@std@@QAAXXZ
??_D?$basic_ostringstream@GU?$char_traits@G@std@@V?$allocator@G@2@@std@@QAAXXZ
??_D?$basic_stringstream@DU?$char_traits@D@std@@V?$allocator@D@2@@std@@QAAXXZ
??_D?$basic_stringstream@GU?$char_traits@G@std@@V?$allocator@G@2@@std@@QAAXXZ
??_F?$basic_filebuf@DU?$char_traits@D@std@@@std@@QAAXXZ
??_F?$basic_filebuf@GU?$char_traits@G@std@@@std@@QAAXXZ
??_F?$basic_istringstream@DU?$char_traits@D@std@@V?$allocator@D@2@@std@@QAAXXZ
??_F?$basic_istringstream@GU?$char_traits@G@std@@V?$allocator@G@2@@std@@QAAXXZ
??_F?$basic_ostringstream@DU?$char_traits@D@std@@V?$allocator@D@2@@std@@QAAXXZ
??_F?$basic_ostringstream@GU?$char_traits@G@std@@V?$allocator@G@2@@std@@QAAXXZ
??_F?$basic_string@DU?$char_traits@D@std@@V?$allocator@D@2@@std@@QAAXXZ
??_F?$basic_string@GU?$char_traits@G@std@@V?$allocator@G@2@@std@@QAAXXZ
??_F?$basic_stringbuf@DU?$char_traits@D@std@@V?$allocator@D@2@@std@@QAAXXZ
??_F?$basic_stringbuf@GU?$char_traits@G@std@@V?$allocator@G@2@@std@@QAAXXZ
??_F?$basic_stringstream@DU?$char_traits@D@std@@V?$allocator@D@2@@std@@QAAXXZ
??_F?$basic_stringstream@GU?$char_traits@G@std@@V?$allocator@G@2@@std@@QAAXXZ
??_F?$codecvt@DDH@std@@QAAXXZ
??_F?$codecvt@GDH@std@@QAAXXZ
??_F?$collate@D@std@@QAAXXZ
??_F?$collate@G@std@@QAAXXZ
??_F?$complex@M@std@@QAAXXZ
??_F?$complex@N@std@@QAAXXZ
??_F?$complex@O@std@@QAAXXZ
??_F?$ctype@D@std@@QAAXXZ
??_F?$ctype@G@std@@QAAXXZ
??_F?$messages@D@std@@QAAXXZ
??_F?$messages@G@std@@QAAXXZ
??_F?$money_get@DV?$istreambuf_iterator@DU?$char_traits@D@std@@@std@@@std@@QAAXXZ
??_F?$money_get@GV?$istreambuf_iterator@GU?$char_traits@G@std@@@std@@@std@@QAAXXZ
??_F?$money_put@DV?$ostreambuf_iterator@DU?$char_traits@D@std@@@std@@@std@@QAAXXZ
??_F?$money_put@GV?$ostreambuf_iterator@GU?$char_traits@G@std@@@std@@@std@@QAAXXZ
??_F?$moneypunct@D$00@std@@QAAXXZ
??_F?$moneypunct@D$0A@@std@@QAAXXZ
??_F?$moneypunct@G$00@std@@QAAXXZ
??_F?$moneypunct@G$0A@@std@@QAAXXZ
??_F?$num_get@DV?$istreambuf_iterator@DU?$char_traits@D@std@@@std@@@std@@QAAXXZ
??_F?$num_get@GV?$istreambuf_iterator@GU?$char_traits@G@std@@@std@@@std@@QAAXXZ
??_F?$num_put@DV?$ostreambuf_iterator@DU?$char_traits@D@std@@@std@@@std@@QAAXXZ
??_F?$num_put@GV?$ostreambuf_iterator@GU?$char_traits@G@std@@@std@@@std@@QAAXXZ
??_F?$numpunct@D@std@@QAAXXZ
??_F?$numpunct@G@std@@QAAXXZ
??_F?$time_get@DV?$istreambuf_iterator@DU?$char_traits@D@std@@@std@@@std@@QAAXXZ
??_F?$time_get@GV?$istreambuf_iterator@GU?$char_traits@G@std@@@std@@@std@@QAAXXZ
??_F?$time_put@DV?$ostreambuf_iterator@DU?$char_traits@D@std@@@std@@@std@@QAAXXZ
??_F?$time_put@GV?$ostreambuf_iterator@GU?$char_traits@G@std@@@std@@@std@@QAAXXZ
??_F_Locinfo@std@@QAAXXZ
??_F_Timevec@std@@QAAXXZ
??_Fbad_cast@std@@QAAXXZ
??_Fbad_exception@std@@QAAXXZ
??_Fbad_typeid@std@@QAAXXZ
??_Fcodecvt_base@std@@QAAXXZ
??_Fctype_base@std@@QAAXXZ
??_Ffacet@locale@std@@QAAXXZ
??_Fmessages_base@std@@QAAXXZ
??_Fmoney_base@std@@QAAXXZ
??_Ftime_base@std@@QAAXXZ
?_Addcats@_Locinfo@std@@QAAAAV12@HPBD@Z
?_Addfac@locale@std@@QAAAAV12@PAVfacet@12@II@Z
?_Addstd@ios_base@std@@IAAXXZ
?_C@?1??_Nullstr@?$basic_string@DU?$char_traits@D@std@@V?$allocator@D@2@@std@@CAPBDXZ@4DB
?_C@?1??_Nullstr@?$basic_string@GU?$char_traits@G@std@@V?$allocator@G@2@@std@@CAPBGXZ@4GB
?_Callfns@ios_base@std@@AAAXW4event@12@@Z
?_Cl@?5???$log@M@std@@YA?AV?$complex@M@1@ABV21@@Z@4MB
?_Cl@?5???$log@N@std@@YA?AV?$complex@N@1@ABV21@@Z@4NB
?_Cl@?5???$log@O@std@@YA?AV?$complex@O@1@ABV21@@Z@4OB
?_Clocptr@_Locimp@locale@std@@0PAV123@A DATA
?_Cltab@?$ctype@D@std@@0PBFB DATA
?_Copy@?$basic_string@DU?$char_traits@D@std@@V?$allocator@D@2@@std@@AAAXI@Z
?_Copy@?$basic_string@GU?$char_traits@G@std@@V?$allocator@G@2@@std@@AAAXI@Z
?_Cosh@?$_Ctr@M@std@@SAMMM@Z
?_Cosh@?$_Ctr@N@std@@SANNN@Z
?_Cosh@?$_Ctr@O@std@@SAOOO@Z
?_Decref@facet@locale@std@@QAAPAV123@XZ
?_Doraise@bad_alloc@std@@MBAXXZ
?_Doraise@bad_cast@std@@MBAXXZ
?_Doraise@bad_exception@std@@MBAXXZ
?_Doraise@bad_typeid@std@@MBAXXZ
?_Doraise@domain_error@std@@MBAXXZ
?_Doraise@length_error@std@@MBAXXZ
?_Doraise@logic_error@std@@MBAXXZ
?_Doraise@out_of_range@std@@MBAXXZ
?_Doraise@overflow_error@std@@MBAXXZ
?_Doraise@range_error@std@@MBAXXZ
?_Doraise@runtime_error@std@@MBAXXZ
?_Doraise@underflow_error@std@@MBAXXZ
?_Eos@?$basic_string@DU?$char_traits@D@std@@V?$allocator@D@2@@std@@AAAXI@Z
?_Eos@?$basic_string@GU?$char_traits@G@std@@V?$allocator@G@2@@std@@AAAXI@Z
?_Exp@?$_Ctr@M@std@@SAFPAMMF@Z
?_Exp@?$_Ctr@N@std@@SAFPANNF@Z
?_Exp@?$_Ctr@O@std@@SAFPAOOF@Z
?_Fabs@std@@YAMABV?$complex@M@1@PAH@Z
?_Fabs@std@@YANABV?$complex@N@1@PAH@Z
?_Fabs@std@@YAOABV?$complex@O@1@PAH@Z
?_Ffmt@?$num_put@DV?$ostreambuf_iterator@DU?$char_traits@D@std@@@std@@@std@@KAPADPADDH@Z
?_Ffmt@?$num_put@GV?$ostreambuf_iterator@GU?$char_traits@G@std@@@std@@@std@@KAPADPADDH@Z
?_Findarr@ios_base@std@@AAAAAU_Iosarray@12@H@Z
?_Fput@?$num_put@DV?$ostreambuf_iterator@DU?$char_traits@D@std@@@std@@@std@@KA?AV?$ostreambuf_iterator@DU?$char_traits@D@std@@@2@V32@AAVios_base@2@DPBDII@Z
?_Fput@?$num_put@GV?$ostreambuf_iterator@GU?$char_traits@G@std@@@std@@@std@@KA?AV?$ostreambuf_iterator@GU?$char_traits@G@std@@@2@V32@AAVios_base@2@GPBDII@Z
?_Fpz@std@@3_JB
?_Freeze@?$basic_string@DU?$char_traits@D@std@@V?$allocator@D@2@@std@@AAAXXZ
?_Freeze@?$basic_string@GU?$char_traits@G@std@@V?$allocator@G@2@@std@@AAAXXZ
?_Getcat@?$_Mpunct@D@std@@SAIXZ
?_Getcat@?$_Mpunct@G@std@@SAIXZ
?_Getcat@?$codecvt@DDH@std@@SAIXZ
?_Getcat@?$codecvt@GDH@std@@SAIXZ
?_Getcat@?$collate@D@std@@SAIXZ
?_Getcat@?$collate@G@std@@SAIXZ
?_Getcat@?$ctype@D@std@@SAIXZ
?_Getcat@?$ctype@G@std@@SAIXZ
?_Getcat@?$messages@D@std@@SAIXZ
?_Getcat@?$messages@G@std@@SAIXZ
?_Getcat@?$money_get@DV?$istreambuf_iterator@DU?$char_traits@D@std@@@std@@@std@@SAIXZ
?_Getcat@?$money_get@GV?$istreambuf_iterator@GU?$char_traits@G@std@@@std@@@std@@SAIXZ
?_Getcat@?$money_put@DV?$ostreambuf_iterator@DU?$char_traits@D@std@@@std@@@std@@SAIXZ
?_Getcat@?$money_put@GV?$ostreambuf_iterator@GU?$char_traits@G@std@@@std@@@std@@SAIXZ
?_Getcat@?$moneypunct@D$00@std@@SAIXZ
?_Getcat@?$moneypunct@D$0A@@std@@SAIXZ
?_Getcat@?$moneypunct@G$00@std@@SAIXZ
?_Getcat@?$moneypunct@G$0A@@std@@SAIXZ
?_Getcat@?$num_get@DV?$istreambuf_iterator@DU?$char_traits@D@std@@@std@@@std@@SAIXZ
?_Getcat@?$num_get@GV?$istreambuf_iterator@GU?$char_traits@G@std@@@std@@@std@@SAIXZ
?_Getcat@?$num_put@DV?$ostreambuf_iterator@DU?$char_traits@D@std@@@std@@@std@@SAIXZ
?_Getcat@?$num_put@GV?$ostreambuf_iterator@GU?$char_traits@G@std@@@std@@@std@@SAIXZ
?_Getcat@?$numpunct@D@std@@SAIXZ
?_Getcat@?$numpunct@G@std@@SAIXZ
?_Getcat@?$time_get@DV?$istreambuf_iterator@DU?$char_traits@D@std@@@std@@@std@@SAIXZ
?_Getcat@?$time_get@GV?$istreambuf_iterator@GU?$char_traits@G@std@@@std@@@std@@SAIXZ
?_Getcat@?$time_put@DV?$ostreambuf_iterator@DU?$char_traits@D@std@@@std@@@std@@SAIXZ
?_Getcat@?$time_put@GV?$ostreambuf_iterator@GU?$char_traits@G@std@@@std@@@std@@SAIXZ
?_Getcat@facet@locale@std@@SAIXZ
?_Getcoll@_Locinfo@std@@QBA?AU_Collvec@@XZ
?_Getctype@_Locinfo@std@@QBA?AU_Ctypevec@@XZ
?_Getcvt@_Locinfo@std@@QBA?AU_Cvtvec@@XZ
?_Getdays@_Locinfo@std@@QBAPBDXZ
?_Getfacet@locale@std@@QBAPBVfacet@12@I_N@Z
?_Getfalse@_Locinfo@std@@QBAPBDXZ
?_Getffld@?$num_get@DV?$istreambuf_iterator@DU?$char_traits@D@std@@@std@@@std@@CAHPADAAV?$istreambuf_iterator@DU?$char_traits@D@std@@@2@1ABVlocale@2@@Z
?_Getffld@?$num_get@GV?$istreambuf_iterator@GU?$char_traits@G@std@@@std@@@std@@CAHPADAAV?$istreambuf_iterator@GU?$char_traits@G@std@@@2@1ABVlocale@2@@Z
?_Getifld@?$num_get@DV?$istreambuf_iterator@DU?$char_traits@D@std@@@std@@@std@@CAHPADAAV?$istreambuf_iterator@DU?$char_traits@D@std@@@2@1HABVlocale@2@@Z
?_Getifld@?$num_get@GV?$istreambuf_iterator@GU?$char_traits@G@std@@@std@@@std@@CAHPADAAV?$istreambuf_iterator@GU?$char_traits@G@std@@@2@1HABVlocale@2@@Z
?_Getint@?$time_get@DV?$istreambuf_iterator@DU?$char_traits@D@std@@@std@@@std@@CAHAAV?$istreambuf_iterator@DU?$char_traits@D@std@@@2@0HHAAH@Z
?_Getint@?$time_get@GV?$istreambuf_iterator@GU?$char_traits@G@std@@@std@@@std@@CAHAAV?$istreambuf_iterator@GU?$char_traits@G@std@@@2@0HHAAH@Z
?_Getlconv@_Locinfo@std@@QBAPBUlconv@@XZ
?_Getmfld@?$money_get@DV?$istreambuf_iterator@DU?$char_traits@D@std@@@std@@@std@@ABA?AV?$basic_string@DU?$char_traits@D@std@@V?$allocator@D@2@@2@AAV?$istreambuf_iterator@DU?$char_traits@D@std@@@2@0_NAAVios_base@2@@Z
?_Getmfld@?$money_get@GV?$istreambuf_iterator@GU?$char_traits@G@std@@@std@@@std@@ABA?AV?$basic_string@GU?$char_traits@G@std@@V?$allocator@G@2@@2@AAV?$istreambuf_iterator@GU?$char_traits@G@std@@@2@0_NAAVios_base@2@@Z
?_Getmonths@_Locinfo@std@@QBAPBDXZ
?_Getname@_Locinfo@std@@QBA?AV?$basic_string@DU?$char_traits@D@std@@V?$allocator@D@2@@2@XZ
?_Getno@_Locinfo@std@@QBAPBDXZ
?_Getptr@_Timevec@std@@QBAPAXXZ
?_Gettnames@_Locinfo@std@@QBA?AV_Timevec@2@XZ
?_Gettrue@_Locinfo@std@@QBAPBDXZ
?_Getyes@_Locinfo@std@@QBAPBDXZ
?_Global@_Locimp@locale@std@@0PAV123@A DATA
?_Gndec@?$basic_streambuf@DU?$char_traits@D@std@@@std@@IAAPADXZ
?_Gndec@?$basic_streambuf@GU?$char_traits@G@std@@@std@@IAAPAGXZ
?_Gninc@?$basic_streambuf@DU?$char_traits@D@std@@@std@@IAAPADXZ
?_Gninc@?$basic_streambuf@GU?$char_traits@G@std@@@std@@IAAPAGXZ
?_Grow@?$basic_string@DU?$char_traits@D@std@@V?$allocator@D@2@@std@@AAA_NI_N@Z
?_Grow@?$basic_string@GU?$char_traits@G@std@@V?$allocator@G@2@@std@@AAA_NI_N@Z
?_Id_cnt@id@locale@std@@0HA DATA
?_Ifmt@?$num_put@DV?$ostreambuf_iterator@DU?$char_traits@D@std@@@std@@@std@@KAPADPADDH@Z
?_Ifmt@?$num_put@GV?$ostreambuf_iterator@GU?$char_traits@G@std@@@std@@@std@@KAPADPADDH@Z
?_Incref@facet@locale@std@@QAAXXZ
?_Index@ios_base@std@@0HA DATA
?_Infv@?$_Ctr@M@std@@SAMM@Z
?_Infv@?$_Ctr@N@std@@SANN@Z
?_Infv@?$_Ctr@O@std@@SAOO@Z
?_Init@?$_Mpunct@D@std@@IAAXABV_Locinfo@2@@Z
?_Init@?$_Mpunct@G@std@@IAAXABV_Locinfo@2@@Z
?_Init@?$basic_filebuf@DU?$char_traits@D@std@@@std@@IAAXPAU_iobuf@@W4_Initfl@12@@Z
?_Init@?$basic_filebuf@GU?$char_traits@G@std@@@std@@IAAXPAU_iobuf@@W4_Initfl@12@@Z
?_Init@?$basic_streambuf@DU?$char_traits@D@std@@@std@@IAAXPAPAD0PAH001@Z
?_Init@?$basic_streambuf@DU?$char_traits@D@std@@@std@@IAAXXZ
?_Init@?$basic_streambuf@GU?$char_traits@G@std@@@std@@IAAXPAPAG0PAH001@Z
?_Init@?$basic_streambuf@GU?$char_traits@G@std@@@std@@IAAXXZ
?_Init@?$basic_stringbuf@DU?$char_traits@D@std@@V?$allocator@D@2@@std@@IAAXPBDIH@Z
?_Init@?$basic_stringbuf@GU?$char_traits@G@std@@V?$allocator@G@2@@std@@IAAXPBGIH@Z
?_Init@?$codecvt@DDH@std@@IAAXABV_Locinfo@2@@Z
?_Init@?$codecvt@GDH@std@@IAAXABV_Locinfo@2@@Z
?_Init@?$collate@D@std@@IAAXABV_Locinfo@2@@Z
?_Init@?$collate@G@std@@IAAXABV_Locinfo@2@@Z
?_Init@?$ctype@D@std@@IAAXABV_Locinfo@2@@Z
?_Init@?$ctype@G@std@@IAAXABV_Locinfo@2@@Z
?_Init@?$messages@D@std@@IAAXABV_Locinfo@2@@Z
?_Init@?$messages@G@std@@IAAXABV_Locinfo@2@@Z
?_Init@?$money_get@DV?$istreambuf_iterator@DU?$char_traits@D@std@@@std@@@std@@IAAXABV_Locinfo@2@@Z
?_Init@?$money_get@GV?$istreambuf_iterator@GU?$char_traits@G@std@@@std@@@std@@IAAXABV_Locinfo@2@@Z
?_Init@?$money_put@DV?$ostreambuf_iterator@DU?$char_traits@D@std@@@std@@@std@@IAAXABV_Locinfo@2@@Z
?_Init@?$money_put@GV?$ostreambuf_iterator@GU?$char_traits@G@std@@@std@@@std@@IAAXABV_Locinfo@2@@Z
?_Init@?$num_get@DV?$istreambuf_iterator@DU?$char_traits@D@std@@@std@@@std@@IAAXABV_Locinfo@2@@Z
?_Init@?$num_get@GV?$istreambuf_iterator@GU?$char_traits@G@std@@@std@@@std@@IAAXABV_Locinfo@2@@Z
?_Init@?$num_put@DV?$ostreambuf_iterator@DU?$char_traits@D@std@@@std@@@std@@IAAXABV_Locinfo@2@@Z
?_Init@?$num_put@GV?$ostreambuf_iterator@GU?$char_traits@G@std@@@std@@@std@@IAAXABV_Locinfo@2@@Z
?_Init@?$numpunct@D@std@@IAAXABV_Locinfo@2@@Z
?_Init@?$numpunct@G@std@@IAAXABV_Locinfo@2@@Z
?_Init@?$time_get@DV?$istreambuf_iterator@DU?$char_traits@D@std@@@std@@@std@@IAAXABV_Locinfo@2@@Z
?_Init@?$time_get@GV?$istreambuf_iterator@GU?$char_traits@G@std@@@std@@@std@@IAAXABV_Locinfo@2@@Z
?_Init@?$time_put@DV?$ostreambuf_iterator@DU?$char_traits@D@std@@@std@@@std@@IAAXABV_Locinfo@2@@Z
?_Init@?$time_put@GV?$ostreambuf_iterator@GU?$char_traits@G@std@@@std@@@std@@IAAXABV_Locinfo@2@@Z
?_Init@ios_base@std@@IAAXXZ
?_Init@locale@std@@CAPAV_Locimp@12@XZ
?_Init@strstreambuf@std@@IAAXHPAD0H@Z
?_Init_cnt@Init@ios_base@std@@0HA DATA
?_Init_cnt@_Winit@std@@0HA DATA
?_Initcvt@?$basic_filebuf@DU?$char_traits@D@std@@@std@@IAAXXZ
?_Initcvt@?$basic_filebuf@GU?$char_traits@G@std@@@std@@IAAXXZ
?_Iput@?$num_put@DV?$ostreambuf_iterator@DU?$char_traits@D@std@@@std@@@std@@KA?AV?$ostreambuf_iterator@DU?$char_traits@D@std@@@2@V32@AAVios_base@2@DPADI@Z
?_Iput@?$num_put@GV?$ostreambuf_iterator@GU?$char_traits@G@std@@@std@@@std@@KA?AV?$ostreambuf_iterator@GU?$char_traits@G@std@@@2@V32@AAVios_base@2@GPADI@Z
?_Iscloc@locale@std@@QBA_NXZ
?_Isinf@?$_Ctr@M@std@@SA_NM@Z
?_Isinf@?$_Ctr@N@std@@SA_NN@Z
?_Isinf@?$_Ctr@O@std@@SA_NO@Z
?_Isnan@?$_Ctr@M@std@@SA_NM@Z
?_Isnan@?$_Ctr@N@std@@SA_NN@Z
?_Isnan@?$_Ctr@O@std@@SA_NO@Z
?_Makpat@?$_Mpunct@D@std@@AAAXAAUpattern@money_base@2@DDD@Z
?_Makpat@?$_Mpunct@G@std@@AAAXAAUpattern@money_base@2@DDD@Z
?_Mode@?$basic_stringbuf@DU?$char_traits@D@std@@V?$allocator@D@2@@std@@AAAHH@Z
?_Mode@?$basic_stringbuf@GU?$char_traits@G@std@@V?$allocator@G@2@@std@@AAAHH@Z
?_Nanv@?$_Ctr@M@std@@SAMM@Z
?_Nanv@?$_Ctr@N@std@@SANN@Z
?_Nanv@?$_Ctr@O@std@@SAOO@Z
?_Nomemory@std@@YAXXZ
?_Nullstr@?$basic_string@DU?$char_traits@D@std@@V?$allocator@D@2@@std@@CAPBDXZ
?_Nullstr@?$basic_string@GU?$char_traits@G@std@@V?$allocator@G@2@@std@@CAPBGXZ
?_Pdif@?$basic_string@DU?$char_traits@D@std@@V?$allocator@D@2@@std@@CAIPBD0@Z
?_Pdif@?$basic_string@GU?$char_traits@G@std@@V?$allocator@G@2@@std@@CAIPBG0@Z
?_Pninc@?$basic_streambuf@DU?$char_traits@D@std@@@std@@IAAPADXZ
?_Pninc@?$basic_streambuf@GU?$char_traits@G@std@@@std@@IAAPAGXZ
?_Psum@?$basic_string@DU?$char_traits@D@std@@V?$allocator@D@2@@std@@CAPADPADI@Z
?_Psum@?$basic_string@DU?$char_traits@D@std@@V?$allocator@D@2@@std@@CAPBDPBDI@Z
?_Psum@?$basic_string@GU?$char_traits@G@std@@V?$allocator@G@2@@std@@CAPAGPAGI@Z
?_Psum@?$basic_string@GU?$char_traits@G@std@@V?$allocator@G@2@@std@@CAPBGPBGI@Z
?_Put@?$money_put@DV?$ostreambuf_iterator@DU?$char_traits@D@std@@@std@@@std@@CA?AV?$ostreambuf_iterator@DU?$char_traits@D@std@@@2@V32@PBDI@Z
?_Put@?$money_put@GV?$ostreambuf_iterator@GU?$char_traits@G@std@@@std@@@std@@CA?AV?$ostreambuf_iterator@GU?$char_traits@G@std@@@2@V32@PBGI@Z
?_Put@?$num_put@DV?$ostreambuf_iterator@DU?$char_traits@D@std@@@std@@@std@@KA?AV?$ostreambuf_iterator@DU?$char_traits@D@std@@@2@V32@PBDI@Z
?_Put@?$num_put@GV?$ostreambuf_iterator@GU?$char_traits@G@std@@@std@@@std@@KA?AV?$ostreambuf_iterator@GU?$char_traits@G@std@@@2@V32@PBGI@Z
?_Putc@?$num_put@DV?$ostreambuf_iterator@DU?$char_traits@D@std@@@std@@@std@@KA?AV?$ostreambuf_iterator@DU?$char_traits@D@std@@@2@V32@PBDI@Z
?_Putc@?$num_put@GV?$ostreambuf_iterator@GU?$char_traits@G@std@@@std@@@std@@KA?AV?$ostreambuf_iterator@GU?$char_traits@G@std@@@2@V32@PBDI@Z
?_Putmfld@?$money_put@DV?$ostreambuf_iterator@DU?$char_traits@D@std@@@std@@@std@@ABA?AV?$ostreambuf_iterator@DU?$char_traits@D@std@@@2@V32@_NAAVios_base@2@D1V?$basic_string@DU?$char_traits@D@std@@V?$allocator@D@2@@2@@Z
?_Putmfld@?$money_put@GV?$ostreambuf_iterator@GU?$char_traits@G@std@@@std@@@std@@ABA?AV?$ostreambuf_iterator@GU?$char_traits@G@std@@@2@V32@_NAAVios_base@2@G1V?$basic_string@GU?$char_traits@G@std@@V?$allocator@G@2@@2@@Z
?_R2@?BN@???$_Fabs@M@std@@YAMABV?$complex@M@1@PAH@Z@4MB
?_R2@?BN@???$_Fabs@N@std@@YANABV?$complex@N@1@PAH@Z@4NB
?_R2@?BN@???$_Fabs@O@std@@YAOABV?$complex@O@1@PAH@Z@4OB
?_Refcnt@?$basic_string@DU?$char_traits@D@std@@V?$allocator@D@2@@std@@AAAAAEPBD@Z
?_Refcnt@?$basic_string@GU?$char_traits@G@std@@V?$allocator@G@2@@std@@AAAAAEPBG@Z
?_Rep@?$money_put@DV?$ostreambuf_iterator@DU?$char_traits@D@std@@@std@@@std@@CA?AV?$ostreambuf_iterator@DU?$char_traits@D@std@@@2@V32@DI@Z
?_Rep@?$money_put@GV?$ostreambuf_iterator@GU?$char_traits@G@std@@@std@@@std@@CA?AV?$ostreambuf_iterator@GU?$char_traits@G@std@@@2@V32@GI@Z
?_Rep@?$num_put@DV?$ostreambuf_iterator@DU?$char_traits@D@std@@@std@@@std@@KA?AV?$ostreambuf_iterator@DU?$char_traits@D@std@@@2@V32@DI@Z
?_Rep@?$num_put@GV?$ostreambuf_iterator@GU?$char_traits@G@std@@@std@@@std@@KA?AV?$ostreambuf_iterator@GU?$char_traits@G@std@@@2@V32@GI@Z
?_Sinh@?$_Ctr@M@std@@SAMMM@Z
?_Sinh@?$_Ctr@N@std@@SANNN@Z
?_Sinh@?$_Ctr@O@std@@SAOOO@Z
?_Split@?$basic_string@DU?$char_traits@D@std@@V?$allocator@D@2@@std@@AAAXXZ
?_Split@?$basic_string@GU?$char_traits@G@std@@V?$allocator@G@2@@std@@AAAXXZ
?_Stinit@?1??_Init@?$basic_filebuf@DU?$char_traits@D@std@@@std@@IAAXPAU_iobuf@@W4_Initfl@23@@Z@4HA DATA
?_Stinit@?1??_Init@?$basic_filebuf@GU?$char_traits@G@std@@@std@@IAAXPAU_iobuf@@W4_Initfl@23@@Z@4HA DATA
?_Sync@ios_base@std@@0_NA DATA
?_Term@?$ctype@D@std@@KAXXZ
?_Tidy@?$basic_string@DU?$char_traits@D@std@@V?$allocator@D@2@@std@@AAAX_N@Z
?_Tidy@?$basic_string@GU?$char_traits@G@std@@V?$allocator@G@2@@std@@AAAX_N@Z
?_Tidy@?$basic_stringbuf@DU?$char_traits@D@std@@V?$allocator@D@2@@std@@IAAXXZ
?_Tidy@?$basic_stringbuf@GU?$char_traits@G@std@@V?$allocator@G@2@@std@@IAAXXZ
?_Tidy@ios_base@std@@AAAXXZ
?_Tidy@locale@std@@CAXXZ
?_Tidy@strstreambuf@std@@IAAXXZ
?_Xh@?BN@???$_Fabs@M@std@@YAMABV?$complex@M@1@PAH@Z@4MB
?_Xh@?BN@???$_Fabs@N@std@@YANABV?$complex@N@1@PAH@Z@4NB
?_Xh@?BN@???$_Fabs@O@std@@YAOABV?$complex@O@1@PAH@Z@4OB
?_Xl@?BN@???$_Fabs@M@std@@YAMABV?$complex@M@1@PAH@Z@4MB
?_Xl@?BN@???$_Fabs@N@std@@YANABV?$complex@N@1@PAH@Z@4NB
?_Xl@?BN@???$_Fabs@O@std@@YAOABV?$complex@O@1@PAH@Z@4OB
?_Xlen@std@@YAXXZ
?_Xran@std@@YAXXZ
?__Fiopen@std@@YAPAU_iobuf@@PBDH@Z
?abs@std@@YAMABV?$complex@M@1@@Z
?abs@std@@YANABV?$complex@N@1@@Z
?abs@std@@YAOABV?$complex@O@1@@Z
?always_noconv@codecvt_base@std@@QBA_NXZ
?append@?$basic_string@DU?$char_traits@D@std@@V?$allocator@D@2@@std@@QAAAAV12@ABV12@@Z
?append@?$basic_string@DU?$char_traits@D@std@@V?$allocator@D@2@@std@@QAAAAV12@ABV12@II@Z
?append@?$basic_string@DU?$char_traits@D@std@@V?$allocator@D@2@@std@@QAAAAV12@ID@Z
?append@?$basic_string@DU?$char_traits@D@std@@V?$allocator@D@2@@std@@QAAAAV12@PBD0@Z
?append@?$basic_string@DU?$char_traits@D@std@@V?$allocator@D@2@@std@@QAAAAV12@PBD@Z
?append@?$basic_string@DU?$char_traits@D@std@@V?$allocator@D@2@@std@@QAAAAV12@PBDI@Z
?append@?$basic_string@GU?$char_traits@G@std@@V?$allocator@G@2@@std@@QAAAAV12@ABV12@@Z
?append@?$basic_string@GU?$char_traits@G@std@@V?$allocator@G@2@@std@@QAAAAV12@ABV12@II@Z
?append@?$basic_string@GU?$char_traits@G@std@@V?$allocator@G@2@@std@@QAAAAV12@IG@Z
?append@?$basic_string@GU?$char_traits@G@std@@V?$allocator@G@2@@std@@QAAAAV12@PBG0@Z
?append@?$basic_string@GU?$char_traits@G@std@@V?$allocator@G@2@@std@@QAAAAV12@PBG@Z
?append@?$basic_string@GU?$char_traits@G@std@@V?$allocator@G@2@@std@@QAAAAV12@PBGI@Z
?arg@std@@YAMABV?$complex@M@1@@Z
?arg@std@@YANABV?$complex@N@1@@Z
?arg@std@@YAOABV?$complex@O@1@@Z
?assign@?$basic_string@DU?$char_traits@D@std@@V?$allocator@D@2@@std@@QAAAAV12@ABV12@@Z
?assign@?$basic_string@DU?$char_traits@D@std@@V?$allocator@D@2@@std@@QAAAAV12@ABV12@II@Z
?assign@?$basic_string@DU?$char_traits@D@std@@V?$allocator@D@2@@std@@QAAAAV12@ID@Z
?assign@?$basic_string@DU?$char_traits@D@std@@V?$allocator@D@2@@std@@QAAAAV12@PBD0@Z
?assign@?$basic_string@DU?$char_traits@D@std@@V?$allocator@D@2@@std@@QAAAAV12@PBD@Z
?assign@?$basic_string@DU?$char_traits@D@std@@V?$allocator@D@2@@std@@QAAAAV12@PBDI@Z
?assign@?$basic_string@GU?$char_traits@G@std@@V?$allocator@G@2@@std@@QAAAAV12@ABV12@@Z
?assign@?$basic_string@GU?$char_traits@G@std@@V?$allocator@G@2@@std@@QAAAAV12@ABV12@II@Z
?assign@?$basic_string@GU?$char_traits@G@std@@V?$allocator@G@2@@std@@QAAAAV12@IG@Z
?assign@?$basic_string@GU?$char_traits@G@std@@V?$allocator@G@2@@std@@QAAAAV12@PBG0@Z
?assign@?$basic_string@GU?$char_traits@G@std@@V?$allocator@G@2@@std@@QAAAAV12@PBG@Z
?assign@?$basic_string@GU?$char_traits@G@std@@V?$allocator@G@2@@std@@QAAAAV12@PBGI@Z
?assign@?$char_traits@D@std@@SAPADPADIABD@Z
?assign@?$char_traits@D@std@@SAXAADABD@Z
?assign@?$char_traits@G@std@@SAPAGPAGIABG@Z
?assign@?$char_traits@G@std@@SAXAAGABG@Z
?at@?$basic_string@DU?$char_traits@D@std@@V?$allocator@D@2@@std@@QAAAADI@Z
?at@?$basic_string@DU?$char_traits@D@std@@V?$allocator@D@2@@std@@QBAABDI@Z
?at@?$basic_string@GU?$char_traits@G@std@@V?$allocator@G@2@@std@@QAAAAGI@Z
?at@?$basic_string@GU?$char_traits@G@std@@V?$allocator@G@2@@std@@QBAABGI@Z
?atan2@?$_Ctr@M@std@@SAMMM@Z
?atan2@?$_Ctr@N@std@@SANNN@Z
?atan2@?$_Ctr@O@std@@SAOOO@Z
?bad@ios_base@std@@QBA_NXZ
?begin@?$basic_string@DU?$char_traits@D@std@@V?$allocator@D@2@@std@@QAAPADXZ
?begin@?$basic_string@DU?$char_traits@D@std@@V?$allocator@D@2@@std@@QBAPBDXZ
?begin@?$basic_string@GU?$char_traits@G@std@@V?$allocator@G@2@@std@@QAAPAGXZ
?begin@?$basic_string@GU?$char_traits@G@std@@V?$allocator@G@2@@std@@QBAPBGXZ
?c_str@?$basic_string@DU?$char_traits@D@std@@V?$allocator@D@2@@std@@QBAPBDXZ
?c_str@?$basic_string@GU?$char_traits@G@std@@V?$allocator@G@2@@std@@QBAPBGXZ
?capacity@?$basic_string@DU?$char_traits@D@std@@V?$allocator@D@2@@std@@QBAIXZ
?capacity@?$basic_string@GU?$char_traits@G@std@@V?$allocator@G@2@@std@@QBAIXZ
?cerr@std@@3V?$basic_ostream@DU?$char_traits@D@std@@@1@A DATA
?cin@std@@3V?$basic_istream@DU?$char_traits@D@std@@@1@A DATA
?classic@locale@std@@SAABV12@XZ
?classic_table@?$ctype@D@std@@KAPBFXZ
?clear@?$basic_ios@DU?$char_traits@D@std@@@std@@QAAXF@Z
?clear@?$basic_ios@DU?$char_traits@D@std@@@std@@QAAXH_N@Z
?clear@?$basic_ios@GU?$char_traits@G@std@@@std@@QAAXF@Z
?clear@?$basic_ios@GU?$char_traits@G@std@@@std@@QAAXH_N@Z
?clear@ios_base@std@@QAAXF@Z
?clear@ios_base@std@@QAAXH_N@Z
?clog@std@@3V?$basic_ostream@DU?$char_traits@D@std@@@1@A DATA
?close@?$basic_filebuf@DU?$char_traits@D@std@@@std@@QAAPAV12@XZ
?close@?$basic_filebuf@GU?$char_traits@G@std@@@std@@QAAPAV12@XZ
?close@?$basic_fstream@DU?$char_traits@D@std@@@std@@QAAXXZ
?close@?$basic_fstream@GU?$char_traits@G@std@@@std@@QAAXXZ
?close@?$basic_ifstream@DU?$char_traits@D@std@@@std@@QAAXXZ
?close@?$basic_ifstream@GU?$char_traits@G@std@@@std@@QAAXXZ
?close@?$basic_ofstream@DU?$char_traits@D@std@@@std@@QAAXXZ
?close@?$basic_ofstream@GU?$char_traits@G@std@@@std@@QAAXXZ
?close@?$messages@D@std@@QBAXH@Z
?close@?$messages@G@std@@QBAXH@Z
?compare@?$basic_string@DU?$char_traits@D@std@@V?$allocator@D@2@@std@@QBAHABV12@@Z
?compare@?$basic_string@DU?$char_traits@D@std@@V?$allocator@D@2@@std@@QBAHIIABV12@@Z
?compare@?$basic_string@DU?$char_traits@D@std@@V?$allocator@D@2@@std@@QBAHIIABV12@II@Z
?compare@?$basic_string@DU?$char_traits@D@std@@V?$allocator@D@2@@std@@QBAHIIPBD@Z
?compare@?$basic_string@DU?$char_traits@D@std@@V?$allocator@D@2@@std@@QBAHIIPBDI@Z
?compare@?$basic_string@DU?$char_traits@D@std@@V?$allocator@D@2@@std@@QBAHPBD@Z
?compare@?$basic_string@GU?$char_traits@G@std@@V?$allocator@G@2@@std@@QBAHABV12@@Z
?compare@?$basic_string@GU?$char_traits@G@std@@V?$allocator@G@2@@std@@QBAHIIABV12@@Z
?compare@?$basic_string@GU?$char_traits@G@std@@V?$allocator@G@2@@std@@QBAHIIABV12@II@Z
?compare@?$basic_string@GU?$char_traits@G@std@@V?$allocator@G@2@@std@@QBAHIIPBG@Z
?compare@?$basic_string@GU?$char_traits@G@std@@V?$allocator@G@2@@std@@QBAHIIPBGI@Z
?compare@?$basic_string@GU?$char_traits@G@std@@V?$allocator@G@2@@std@@QBAHPBG@Z
?compare@?$char_traits@D@std@@SAHPBD0I@Z
?compare@?$char_traits@G@std@@SAHPBG0I@Z
?compare@?$collate@D@std@@QBAHPBD000@Z
?compare@?$collate@G@std@@QBAHPBG000@Z
?conj@std@@YA?AV?$complex@M@1@ABV21@@Z
?conj@std@@YA?AV?$complex@N@1@ABV21@@Z
?conj@std@@YA?AV?$complex@O@1@ABV21@@Z
?copy@?$basic_string@DU?$char_traits@D@std@@V?$allocator@D@2@@std@@QBAIPADII@Z
?copy@?$basic_string@GU?$char_traits@G@std@@V?$allocator@G@2@@std@@QBAIPAGII@Z
?copy@?$char_traits@D@std@@SAPADPADPBDI@Z
?copy@?$char_traits@G@std@@SAPAGPAGPBGI@Z
?copyfmt@?$basic_ios@DU?$char_traits@D@std@@@std@@QAAAAV12@ABV12@@Z
?copyfmt@?$basic_ios@GU?$char_traits@G@std@@@std@@QAAAAV12@ABV12@@Z
?copyfmt@ios_base@std@@QAAAAV12@ABV12@@Z
?cos@?$_Ctr@M@std@@SAMM@Z
?cos@?$_Ctr@N@std@@SANN@Z
?cos@?$_Ctr@O@std@@SAOO@Z
?cos@std@@YA?AV?$complex@M@1@ABV21@@Z
?cos@std@@YA?AV?$complex@N@1@ABV21@@Z
?cos@std@@YA?AV?$complex@O@1@ABV21@@Z
?cosh@std@@YA?AV?$complex@M@1@ABV21@@Z
?cosh@std@@YA?AV?$complex@N@1@ABV21@@Z
?cosh@std@@YA?AV?$complex@O@1@ABV21@@Z
?cout@std@@3V?$basic_ostream@DU?$char_traits@D@std@@@1@A DATA
?curr_symbol@?$_Mpunct@D@std@@QBA?AV?$basic_string@DU?$char_traits@D@std@@V?$allocator@D@2@@2@XZ
?curr_symbol@?$_Mpunct@G@std@@QBA?AV?$basic_string@GU?$char_traits@G@std@@V?$allocator@G@2@@2@XZ
?data@?$basic_string@DU?$char_traits@D@std@@V?$allocator@D@2@@std@@QBAPBDXZ
?data@?$basic_string@GU?$char_traits@G@std@@V?$allocator@G@2@@std@@QBAPBGXZ
?date_order@?$time_get@DV?$istreambuf_iterator@DU?$char_traits@D@std@@@std@@@std@@QBAHXZ
?date_order@?$time_get@GV?$istreambuf_iterator@GU?$char_traits@G@std@@@std@@@std@@QBAHXZ
?decimal_point@?$_Mpunct@D@std@@QBADXZ
?decimal_point@?$_Mpunct@G@std@@QBAGXZ
?decimal_point@?$numpunct@D@std@@QBADXZ
?decimal_point@?$numpunct@G@std@@QBAGXZ
?denorm_min@?$numeric_limits@C@std@@SACXZ
?denorm_min@?$numeric_limits@D@std@@SADXZ
?denorm_min@?$numeric_limits@E@std@@SAEXZ
?denorm_min@?$numeric_limits@F@std@@SAFXZ
?denorm_min@?$numeric_limits@G@std@@SAGXZ
?denorm_min@?$numeric_limits@H@std@@SAHXZ
?denorm_min@?$numeric_limits@I@std@@SAIXZ
?denorm_min@?$numeric_limits@J@std@@SAJXZ
?denorm_min@?$numeric_limits@K@std@@SAKXZ
?denorm_min@?$numeric_limits@M@std@@SAMXZ
?denorm_min@?$numeric_limits@N@std@@SANXZ
?denorm_min@?$numeric_limits@O@std@@SAOXZ
?denorm_min@?$numeric_limits@_N@std@@SA_NXZ
?do_always_noconv@?$codecvt@GDH@std@@MBA_NXZ
?do_always_noconv@codecvt_base@std@@MBA_NXZ
?do_close@?$messages@D@std@@MBAXH@Z
?do_close@?$messages@G@std@@MBAXH@Z
?do_compare@?$collate@D@std@@MBAHPBD000@Z
?do_compare@?$collate@G@std@@MBAHPBG000@Z
?do_curr_symbol@?$_Mpunct@D@std@@MBA?AV?$basic_string@DU?$char_traits@D@std@@V?$allocator@D@2@@2@XZ
?do_curr_symbol@?$_Mpunct@G@std@@MBA?AV?$basic_string@GU?$char_traits@G@std@@V?$allocator@G@2@@2@XZ
?do_date_order@?$time_get@DV?$istreambuf_iterator@DU?$char_traits@D@std@@@std@@@std@@MBAHXZ
?do_date_order@?$time_get@GV?$istreambuf_iterator@GU?$char_traits@G@std@@@std@@@std@@MBAHXZ
?do_decimal_point@?$_Mpunct@D@std@@MBADXZ
?do_decimal_point@?$_Mpunct@G@std@@MBAGXZ
?do_decimal_point@?$numpunct@D@std@@MBADXZ
?do_decimal_point@?$numpunct@G@std@@MBAGXZ
?do_encoding@?$codecvt@GDH@std@@MBAHXZ
?do_encoding@codecvt_base@std@@MBAHXZ
?do_falsename@?$numpunct@D@std@@MBA?AV?$basic_string@DU?$char_traits@D@std@@V?$allocator@D@2@@2@XZ
?do_falsename@?$numpunct@G@std@@MBA?AV?$basic_string@GU?$char_traits@G@std@@V?$allocator@G@2@@2@XZ
?do_frac_digits@?$_Mpunct@D@std@@MBAHXZ
?do_frac_digits@?$_Mpunct@G@std@@MBAHXZ
?do_get@?$messages@D@std@@MBA?AV?$basic_string@DU?$char_traits@D@std@@V?$allocator@D@2@@2@HHHABV32@@Z
?do_get@?$messages@G@std@@MBA?AV?$basic_string@GU?$char_traits@G@std@@V?$allocator@G@2@@2@HHHABV32@@Z
?do_get@?$money_get@DV?$istreambuf_iterator@DU?$char_traits@D@std@@@std@@@std@@MBA?AV?$istreambuf_iterator@DU?$char_traits@D@std@@@2@V32@0_NAAVios_base@2@AAHAAO@Z
?do_get@?$money_get@DV?$istreambuf_iterator@DU?$char_traits@D@std@@@std@@@std@@MBA?AV?$istreambuf_iterator@DU?$char_traits@D@std@@@2@V32@0_NAAVios_base@2@AAHAAV?$basic_string@DU?$char_traits@D@std@@V?$allocator@D@2@@2@@Z
?do_get@?$money_get@GV?$istreambuf_iterator@GU?$char_traits@G@std@@@std@@@std@@MBA?AV?$istreambuf_iterator@GU?$char_traits@G@std@@@2@V32@0_NAAVios_base@2@AAHAAO@Z
?do_get@?$money_get@GV?$istreambuf_iterator@GU?$char_traits@G@std@@@std@@@std@@MBA?AV?$istreambuf_iterator@GU?$char_traits@G@std@@@2@V32@0_NAAVios_base@2@AAHAAV?$basic_string@GU?$char_traits@G@std@@V?$allocator@G@2@@2@@Z
?do_get@?$num_get@DV?$istreambuf_iterator@DU?$char_traits@D@std@@@std@@@std@@MBA?AV?$istreambuf_iterator@DU?$char_traits@D@std@@@2@V32@0AAVios_base@2@AAHAAG@Z
?do_get@?$num_get@DV?$istreambuf_iterator@DU?$char_traits@D@std@@@std@@@std@@MBA?AV?$istreambuf_iterator@DU?$char_traits@D@std@@@2@V32@0AAVios_base@2@AAHAAI@Z
?do_get@?$num_get@DV?$istreambuf_iterator@DU?$char_traits@D@std@@@std@@@std@@MBA?AV?$istreambuf_iterator@DU?$char_traits@D@std@@@2@V32@0AAVios_base@2@AAHAAJ@Z
?do_get@?$num_get@DV?$istreambuf_iterator@DU?$char_traits@D@std@@@std@@@std@@MBA?AV?$istreambuf_iterator@DU?$char_traits@D@std@@@2@V32@0AAVios_base@2@AAHAAK@Z
?do_get@?$num_get@DV?$istreambuf_iterator@DU?$char_traits@D@std@@@std@@@std@@MBA?AV?$istreambuf_iterator@DU?$char_traits@D@std@@@2@V32@0AAVios_base@2@AAHAAM@Z
?do_get@?$num_get@DV?$istreambuf_iterator@DU?$char_traits@D@std@@@std@@@std@@MBA?AV?$istreambuf_iterator@DU?$char_traits@D@std@@@2@V32@0AAVios_base@2@AAHAAN@Z
?do_get@?$num_get@DV?$istreambuf_iterator@DU?$char_traits@D@std@@@std@@@std@@MBA?AV?$istreambuf_iterator@DU?$char_traits@D@std@@@2@V32@0AAVios_base@2@AAHAAO@Z
?do_get@?$num_get@DV?$istreambuf_iterator@DU?$char_traits@D@std@@@std@@@std@@MBA?AV?$istreambuf_iterator@DU?$char_traits@D@std@@@2@V32@0AAVios_base@2@AAHAAPAX@Z
?do_get@?$num_get@DV?$istreambuf_iterator@DU?$char_traits@D@std@@@std@@@std@@MBA?AV?$istreambuf_iterator@DU?$char_traits@D@std@@@2@V32@0AAVios_base@2@AAHAA_N@Z
?do_get@?$num_get@GV?$istreambuf_iterator@GU?$char_traits@G@std@@@std@@@std@@MBA?AV?$istreambuf_iterator@GU?$char_traits@G@std@@@2@V32@0AAVios_base@2@AAHAAG@Z
?do_get@?$num_get@GV?$istreambuf_iterator@GU?$char_traits@G@std@@@std@@@std@@MBA?AV?$istreambuf_iterator@GU?$char_traits@G@std@@@2@V32@0AAVios_base@2@AAHAAI@Z
?do_get@?$num_get@GV?$istreambuf_iterator@GU?$char_traits@G@std@@@std@@@std@@MBA?AV?$istreambuf_iterator@GU?$char_traits@G@std@@@2@V32@0AAVios_base@2@AAHAAJ@Z
?do_get@?$num_get@GV?$istreambuf_iterator@GU?$char_traits@G@std@@@std@@@std@@MBA?AV?$istreambuf_iterator@GU?$char_traits@G@std@@@2@V32@0AAVios_base@2@AAHAAK@Z
?do_get@?$num_get@GV?$istreambuf_iterator@GU?$char_traits@G@std@@@std@@@std@@MBA?AV?$istreambuf_iterator@GU?$char_traits@G@std@@@2@V32@0AAVios_base@2@AAHAAM@Z
?do_get@?$num_get@GV?$istreambuf_iterator@GU?$char_traits@G@std@@@std@@@std@@MBA?AV?$istreambuf_iterator@GU?$char_traits@G@std@@@2@V32@0AAVios_base@2@AAHAAN@Z
?do_get@?$num_get@GV?$istreambuf_iterator@GU?$char_traits@G@std@@@std@@@std@@MBA?AV?$istreambuf_iterator@GU?$char_traits@G@std@@@2@V32@0AAVios_base@2@AAHAAO@Z
?do_get@?$num_get@GV?$istreambuf_iterator@GU?$char_traits@G@std@@@std@@@std@@MBA?AV?$istreambuf_iterator@GU?$char_traits@G@std@@@2@V32@0AAVios_base@2@AAHAAPAX@Z
?do_get@?$num_get@GV?$istreambuf_iterator@GU?$char_traits@G@std@@@std@@@std@@MBA?AV?$istreambuf_iterator@GU?$char_traits@G@std@@@2@V32@0AAVios_base@2@AAHAA_N@Z
?do_get_date@?$time_get@DV?$istreambuf_iterator@DU?$char_traits@D@std@@@std@@@std@@MBA?AV?$istreambuf_iterator@DU?$char_traits@D@std@@@2@V32@0AAVios_base@2@AAHPAUtm@@@Z
?do_get_date@?$time_get@GV?$istreambuf_iterator@GU?$char_traits@G@std@@@std@@@std@@MBA?AV?$istreambuf_iterator@GU?$char_traits@G@std@@@2@V32@0AAVios_base@2@AAHPAUtm@@@Z
?do_get_monthname@?$time_get@DV?$istreambuf_iterator@DU?$char_traits@D@std@@@std@@@std@@MBA?AV?$istreambuf_iterator@DU?$char_traits@D@std@@@2@V32@0AAVios_base@2@AAHPAUtm@@@Z
?do_get_monthname@?$time_get@GV?$istreambuf_iterator@GU?$char_traits@G@std@@@std@@@std@@MBA?AV?$istreambuf_iterator@GU?$char_traits@G@std@@@2@V32@0AAVios_base@2@AAHPAUtm@@@Z
?do_get_time@?$time_get@DV?$istreambuf_iterator@DU?$char_traits@D@std@@@std@@@std@@MBA?AV?$istreambuf_iterator@DU?$char_traits@D@std@@@2@V32@0AAVios_base@2@AAHPAUtm@@@Z
?do_get_time@?$time_get@GV?$istreambuf_iterator@GU?$char_traits@G@std@@@std@@@std@@MBA?AV?$istreambuf_iterator@GU?$char_traits@G@std@@@2@V32@0AAVios_base@2@AAHPAUtm@@@Z
?do_get_weekday@?$time_get@DV?$istreambuf_iterator@DU?$char_traits@D@std@@@std@@@std@@MBA?AV?$istreambuf_iterator@DU?$char_traits@D@std@@@2@V32@0AAVios_base@2@AAHPAUtm@@@Z
?do_get_weekday@?$time_get@GV?$istreambuf_iterator@GU?$char_traits@G@std@@@std@@@std@@MBA?AV?$istreambuf_iterator@GU?$char_traits@G@std@@@2@V32@0AAVios_base@2@AAHPAUtm@@@Z
?do_get_year@?$time_get@DV?$istreambuf_iterator@DU?$char_traits@D@std@@@std@@@std@@MBA?AV?$istreambuf_iterator@DU?$char_traits@D@std@@@2@V32@0AAVios_base@2@AAHPAUtm@@@Z
?do_get_year@?$time_get@GV?$istreambuf_iterator@GU?$char_traits@G@std@@@std@@@std@@MBA?AV?$istreambuf_iterator@GU?$char_traits@G@std@@@2@V32@0AAVios_base@2@AAHPAUtm@@@Z
?do_grouping@?$_Mpunct@D@std@@MBA?AV?$basic_string@DU?$char_traits@D@std@@V?$allocator@D@2@@2@XZ
?do_grouping@?$_Mpunct@G@std@@MBA?AV?$basic_string@DU?$char_traits@D@std@@V?$allocator@D@2@@2@XZ
?do_grouping@?$numpunct@D@std@@MBA?AV?$basic_string@DU?$char_traits@D@std@@V?$allocator@D@2@@2@XZ
?do_grouping@?$numpunct@G@std@@MBA?AV?$basic_string@DU?$char_traits@D@std@@V?$allocator@D@2@@2@XZ
?do_hash@?$collate@D@std@@MBAJPBD0@Z
?do_hash@?$collate@G@std@@MBAJPBG0@Z
?do_in@?$codecvt@DDH@std@@MBAHAAHPBD1AAPBDPAD3AAPAD@Z
?do_in@?$codecvt@GDH@std@@MBAHAAHPBD1AAPBDPAG3AAPAG@Z
?do_is@?$ctype@G@std@@MBAPBGPBG0PAF@Z
?do_is@?$ctype@G@std@@MBA_NFG@Z
?do_length@?$codecvt@DDH@std@@MBAHAAHPBD1I@Z
?do_length@?$codecvt@GDH@std@@MBAHAAHPBG1I@Z
?do_max_length@?$codecvt@GDH@std@@MBAHXZ
?do_max_length@codecvt_base@std@@MBAHXZ
?do_narrow@?$ctype@G@std@@MBADGD@Z
?do_narrow@?$ctype@G@std@@MBAPBGPBG0DPAD@Z
?do_neg_format@?$_Mpunct@D@std@@MBA?AUpattern@money_base@2@XZ
?do_neg_format@?$_Mpunct@G@std@@MBA?AUpattern@money_base@2@XZ
?do_negative_sign@?$_Mpunct@D@std@@MBA?AV?$basic_string@DU?$char_traits@D@std@@V?$allocator@D@2@@2@XZ
?do_negative_sign@?$_Mpunct@G@std@@MBA?AV?$basic_string@GU?$char_traits@G@std@@V?$allocator@G@2@@2@XZ
?do_open@?$messages@D@std@@MBAHABV?$basic_string@DU?$char_traits@D@std@@V?$allocator@D@2@@2@ABVlocale@2@@Z
?do_open@?$messages@G@std@@MBAHABV?$basic_string@DU?$char_traits@D@std@@V?$allocator@D@2@@2@ABVlocale@2@@Z
?do_out@?$codecvt@DDH@std@@MBAHAAHPBD1AAPBDPAD3AAPAD@Z
?do_out@?$codecvt@GDH@std@@MBAHAAHPBG1AAPBGPAD3AAPAD@Z
?do_pos_format@?$_Mpunct@D@std@@MBA?AUpattern@money_base@2@XZ
?do_pos_format@?$_Mpunct@G@std@@MBA?AUpattern@money_base@2@XZ
?do_positive_sign@?$_Mpunct@D@std@@MBA?AV?$basic_string@DU?$char_traits@D@std@@V?$allocator@D@2@@2@XZ
?do_positive_sign@?$_Mpunct@G@std@@MBA?AV?$basic_string@GU?$char_traits@G@std@@V?$allocator@G@2@@2@XZ
?do_put@?$money_put@DV?$ostreambuf_iterator@DU?$char_traits@D@std@@@std@@@std@@MBA?AV?$ostreambuf_iterator@DU?$char_traits@D@std@@@2@V32@_NAAVios_base@2@DABV?$basic_string@DU?$char_traits@D@std@@V?$allocator@D@2@@2@@Z
?do_put@?$money_put@DV?$ostreambuf_iterator@DU?$char_traits@D@std@@@std@@@std@@MBA?AV?$ostreambuf_iterator@DU?$char_traits@D@std@@@2@V32@_NAAVios_base@2@DO@Z
?do_put@?$money_put@GV?$ostreambuf_iterator@GU?$char_traits@G@std@@@std@@@std@@MBA?AV?$ostreambuf_iterator@GU?$char_traits@G@std@@@2@V32@_NAAVios_base@2@GABV?$basic_string@GU?$char_traits@G@std@@V?$allocator@G@2@@2@@Z
?do_put@?$money_put@GV?$ostreambuf_iterator@GU?$char_traits@G@std@@@std@@@std@@MBA?AV?$ostreambuf_iterator@GU?$char_traits@G@std@@@2@V32@_NAAVios_base@2@GO@Z
?do_put@?$num_put@DV?$ostreambuf_iterator@DU?$char_traits@D@std@@@std@@@std@@MBA?AV?$ostreambuf_iterator@DU?$char_traits@D@std@@@2@V32@AAVios_base@2@DJ@Z
?do_put@?$num_put@DV?$ostreambuf_iterator@DU?$char_traits@D@std@@@std@@@std@@MBA?AV?$ostreambuf_iterator@DU?$char_traits@D@std@@@2@V32@AAVios_base@2@DK@Z
?do_put@?$num_put@DV?$ostreambuf_iterator@DU?$char_traits@D@std@@@std@@@std@@MBA?AV?$ostreambuf_iterator@DU?$char_traits@D@std@@@2@V32@AAVios_base@2@DN@Z
?do_put@?$num_put@DV?$ostreambuf_iterator@DU?$char_traits@D@std@@@std@@@std@@MBA?AV?$ostreambuf_iterator@DU?$char_traits@D@std@@@2@V32@AAVios_base@2@DO@Z
?do_put@?$num_put@DV?$ostreambuf_iterator@DU?$char_traits@D@std@@@std@@@std@@MBA?AV?$ostreambuf_iterator@DU?$char_traits@D@std@@@2@V32@AAVios_base@2@DPBX@Z
?do_put@?$num_put@DV?$ostreambuf_iterator@DU?$char_traits@D@std@@@std@@@std@@MBA?AV?$ostreambuf_iterator@DU?$char_traits@D@std@@@2@V32@AAVios_base@2@D_N@Z
?do_put@?$num_put@GV?$ostreambuf_iterator@GU?$char_traits@G@std@@@std@@@std@@MBA?AV?$ostreambuf_iterator@GU?$char_traits@G@std@@@2@V32@AAVios_base@2@GJ@Z
?do_put@?$num_put@GV?$ostreambuf_iterator@GU?$char_traits@G@std@@@std@@@std@@MBA?AV?$ostreambuf_iterator@GU?$char_traits@G@std@@@2@V32@AAVios_base@2@GK@Z
?do_put@?$num_put@GV?$ostreambuf_iterator@GU?$char_traits@G@std@@@std@@@std@@MBA?AV?$ostreambuf_iterator@GU?$char_traits@G@std@@@2@V32@AAVios_base@2@GN@Z
?do_put@?$num_put@GV?$ostreambuf_iterator@GU?$char_traits@G@std@@@std@@@std@@MBA?AV?$ostreambuf_iterator@GU?$char_traits@G@std@@@2@V32@AAVios_base@2@GO@Z
?do_put@?$num_put@GV?$ostreambuf_iterator@GU?$char_traits@G@std@@@std@@@std@@MBA?AV?$ostreambuf_iterator@GU?$char_traits@G@std@@@2@V32@AAVios_base@2@GPBX@Z
?do_put@?$num_put@GV?$ostreambuf_iterator@GU?$char_traits@G@std@@@std@@@std@@MBA?AV?$ostreambuf_iterator@GU?$char_traits@G@std@@@2@V32@AAVios_base@2@G_N@Z
?do_put@?$time_put@DV?$ostreambuf_iterator@DU?$char_traits@D@std@@@std@@@std@@MBA?AV?$ostreambuf_iterator@DU?$char_traits@D@std@@@2@V32@AAVios_base@2@PBUtm@@DD@Z
?do_put@?$time_put@GV?$ostreambuf_iterator@GU?$char_traits@G@std@@@std@@@std@@MBA?AV?$ostreambuf_iterator@GU?$char_traits@G@std@@@2@V32@AAVios_base@2@PBUtm@@DD@Z
?do_scan_is@?$ctype@G@std@@MBAPBGFPBG0@Z
?do_scan_not@?$ctype@G@std@@MBAPBGFPBG0@Z
?do_thousands_sep@?$_Mpunct@D@std@@MBADXZ
?do_thousands_sep@?$_Mpunct@G@std@@MBAGXZ
?do_thousands_sep@?$numpunct@D@std@@MBADXZ
?do_thousands_sep@?$numpunct@G@std@@MBAGXZ
?do_tolower@?$ctype@D@std@@MBADD@Z
?do_tolower@?$ctype@D@std@@MBAPBDPADPBD@Z
?do_tolower@?$ctype@G@std@@MBAGG@Z
?do_tolower@?$ctype@G@std@@MBAPBGPAGPBG@Z
?do_toupper@?$ctype@D@std@@MBADD@Z
?do_toupper@?$ctype@D@std@@MBAPBDPADPBD@Z
?do_toupper@?$ctype@G@std@@MBAGG@Z
?do_toupper@?$ctype@G@std@@MBAPBGPAGPBG@Z
?do_transform@?$collate@D@std@@MBA?AV?$basic_string@DU?$char_traits@D@std@@V?$allocator@D@2@@2@PBD0@Z
?do_transform@?$collate@G@std@@MBA?AV?$basic_string@GU?$char_traits@G@std@@V?$allocator@G@2@@2@PBG0@Z
?do_truename@?$numpunct@D@std@@MBA?AV?$basic_string@DU?$char_traits@D@std@@V?$allocator@D@2@@2@XZ
?do_truename@?$numpunct@G@std@@MBA?AV?$basic_string@GU?$char_traits@G@std@@V?$allocator@G@2@@2@XZ
?do_widen@?$ctype@G@std@@MBAGD@Z
?do_widen@?$ctype@G@std@@MBAPBDPBD0PAG@Z
?eback@?$basic_streambuf@DU?$char_traits@D@std@@@std@@IBAPADXZ
?eback@?$basic_streambuf@GU?$char_traits@G@std@@@std@@IBAPAGXZ
?egptr@?$basic_streambuf@DU?$char_traits@D@std@@@std@@IBAPADXZ
?egptr@?$basic_streambuf@GU?$char_traits@G@std@@@std@@IBAPAGXZ
?empty@?$basic_string@DU?$char_traits@D@std@@V?$allocator@D@2@@std@@QBA_NXZ
?empty@?$basic_string@GU?$char_traits@G@std@@V?$allocator@G@2@@std@@QBA_NXZ
?empty@locale@std@@SA?AV12@XZ
?encoding@codecvt_base@std@@QBAHXZ
?end@?$basic_string@DU?$char_traits@D@std@@V?$allocator@D@2@@std@@QAAPADXZ
?end@?$basic_string@DU?$char_traits@D@std@@V?$allocator@D@2@@std@@QBAPBDXZ
?end@?$basic_string@GU?$char_traits@G@std@@V?$allocator@G@2@@std@@QAAPAGXZ
?end@?$basic_string@GU?$char_traits@G@std@@V?$allocator@G@2@@std@@QBAPBGXZ
?endl@std@@YAAAV?$basic_ostream@DU?$char_traits@D@std@@@1@AAV21@@Z
?endl@std@@YAAAV?$basic_ostream@GU?$char_traits@G@std@@@1@AAV21@@Z
?ends@std@@YAAAV?$basic_ostream@DU?$char_traits@D@std@@@1@AAV21@@Z
?ends@std@@YAAAV?$basic_ostream@GU?$char_traits@G@std@@@1@AAV21@@Z
?eof@?$char_traits@D@std@@SAHXZ
?eof@?$char_traits@G@std@@SAGXZ
?eof@ios_base@std@@QBA_NXZ
?epptr@?$basic_streambuf@DU?$char_traits@D@std@@@std@@IBAPADXZ
?epptr@?$basic_streambuf@GU?$char_traits@G@std@@@std@@IBAPAGXZ
?epsilon@?$numeric_limits@C@std@@SACXZ
?epsilon@?$numeric_limits@D@std@@SADXZ
?epsilon@?$numeric_limits@E@std@@SAEXZ
?epsilon@?$numeric_limits@F@std@@SAFXZ
?epsilon@?$numeric_limits@G@std@@SAGXZ
?epsilon@?$numeric_limits@H@std@@SAHXZ
?epsilon@?$numeric_limits@I@std@@SAIXZ
?epsilon@?$numeric_limits@J@std@@SAJXZ
?epsilon@?$numeric_limits@K@std@@SAKXZ
?epsilon@?$numeric_limits@M@std@@SAMXZ
?epsilon@?$numeric_limits@N@std@@SANXZ
?epsilon@?$numeric_limits@O@std@@SAOXZ
?epsilon@?$numeric_limits@_N@std@@SA_NXZ
?eq@?$char_traits@D@std@@SA_NABD0@Z
?eq@?$char_traits@G@std@@SA_NABG0@Z
?eq_int_type@?$char_traits@D@std@@SA_NABH0@Z
?eq_int_type@?$char_traits@G@std@@SA_NABG0@Z
?erase@?$basic_string@DU?$char_traits@D@std@@V?$allocator@D@2@@std@@QAAAAV12@II@Z
?erase@?$basic_string@DU?$char_traits@D@std@@V?$allocator@D@2@@std@@QAAPADPAD0@Z
?erase@?$basic_string@DU?$char_traits@D@std@@V?$allocator@D@2@@std@@QAAPADPAD@Z
?erase@?$basic_string@GU?$char_traits@G@std@@V?$allocator@G@2@@std@@QAAAAV12@II@Z
?erase@?$basic_string@GU?$char_traits@G@std@@V?$allocator@G@2@@std@@QAAPAGPAG0@Z
?erase@?$basic_string@GU?$char_traits@G@std@@V?$allocator@G@2@@std@@QAAPAGPAG@Z
?exceptions@ios_base@std@@QAAXF@Z
?exceptions@ios_base@std@@QAAXH@Z
?exceptions@ios_base@std@@QBAHXZ
?exp@?$_Ctr@M@std@@SAMM@Z
?exp@?$_Ctr@N@std@@SANN@Z
?exp@?$_Ctr@O@std@@SAOO@Z
?exp@std@@YA?AV?$complex@M@1@ABV21@@Z
?exp@std@@YA?AV?$complex@N@1@ABV21@@Z
?exp@std@@YA?AV?$complex@O@1@ABV21@@Z
?fail@ios_base@std@@QBA_NXZ
?falsename@?$numpunct@D@std@@QBA?AV?$basic_string@DU?$char_traits@D@std@@V?$allocator@D@2@@2@XZ
?falsename@?$numpunct@G@std@@QBA?AV?$basic_string@GU?$char_traits@G@std@@V?$allocator@G@2@@2@XZ
?fill@?$basic_ios@DU?$char_traits@D@std@@@std@@QAADD@Z
?fill@?$basic_ios@DU?$char_traits@D@std@@@std@@QBADXZ
?fill@?$basic_ios@GU?$char_traits@G@std@@@std@@QAAGG@Z
?fill@?$basic_ios@GU?$char_traits@G@std@@@std@@QBAGXZ
?find@?$basic_string@DU?$char_traits@D@std@@V?$allocator@D@2@@std@@QBAIABV12@I@Z
?find@?$basic_string@DU?$char_traits@D@std@@V?$allocator@D@2@@std@@QBAIDI@Z
?find@?$basic_string@DU?$char_traits@D@std@@V?$allocator@D@2@@std@@QBAIPBDI@Z
?find@?$basic_string@DU?$char_traits@D@std@@V?$allocator@D@2@@std@@QBAIPBDII@Z
?find@?$basic_string@GU?$char_traits@G@std@@V?$allocator@G@2@@std@@QBAIABV12@I@Z
?find@?$basic_string@GU?$char_traits@G@std@@V?$allocator@G@2@@std@@QBAIGI@Z
?find@?$basic_string@GU?$char_traits@G@std@@V?$allocator@G@2@@std@@QBAIPBGI@Z
?find@?$basic_string@GU?$char_traits@G@std@@V?$allocator@G@2@@std@@QBAIPBGII@Z
?find@?$char_traits@D@std@@SAPBDPBDIABD@Z
?find@?$char_traits@G@std@@SAPBGPBGIABG@Z
?find_first_not_of@?$basic_string@DU?$char_traits@D@std@@V?$allocator@D@2@@std@@QBAIABV12@I@Z
?find_first_not_of@?$basic_string@DU?$char_traits@D@std@@V?$allocator@D@2@@std@@QBAIDI@Z
?find_first_not_of@?$basic_string@DU?$char_traits@D@std@@V?$allocator@D@2@@std@@QBAIPBDI@Z
?find_first_not_of@?$basic_string@DU?$char_traits@D@std@@V?$allocator@D@2@@std@@QBAIPBDII@Z
?find_first_not_of@?$basic_string@GU?$char_traits@G@std@@V?$allocator@G@2@@std@@QBAIABV12@I@Z
?find_first_not_of@?$basic_string@GU?$char_traits@G@std@@V?$allocator@G@2@@std@@QBAIGI@Z
?find_first_not_of@?$basic_string@GU?$char_traits@G@std@@V?$allocator@G@2@@std@@QBAIPBGI@Z
?find_first_not_of@?$basic_string@GU?$char_traits@G@std@@V?$allocator@G@2@@std@@QBAIPBGII@Z
?find_first_of@?$basic_string@DU?$char_traits@D@std@@V?$allocator@D@2@@std@@QBAIABV12@I@Z
?find_first_of@?$basic_string@DU?$char_traits@D@std@@V?$allocator@D@2@@std@@QBAIDI@Z
?find_first_of@?$basic_string@DU?$char_traits@D@std@@V?$allocator@D@2@@std@@QBAIPBDI@Z
?find_first_of@?$basic_string@DU?$char_traits@D@std@@V?$allocator@D@2@@std@@QBAIPBDII@Z
?find_first_of@?$basic_string@GU?$char_traits@G@std@@V?$allocator@G@2@@std@@QBAIABV12@I@Z
?find_first_of@?$basic_string@GU?$char_traits@G@std@@V?$allocator@G@2@@std@@QBAIGI@Z
?find_first_of@?$basic_string@GU?$char_traits@G@std@@V?$allocator@G@2@@std@@QBAIPBGI@Z
?find_first_of@?$basic_string@GU?$char_traits@G@std@@V?$allocator@G@2@@std@@QBAIPBGII@Z
?find_last_not_of@?$basic_string@DU?$char_traits@D@std@@V?$allocator@D@2@@std@@QBAIABV12@I@Z
?find_last_not_of@?$basic_string@DU?$char_traits@D@std@@V?$allocator@D@2@@std@@QBAIDI@Z
?find_last_not_of@?$basic_string@DU?$char_traits@D@std@@V?$allocator@D@2@@std@@QBAIPBDI@Z
?find_last_not_of@?$basic_string@DU?$char_traits@D@std@@V?$allocator@D@2@@std@@QBAIPBDII@Z
?find_last_not_of@?$basic_string@GU?$char_traits@G@std@@V?$allocator@G@2@@std@@QBAIABV12@I@Z
?find_last_not_of@?$basic_string@GU?$char_traits@G@std@@V?$allocator@G@2@@std@@QBAIGI@Z
?find_last_not_of@?$basic_string@GU?$char_traits@G@std@@V?$allocator@G@2@@std@@QBAIPBGI@Z
?find_last_not_of@?$basic_string@GU?$char_traits@G@std@@V?$allocator@G@2@@std@@QBAIPBGII@Z
?find_last_of@?$basic_string@DU?$char_traits@D@std@@V?$allocator@D@2@@std@@QBAIABV12@I@Z
?find_last_of@?$basic_string@DU?$char_traits@D@std@@V?$allocator@D@2@@std@@QBAIDI@Z
?find_last_of@?$basic_string@DU?$char_traits@D@std@@V?$allocator@D@2@@std@@QBAIPBDI@Z
?find_last_of@?$basic_string@DU?$char_traits@D@std@@V?$allocator@D@2@@std@@QBAIPBDII@Z
?find_last_of@?$basic_string@GU?$char_traits@G@std@@V?$allocator@G@2@@std@@QBAIABV12@I@Z
?find_last_of@?$basic_string@GU?$char_traits@G@std@@V?$allocator@G@2@@std@@QBAIGI@Z
?find_last_of@?$basic_string@GU?$char_traits@G@std@@V?$allocator@G@2@@std@@QBAIPBGI@Z
?find_last_of@?$basic_string@GU?$char_traits@G@std@@V?$allocator@G@2@@std@@QBAIPBGII@Z
?flags@ios_base@std@@QAAHH@Z
?flags@ios_base@std@@QBAHXZ
?flush@?$basic_ostream@DU?$char_traits@D@std@@@std@@QAAAAV12@XZ
?flush@?$basic_ostream@GU?$char_traits@G@std@@@std@@QAAAAV12@XZ
?flush@std@@YAAAV?$basic_ostream@DU?$char_traits@D@std@@@1@AAV21@@Z
?flush@std@@YAAAV?$basic_ostream@GU?$char_traits@G@std@@@1@AAV21@@Z
?frac_digits@?$_Mpunct@D@std@@QBAHXZ
?frac_digits@?$_Mpunct@G@std@@QBAHXZ
?freeze@strstreambuf@std@@QAAX_N@Z
?gbump@?$basic_streambuf@DU?$char_traits@D@std@@@std@@IAAXH@Z
?gbump@?$basic_streambuf@GU?$char_traits@G@std@@@std@@IAAXH@Z
?gcount@?$basic_istream@DU?$char_traits@D@std@@@std@@QBAHXZ
?gcount@?$basic_istream@GU?$char_traits@G@std@@@std@@QBAHXZ
?get@?$basic_istream@DU?$char_traits@D@std@@@std@@QAAAAV12@AAD@Z
?get@?$basic_istream@DU?$char_traits@D@std@@@std@@QAAAAV12@AAV?$basic_streambuf@DU?$char_traits@D@std@@@2@@Z
?get@?$basic_istream@DU?$char_traits@D@std@@@std@@QAAAAV12@AAV?$basic_streambuf@DU?$char_traits@D@std@@@2@D@Z
?get@?$basic_istream@DU?$char_traits@D@std@@@std@@QAAAAV12@PADH@Z
?get@?$basic_istream@DU?$char_traits@D@std@@@std@@QAAAAV12@PADHD@Z
?get@?$basic_istream@DU?$char_traits@D@std@@@std@@QAAHXZ
?get@?$basic_istream@GU?$char_traits@G@std@@@std@@QAAAAV12@AAG@Z
?get@?$basic_istream@GU?$char_traits@G@std@@@std@@QAAAAV12@AAV?$basic_streambuf@GU?$char_traits@G@std@@@2@@Z
?get@?$basic_istream@GU?$char_traits@G@std@@@std@@QAAAAV12@AAV?$basic_streambuf@GU?$char_traits@G@std@@@2@G@Z
?get@?$basic_istream@GU?$char_traits@G@std@@@std@@QAAAAV12@PAGH@Z
?get@?$basic_istream@GU?$char_traits@G@std@@@std@@QAAAAV12@PAGHG@Z
?get@?$basic_istream@GU?$char_traits@G@std@@@std@@QAAGXZ
?get@?$messages@D@std@@QBA?AV?$basic_string@DU?$char_traits@D@std@@V?$allocator@D@2@@2@HHHABV32@@Z
?get@?$messages@G@std@@QBA?AV?$basic_string@GU?$char_traits@G@std@@V?$allocator@G@2@@2@HHHABV32@@Z
?get@?$money_get@DV?$istreambuf_iterator@DU?$char_traits@D@std@@@std@@@std@@QBA?AV?$istreambuf_iterator@DU?$char_traits@D@std@@@2@V32@0_NAAVios_base@2@AAHAAO@Z
?get@?$money_get@DV?$istreambuf_iterator@DU?$char_traits@D@std@@@std@@@std@@QBA?AV?$istreambuf_iterator@DU?$char_traits@D@std@@@2@V32@0_NAAVios_base@2@AAHAAV?$basic_string@DU?$char_traits@D@std@@V?$allocator@D@2@@2@@Z
?get@?$money_get@GV?$istreambuf_iterator@GU?$char_traits@G@std@@@std@@@std@@QBA?AV?$istreambuf_iterator@GU?$char_traits@G@std@@@2@V32@0_NAAVios_base@2@AAHAAO@Z
?get@?$money_get@GV?$istreambuf_iterator@GU?$char_traits@G@std@@@std@@@std@@QBA?AV?$istreambuf_iterator@GU?$char_traits@G@std@@@2@V32@0_NAAVios_base@2@AAHAAV?$basic_string@GU?$char_traits@G@std@@V?$allocator@G@2@@2@@Z
?get@?$num_get@DV?$istreambuf_iterator@DU?$char_traits@D@std@@@std@@@std@@QBA?AV?$istreambuf_iterator@DU?$char_traits@D@std@@@2@V32@0AAVios_base@2@AAHAAG@Z
?get@?$num_get@DV?$istreambuf_iterator@DU?$char_traits@D@std@@@std@@@std@@QBA?AV?$istreambuf_iterator@DU?$char_traits@D@std@@@2@V32@0AAVios_base@2@AAHAAI@Z
?get@?$num_get@DV?$istreambuf_iterator@DU?$char_traits@D@std@@@std@@@std@@QBA?AV?$istreambuf_iterator@DU?$char_traits@D@std@@@2@V32@0AAVios_base@2@AAHAAJ@Z
?get@?$num_get@DV?$istreambuf_iterator@DU?$char_traits@D@std@@@std@@@std@@QBA?AV?$istreambuf_iterator@DU?$char_traits@D@std@@@2@V32@0AAVios_base@2@AAHAAK@Z
?get@?$num_get@DV?$istreambuf_iterator@DU?$char_traits@D@std@@@std@@@std@@QBA?AV?$istreambuf_iterator@DU?$char_traits@D@std@@@2@V32@0AAVios_base@2@AAHAAM@Z
?get@?$num_get@DV?$istreambuf_iterator@DU?$char_traits@D@std@@@std@@@std@@QBA?AV?$istreambuf_iterator@DU?$char_traits@D@std@@@2@V32@0AAVios_base@2@AAHAAN@Z
?get@?$num_get@DV?$istreambuf_iterator@DU?$char_traits@D@std@@@std@@@std@@QBA?AV?$istreambuf_iterator@DU?$char_traits@D@std@@@2@V32@0AAVios_base@2@AAHAAO@Z
?get@?$num_get@DV?$istreambuf_iterator@DU?$char_traits@D@std@@@std@@@std@@QBA?AV?$istreambuf_iterator@DU?$char_traits@D@std@@@2@V32@0AAVios_base@2@AAHAAPAX@Z
?get@?$num_get@DV?$istreambuf_iterator@DU?$char_traits@D@std@@@std@@@std@@QBA?AV?$istreambuf_iterator@DU?$char_traits@D@std@@@2@V32@0AAVios_base@2@AAHAA_N@Z
?get@?$num_get@GV?$istreambuf_iterator@GU?$char_traits@G@std@@@std@@@std@@QBA?AV?$istreambuf_iterator@GU?$char_traits@G@std@@@2@V32@0AAVios_base@2@AAHAAG@Z
?get@?$num_get@GV?$istreambuf_iterator@GU?$char_traits@G@std@@@std@@@std@@QBA?AV?$istreambuf_iterator@GU?$char_traits@G@std@@@2@V32@0AAVios_base@2@AAHAAI@Z
?get@?$num_get@GV?$istreambuf_iterator@GU?$char_traits@G@std@@@std@@@std@@QBA?AV?$istreambuf_iterator@GU?$char_traits@G@std@@@2@V32@0AAVios_base@2@AAHAAJ@Z
?get@?$num_get@GV?$istreambuf_iterator@GU?$char_traits@G@std@@@std@@@std@@QBA?AV?$istreambuf_iterator@GU?$char_traits@G@std@@@2@V32@0AAVios_base@2@AAHAAK@Z
?get@?$num_get@GV?$istreambuf_iterator@GU?$char_traits@G@std@@@std@@@std@@QBA?AV?$istreambuf_iterator@GU?$char_traits@G@std@@@2@V32@0AAVios_base@2@AAHAAM@Z
?get@?$num_get@GV?$istreambuf_iterator@GU?$char_traits@G@std@@@std@@@std@@QBA?AV?$istreambuf_iterator@GU?$char_traits@G@std@@@2@V32@0AAVios_base@2@AAHAAN@Z
?get@?$num_get@GV?$istreambuf_iterator@GU?$char_traits@G@std@@@std@@@std@@QBA?AV?$istreambuf_iterator@GU?$char_traits@G@std@@@2@V32@0AAVios_base@2@AAHAAO@Z
?get@?$num_get@GV?$istreambuf_iterator@GU?$char_traits@G@std@@@std@@@std@@QBA?AV?$istreambuf_iterator@GU?$char_traits@G@std@@@2@V32@0AAVios_base@2@AAHAAPAX@Z
?get@?$num_get@GV?$istreambuf_iterator@GU?$char_traits@G@std@@@std@@@std@@QBA?AV?$istreambuf_iterator@GU?$char_traits@G@std@@@2@V32@0AAVios_base@2@AAHAA_N@Z
?get_allocator@?$basic_string@DU?$char_traits@D@std@@V?$allocator@D@2@@std@@QBA?AV?$allocator@D@2@XZ
?get_allocator@?$basic_string@GU?$char_traits@G@std@@V?$allocator@G@2@@std@@QBA?AV?$allocator@G@2@XZ
?get_date@?$time_get@DV?$istreambuf_iterator@DU?$char_traits@D@std@@@std@@@std@@QBA?AV?$istreambuf_iterator@DU?$char_traits@D@std@@@2@V32@0AAVios_base@2@AAHPAUtm@@@Z
?get_date@?$time_get@GV?$istreambuf_iterator@GU?$char_traits@G@std@@@std@@@std@@QBA?AV?$istreambuf_iterator@GU?$char_traits@G@std@@@2@V32@0AAVios_base@2@AAHPAUtm@@@Z
?get_monthname@?$time_get@DV?$istreambuf_iterator@DU?$char_traits@D@std@@@std@@@std@@QBA?AV?$istreambuf_iterator@DU?$char_traits@D@std@@@2@V32@0AAVios_base@2@AAHPAUtm@@@Z
?get_monthname@?$time_get@GV?$istreambuf_iterator@GU?$char_traits@G@std@@@std@@@std@@QBA?AV?$istreambuf_iterator@GU?$char_traits@G@std@@@2@V32@0AAVios_base@2@AAHPAUtm@@@Z
?get_time@?$time_get@DV?$istreambuf_iterator@DU?$char_traits@D@std@@@std@@@std@@QBA?AV?$istreambuf_iterator@DU?$char_traits@D@std@@@2@V32@0AAVios_base@2@AAHPAUtm@@@Z
?get_time@?$time_get@GV?$istreambuf_iterator@GU?$char_traits@G@std@@@std@@@std@@QBA?AV?$istreambuf_iterator@GU?$char_traits@G@std@@@2@V32@0AAVios_base@2@AAHPAUtm@@@Z
?get_weekday@?$time_get@DV?$istreambuf_iterator@DU?$char_traits@D@std@@@std@@@std@@QBA?AV?$istreambuf_iterator@DU?$char_traits@D@std@@@2@V32@0AAVios_base@2@AAHPAUtm@@@Z
?get_weekday@?$time_get@GV?$istreambuf_iterator@GU?$char_traits@G@std@@@std@@@std@@QBA?AV?$istreambuf_iterator@GU?$char_traits@G@std@@@2@V32@0AAVios_base@2@AAHPAUtm@@@Z
?get_year@?$time_get@DV?$istreambuf_iterator@DU?$char_traits@D@std@@@std@@@std@@QBA?AV?$istreambuf_iterator@DU?$char_traits@D@std@@@2@V32@0AAVios_base@2@AAHPAUtm@@@Z
?get_year@?$time_get@GV?$istreambuf_iterator@GU?$char_traits@G@std@@@std@@@std@@QBA?AV?$istreambuf_iterator@GU?$char_traits@G@std@@@2@V32@0AAVios_base@2@AAHPAUtm@@@Z
?getline@?$basic_istream@DU?$char_traits@D@std@@@std@@QAAAAV12@PADH@Z
?getline@?$basic_istream@DU?$char_traits@D@std@@@std@@QAAAAV12@PADHD@Z
?getline@?$basic_istream@GU?$char_traits@G@std@@@std@@QAAAAV12@PAGH@Z
?getline@?$basic_istream@GU?$char_traits@G@std@@@std@@QAAAAV12@PAGHG@Z
?getline@std@@YAAAV?$basic_istream@DU?$char_traits@D@std@@@1@AAV21@AAV?$basic_string@DU?$char_traits@D@std@@V?$allocator@D@2@@1@@Z
?getline@std@@YAAAV?$basic_istream@DU?$char_traits@D@std@@@1@AAV21@AAV?$basic_string@DU?$char_traits@D@std@@V?$allocator@D@2@@1@D@Z
?getline@std@@YAAAV?$basic_istream@GU?$char_traits@G@std@@@1@AAV21@AAV?$basic_string@GU?$char_traits@G@std@@V?$allocator@G@2@@1@@Z
?getline@std@@YAAAV?$basic_istream@GU?$char_traits@G@std@@@1@AAV21@AAV?$basic_string@GU?$char_traits@G@std@@V?$allocator@G@2@@1@G@Z
?getloc@?$basic_streambuf@DU?$char_traits@D@std@@@std@@QAA?AVlocale@2@XZ
?getloc@?$basic_streambuf@GU?$char_traits@G@std@@@std@@QAA?AVlocale@2@XZ
?getloc@ios_base@std@@QBA?AVlocale@2@XZ
?global@locale@std@@SA?AV12@ABV12@@Z
?good@ios_base@std@@QBA_NXZ
?gptr@?$basic_streambuf@DU?$char_traits@D@std@@@std@@IBAPADXZ
?gptr@?$basic_streambuf@GU?$char_traits@G@std@@@std@@IBAPAGXZ
?grouping@?$_Mpunct@D@std@@QBA?AV?$basic_string@DU?$char_traits@D@std@@V?$allocator@D@2@@2@XZ
?grouping@?$_Mpunct@G@std@@QBA?AV?$basic_string@DU?$char_traits@D@std@@V?$allocator@D@2@@2@XZ
?grouping@?$numpunct@D@std@@QBA?AV?$basic_string@DU?$char_traits@D@std@@V?$allocator@D@2@@2@XZ
?grouping@?$numpunct@G@std@@QBA?AV?$basic_string@DU?$char_traits@D@std@@V?$allocator@D@2@@2@XZ
?hash@?$collate@D@std@@QBAJPBD0@Z
?hash@?$collate@G@std@@QBAJPBG0@Z
?id@?$codecvt@DDH@std@@2V0locale@2@A DATA
?id@?$codecvt@GDH@std@@2V0locale@2@A DATA
?id@?$collate@D@std@@2V0locale@2@A DATA
?id@?$collate@G@std@@2V0locale@2@A DATA
?id@?$ctype@D@std@@2V0locale@2@A DATA
?id@?$ctype@G@std@@2V0locale@2@A DATA
?id@?$messages@D@std@@2V0locale@2@A DATA
?id@?$messages@G@std@@2V0locale@2@A DATA
?id@?$money_get@DV?$istreambuf_iterator@DU?$char_traits@D@std@@@std@@@std@@2V0locale@2@A DATA
?id@?$money_get@GV?$istreambuf_iterator@GU?$char_traits@G@std@@@std@@@std@@2V0locale@2@A DATA
?id@?$money_put@DV?$ostreambuf_iterator@DU?$char_traits@D@std@@@std@@@std@@2V0locale@2@A DATA
?id@?$money_put@GV?$ostreambuf_iterator@GU?$char_traits@G@std@@@std@@@std@@2V0locale@2@A DATA
?id@?$moneypunct@D$00@std@@2V0locale@2@A DATA
?id@?$moneypunct@D$0A@@std@@2V0locale@2@A DATA
?id@?$moneypunct@G$00@std@@2V0locale@2@A DATA
?id@?$moneypunct@G$0A@@std@@2V0locale@2@A DATA
?id@?$num_get@DV?$istreambuf_iterator@DU?$char_traits@D@std@@@std@@@std@@2V0locale@2@A DATA
?id@?$num_get@GV?$istreambuf_iterator@GU?$char_traits@G@std@@@std@@@std@@2V0locale@2@A DATA
?id@?$num_put@DV?$ostreambuf_iterator@DU?$char_traits@D@std@@@std@@@std@@2V0locale@2@A DATA
?id@?$num_put@GV?$ostreambuf_iterator@GU?$char_traits@G@std@@@std@@@std@@2V0locale@2@A DATA
?id@?$numpunct@D@std@@2V0locale@2@A DATA
?id@?$numpunct@G@std@@2V0locale@2@A DATA
?id@?$time_get@DV?$istreambuf_iterator@DU?$char_traits@D@std@@@std@@@std@@2V0locale@2@A DATA
?id@?$time_get@GV?$istreambuf_iterator@GU?$char_traits@G@std@@@std@@@std@@2V0locale@2@A DATA
?id@?$time_put@DV?$ostreambuf_iterator@DU?$char_traits@D@std@@@std@@@std@@2V0locale@2@A DATA
?id@?$time_put@GV?$ostreambuf_iterator@GU?$char_traits@G@std@@@std@@@std@@2V0locale@2@A DATA
?ignore@?$basic_istream@DU?$char_traits@D@std@@@std@@QAAAAV12@HH@Z
?ignore@?$basic_istream@GU?$char_traits@G@std@@@std@@QAAAAV12@HG@Z
?imag@?$_Complex_base@M@std@@QAAMABM@Z
?imag@?$_Complex_base@M@std@@QBAMXZ
?imag@?$_Complex_base@N@std@@QAANABN@Z
?imag@?$_Complex_base@N@std@@QBANXZ
?imag@?$_Complex_base@O@std@@QAAOABO@Z
?imag@?$_Complex_base@O@std@@QBAOXZ
?imag@std@@YAMABV?$complex@M@1@@Z
?imag@std@@YANABV?$complex@N@1@@Z
?imag@std@@YAOABV?$complex@O@1@@Z
?imbue@?$basic_ios@DU?$char_traits@D@std@@@std@@QAA?AVlocale@2@ABV32@@Z
?imbue@?$basic_ios@GU?$char_traits@G@std@@@std@@QAA?AVlocale@2@ABV32@@Z
?imbue@?$basic_streambuf@DU?$char_traits@D@std@@@std@@MAAXABVlocale@2@@Z
?imbue@?$basic_streambuf@GU?$char_traits@G@std@@@std@@MAAXABVlocale@2@@Z
?imbue@ios_base@std@@QAA?AVlocale@2@ABV32@@Z
?in@?$codecvt@DDH@std@@QBAHAAHPBD1AAPBDPAD3AAPAD@Z
?in@?$codecvt@GDH@std@@QBAHAAHPBD1AAPBDPAG3AAPAG@Z
?in_avail@?$basic_streambuf@DU?$char_traits@D@std@@@std@@QAAHXZ
?in_avail@?$basic_streambuf@GU?$char_traits@G@std@@@std@@QAAHXZ
?infinity@?$numeric_limits@C@std@@SACXZ
?infinity@?$numeric_limits@D@std@@SADXZ
?infinity@?$numeric_limits@E@std@@SAEXZ
?infinity@?$numeric_limits@F@std@@SAFXZ
?infinity@?$numeric_limits@G@std@@SAGXZ
?infinity@?$numeric_limits@H@std@@SAHXZ
?infinity@?$numeric_limits@I@std@@SAIXZ
?infinity@?$numeric_limits@J@std@@SAJXZ
?infinity@?$numeric_limits@K@std@@SAKXZ
?infinity@?$numeric_limits@M@std@@SAMXZ
?infinity@?$numeric_limits@N@std@@SANXZ
?infinity@?$numeric_limits@O@std@@SAOXZ
?infinity@?$numeric_limits@_N@std@@SA_NXZ
?init@?$basic_ios@DU?$char_traits@D@std@@@std@@IAAXPAV?$basic_streambuf@DU?$char_traits@D@std@@@2@_N@Z
?init@?$basic_ios@GU?$char_traits@G@std@@@std@@IAAXPAV?$basic_streambuf@GU?$char_traits@G@std@@@2@_N@Z
?insert@?$basic_string@DU?$char_traits@D@std@@V?$allocator@D@2@@std@@QAAAAV12@IABV12@@Z
?insert@?$basic_string@DU?$char_traits@D@std@@V?$allocator@D@2@@std@@QAAAAV12@IABV12@II@Z
?insert@?$basic_string@DU?$char_traits@D@std@@V?$allocator@D@2@@std@@QAAAAV12@IID@Z
?insert@?$basic_string@DU?$char_traits@D@std@@V?$allocator@D@2@@std@@QAAAAV12@IPBD@Z
?insert@?$basic_string@DU?$char_traits@D@std@@V?$allocator@D@2@@std@@QAAAAV12@IPBDI@Z
?insert@?$basic_string@DU?$char_traits@D@std@@V?$allocator@D@2@@std@@QAAPADPADD@Z
?insert@?$basic_string@DU?$char_traits@D@std@@V?$allocator@D@2@@std@@QAAXPADID@Z
?insert@?$basic_string@DU?$char_traits@D@std@@V?$allocator@D@2@@std@@QAAXPADPBD1@Z
?insert@?$basic_string@GU?$char_traits@G@std@@V?$allocator@G@2@@std@@QAAAAV12@IABV12@@Z
?insert@?$basic_string@GU?$char_traits@G@std@@V?$allocator@G@2@@std@@QAAAAV12@IABV12@II@Z
?insert@?$basic_string@GU?$char_traits@G@std@@V?$allocator@G@2@@std@@QAAAAV12@IIG@Z
?insert@?$basic_string@GU?$char_traits@G@std@@V?$allocator@G@2@@std@@QAAAAV12@IPBG@Z
?insert@?$basic_string@GU?$char_traits@G@std@@V?$allocator@G@2@@std@@QAAAAV12@IPBGI@Z
?insert@?$basic_string@GU?$char_traits@G@std@@V?$allocator@G@2@@std@@QAAPAGPAGG@Z
?insert@?$basic_string@GU?$char_traits@G@std@@V?$allocator@G@2@@std@@QAAXPAGIG@Z
?insert@?$basic_string@GU?$char_traits@G@std@@V?$allocator@G@2@@std@@QAAXPAGPBG1@Z
?intl@?$moneypunct@D$00@std@@2_NB
?intl@?$moneypunct@D$0A@@std@@2_NB
?intl@?$moneypunct@G$00@std@@2_NB
?intl@?$moneypunct@G$0A@@std@@2_NB
?ipfx@?$basic_istream@DU?$char_traits@D@std@@@std@@QAA_N_N@Z
?ipfx@?$basic_istream@GU?$char_traits@G@std@@@std@@QAA_N_N@Z
?is@?$ctype@D@std@@QBAPBDPBD0PAF@Z
?is@?$ctype@D@std@@QBA_NFD@Z
?is@?$ctype@G@std@@QBAPBGPBG0PAF@Z
?is@?$ctype@G@std@@QBA_NFG@Z
?is_open@?$basic_filebuf@DU?$char_traits@D@std@@@std@@QBA_NXZ
?is_open@?$basic_filebuf@GU?$char_traits@G@std@@@std@@QBA_NXZ
?is_open@?$basic_fstream@DU?$char_traits@D@std@@@std@@QBA_NXZ
?is_open@?$basic_fstream@GU?$char_traits@G@std@@@std@@QBA_NXZ
?is_open@?$basic_ifstream@DU?$char_traits@D@std@@@std@@QBA_NXZ
?is_open@?$basic_ifstream@GU?$char_traits@G@std@@@std@@QBA_NXZ
?is_open@?$basic_ofstream@DU?$char_traits@D@std@@@std@@QBA_NXZ
?is_open@?$basic_ofstream@GU?$char_traits@G@std@@@std@@QBA_NXZ
?isfx@?$basic_istream@DU?$char_traits@D@std@@@std@@QAAXXZ
?isfx@?$basic_istream@GU?$char_traits@G@std@@@std@@QAAXXZ
?iword@ios_base@std@@QAAAAJH@Z
?ldexp@?$_Ctr@M@std@@SAMMH@Z
?ldexp@?$_Ctr@N@std@@SANNH@Z
?ldexp@?$_Ctr@O@std@@SAOOH@Z
?length@?$basic_string@DU?$char_traits@D@std@@V?$allocator@D@2@@std@@QBAIXZ
?length@?$basic_string@GU?$char_traits@G@std@@V?$allocator@G@2@@std@@QBAIXZ
?length@?$char_traits@D@std@@SAIPBD@Z
?length@?$char_traits@G@std@@SAIPBG@Z
?length@?$codecvt@DDH@std@@QBAHAAHPBD1I@Z
?length@?$codecvt@GDH@std@@QBAHAAHPBG1I@Z
?log10@std@@YA?AV?$complex@M@1@ABV21@@Z
?log10@std@@YA?AV?$complex@N@1@ABV21@@Z
?log10@std@@YA?AV?$complex@O@1@ABV21@@Z
?log@?$_Ctr@M@std@@SAMM@Z
?log@?$_Ctr@N@std@@SANN@Z
?log@?$_Ctr@O@std@@SAOO@Z
?log@std@@YA?AV?$complex@M@1@ABV21@@Z
?log@std@@YA?AV?$complex@N@1@ABV21@@Z
?log@std@@YA?AV?$complex@O@1@ABV21@@Z
?lt@?$char_traits@D@std@@SA_NABD0@Z
?lt@?$char_traits@G@std@@SA_NABG0@Z
?max@?$numeric_limits@C@std@@SACXZ
?max@?$numeric_limits@D@std@@SADXZ
?max@?$numeric_limits@E@std@@SAEXZ
?max@?$numeric_limits@F@std@@SAFXZ
?max@?$numeric_limits@G@std@@SAGXZ
?max@?$numeric_limits@H@std@@SAHXZ
?max@?$numeric_limits@I@std@@SAIXZ
?max@?$numeric_limits@J@std@@SAJXZ
?max@?$numeric_limits@K@std@@SAKXZ
?max@?$numeric_limits@M@std@@SAMXZ
?max@?$numeric_limits@N@std@@SANXZ
?max@?$numeric_limits@O@std@@SAOXZ
?max@?$numeric_limits@_N@std@@SA_NXZ
?max_length@codecvt_base@std@@QBAHXZ
?max_size@?$basic_string@DU?$char_traits@D@std@@V?$allocator@D@2@@std@@QBAIXZ
?max_size@?$basic_string@GU?$char_traits@G@std@@V?$allocator@G@2@@std@@QBAIXZ
?min@?$numeric_limits@C@std@@SACXZ
?min@?$numeric_limits@D@std@@SADXZ
?min@?$numeric_limits@E@std@@SAEXZ
?min@?$numeric_limits@F@std@@SAFXZ
?min@?$numeric_limits@G@std@@SAGXZ
?min@?$numeric_limits@H@std@@SAHXZ
?min@?$numeric_limits@I@std@@SAIXZ
?min@?$numeric_limits@J@std@@SAJXZ
?min@?$numeric_limits@K@std@@SAKXZ
?min@?$numeric_limits@M@std@@SAMXZ
?min@?$numeric_limits@N@std@@SANXZ
?min@?$numeric_limits@O@std@@SAOXZ
?min@?$numeric_limits@_N@std@@SA_NXZ
?move@?$char_traits@D@std@@SAPADPADPBDI@Z
?move@?$char_traits@G@std@@SAPAGPAGPBGI@Z
?name@locale@std@@QBA?AV?$basic_string@DU?$char_traits@D@std@@V?$allocator@D@2@@2@XZ
?narrow@?$basic_ios@DU?$char_traits@D@std@@@std@@QBADDD@Z
?narrow@?$basic_ios@GU?$char_traits@G@std@@@std@@QBADGD@Z
?narrow@?$ctype@D@std@@QBADDD@Z
?narrow@?$ctype@D@std@@QBAPBDPBD0DPAD@Z
?narrow@?$ctype@G@std@@QBADGD@Z
?narrow@?$ctype@G@std@@QBAPBGPBG0DPAD@Z
?neg_format@?$_Mpunct@D@std@@QBA?AUpattern@money_base@2@XZ
?neg_format@?$_Mpunct@G@std@@QBA?AUpattern@money_base@2@XZ
?negative_sign@?$_Mpunct@D@std@@QBA?AV?$basic_string@DU?$char_traits@D@std@@V?$allocator@D@2@@2@XZ
?negative_sign@?$_Mpunct@G@std@@QBA?AV?$basic_string@GU?$char_traits@G@std@@V?$allocator@G@2@@2@XZ
?norm@std@@YAMABV?$complex@M@1@@Z
?norm@std@@YANABV?$complex@N@1@@Z
?norm@std@@YAOABV?$complex@O@1@@Z
?not_eof@?$char_traits@D@std@@SAHABH@Z
?not_eof@?$char_traits@G@std@@SAGABG@Z
?nothrow@std@@3Unothrow_t@1@B
?npos@?$basic_string@DU?$char_traits@D@std@@V?$allocator@D@2@@std@@2IB
?npos@?$basic_string@GU?$char_traits@G@std@@V?$allocator@G@2@@std@@2IB
?open@?$basic_filebuf@DU?$char_traits@D@std@@@std@@QAAPAV12@PBDF@Z
?open@?$basic_filebuf@DU?$char_traits@D@std@@@std@@QAAPAV12@PBDH@Z
?open@?$basic_filebuf@GU?$char_traits@G@std@@@std@@QAAPAV12@PBDF@Z
?open@?$basic_filebuf@GU?$char_traits@G@std@@@std@@QAAPAV12@PBDH@Z
?open@?$basic_fstream@DU?$char_traits@D@std@@@std@@QAAXPBDF@Z
?open@?$basic_fstream@DU?$char_traits@D@std@@@std@@QAAXPBDH@Z
?open@?$basic_fstream@GU?$char_traits@G@std@@@std@@QAAXPBDF@Z
?open@?$basic_fstream@GU?$char_traits@G@std@@@std@@QAAXPBDH@Z
?open@?$basic_ifstream@DU?$char_traits@D@std@@@std@@QAAXPBDF@Z
?open@?$basic_ifstream@DU?$char_traits@D@std@@@std@@QAAXPBDH@Z
?open@?$basic_ifstream@GU?$char_traits@G@std@@@std@@QAAXPBDF@Z
?open@?$basic_ifstream@GU?$char_traits@G@std@@@std@@QAAXPBDH@Z
?open@?$basic_ofstream@DU?$char_traits@D@std@@@std@@QAAXPBDF@Z
?open@?$basic_ofstream@DU?$char_traits@D@std@@@std@@QAAXPBDH@Z
?open@?$basic_ofstream@GU?$char_traits@G@std@@@std@@QAAXPBDF@Z
?open@?$basic_ofstream@GU?$char_traits@G@std@@@std@@QAAXPBDH@Z
?open@?$messages@D@std@@QBAHABV?$basic_string@DU?$char_traits@D@std@@V?$allocator@D@2@@2@ABVlocale@2@@Z
?open@?$messages@G@std@@QBAHABV?$basic_string@DU?$char_traits@D@std@@V?$allocator@D@2@@2@ABVlocale@2@@Z
?opfx@?$basic_ostream@DU?$char_traits@D@std@@@std@@QAA_NXZ
?opfx@?$basic_ostream@GU?$char_traits@G@std@@@std@@QAA_NXZ
?osfx@?$basic_ostream@DU?$char_traits@D@std@@@std@@QAAXXZ
?osfx@?$basic_ostream@GU?$char_traits@G@std@@@std@@QAAXXZ
?out@?$codecvt@DDH@std@@QBAHAAHPBD1AAPBDPAD3AAPAD@Z
?out@?$codecvt@GDH@std@@QBAHAAHPBG1AAPBGPAD3AAPAD@Z
?overflow@?$basic_filebuf@DU?$char_traits@D@std@@@std@@MAAHH@Z
?overflow@?$basic_filebuf@GU?$char_traits@G@std@@@std@@MAAGG@Z
?overflow@?$basic_streambuf@DU?$char_traits@D@std@@@std@@MAAHH@Z
?overflow@?$basic_streambuf@GU?$char_traits@G@std@@@std@@MAAGG@Z
?overflow@?$basic_stringbuf@DU?$char_traits@D@std@@V?$allocator@D@2@@std@@MAAHH@Z
?overflow@?$basic_stringbuf@GU?$char_traits@G@std@@V?$allocator@G@2@@std@@MAAGG@Z
?overflow@strstreambuf@std@@MAAHH@Z
?pbackfail@?$basic_filebuf@DU?$char_traits@D@std@@@std@@MAAHH@Z
?pbackfail@?$basic_filebuf@GU?$char_traits@G@std@@@std@@MAAGG@Z
?pbackfail@?$basic_streambuf@DU?$char_traits@D@std@@@std@@MAAHH@Z
?pbackfail@?$basic_streambuf@GU?$char_traits@G@std@@@std@@MAAGG@Z
?pbackfail@?$basic_stringbuf@DU?$char_traits@D@std@@V?$allocator@D@2@@std@@MAAHH@Z
?pbackfail@?$basic_stringbuf@GU?$char_traits@G@std@@V?$allocator@G@2@@std@@MAAGG@Z
?pbackfail@strstreambuf@std@@MAAHH@Z
?pbase@?$basic_streambuf@DU?$char_traits@D@std@@@std@@IBAPADXZ
?pbase@?$basic_streambuf@GU?$char_traits@G@std@@@std@@IBAPAGXZ
?pbump@?$basic_streambuf@DU?$char_traits@D@std@@@std@@IAAXH@Z
?pbump@?$basic_streambuf@GU?$char_traits@G@std@@@std@@IAAXH@Z
?peek@?$basic_istream@DU?$char_traits@D@std@@@std@@QAAHXZ
?peek@?$basic_istream@GU?$char_traits@G@std@@@std@@QAAGXZ
?polar@std@@YA?AV?$complex@M@1@ABM0@Z
?polar@std@@YA?AV?$complex@M@1@ABM@Z
?polar@std@@YA?AV?$complex@N@1@ABN0@Z
?polar@std@@YA?AV?$complex@N@1@ABN@Z
?polar@std@@YA?AV?$complex@O@1@ABO0@Z
?polar@std@@YA?AV?$complex@O@1@ABO@Z
?pos_format@?$_Mpunct@D@std@@QBA?AUpattern@money_base@2@XZ
?pos_format@?$_Mpunct@G@std@@QBA?AUpattern@money_base@2@XZ
?positive_sign@?$_Mpunct@D@std@@QBA?AV?$basic_string@DU?$char_traits@D@std@@V?$allocator@D@2@@2@XZ
?positive_sign@?$_Mpunct@G@std@@QBA?AV?$basic_string@GU?$char_traits@G@std@@V?$allocator@G@2@@2@XZ
?pow@?$_Ctr@M@std@@SAMMM@Z
?pow@?$_Ctr@N@std@@SANNN@Z
?pow@?$_Ctr@O@std@@SAOOO@Z
?pow@std@@YA?AV?$complex@M@1@ABMABV21@@Z
?pow@std@@YA?AV?$complex@M@1@ABV21@0@Z
?pow@std@@YA?AV?$complex@M@1@ABV21@ABM@Z
?pow@std@@YA?AV?$complex@M@1@ABV21@H@Z
?pow@std@@YA?AV?$complex@N@1@ABNABV21@@Z
?pow@std@@YA?AV?$complex@N@1@ABV21@0@Z
?pow@std@@YA?AV?$complex@N@1@ABV21@ABN@Z
?pow@std@@YA?AV?$complex@N@1@ABV21@H@Z
?pow@std@@YA?AV?$complex@O@1@ABOABV21@@Z
?pow@std@@YA?AV?$complex@O@1@ABV21@0@Z
?pow@std@@YA?AV?$complex@O@1@ABV21@ABO@Z
?pow@std@@YA?AV?$complex@O@1@ABV21@H@Z
?pptr@?$basic_streambuf@DU?$char_traits@D@std@@@std@@IBAPADXZ
?pptr@?$basic_streambuf@GU?$char_traits@G@std@@@std@@IBAPAGXZ
?precision@ios_base@std@@QAAHH@Z
?precision@ios_base@std@@QBAHXZ
?pubimbue@?$basic_streambuf@DU?$char_traits@D@std@@@std@@QAA?AVlocale@2@ABV32@@Z
?pubimbue@?$basic_streambuf@GU?$char_traits@G@std@@@std@@QAA?AVlocale@2@ABV32@@Z
?pubseekoff@?$basic_streambuf@DU?$char_traits@D@std@@@std@@QAA?AV?$fpos@H@2@JFF@Z
?pubseekoff@?$basic_streambuf@DU?$char_traits@D@std@@@std@@QAA?AV?$fpos@H@2@JW4seekdir@ios_base@2@H@Z
?pubseekoff@?$basic_streambuf@GU?$char_traits@G@std@@@std@@QAA?AV?$fpos@H@2@JFF@Z
?pubseekoff@?$basic_streambuf@GU?$char_traits@G@std@@@std@@QAA?AV?$fpos@H@2@JW4seekdir@ios_base@2@H@Z
?pubseekpos@?$basic_streambuf@DU?$char_traits@D@std@@@std@@QAA?AV?$fpos@H@2@V32@F@Z
?pubseekpos@?$basic_streambuf@DU?$char_traits@D@std@@@std@@QAA?AV?$fpos@H@2@V32@H@Z
?pubseekpos@?$basic_streambuf@GU?$char_traits@G@std@@@std@@QAA?AV?$fpos@H@2@V32@F@Z
?pubseekpos@?$basic_streambuf@GU?$char_traits@G@std@@@std@@QAA?AV?$fpos@H@2@V32@H@Z
?pubsetbuf@?$basic_streambuf@DU?$char_traits@D@std@@@std@@QAAPAV12@PADH@Z
?pubsetbuf@?$basic_streambuf@GU?$char_traits@G@std@@@std@@QAAPAV12@PAGH@Z
?pubsync@?$basic_streambuf@DU?$char_traits@D@std@@@std@@QAAHXZ
?pubsync@?$basic_streambuf@GU?$char_traits@G@std@@@std@@QAAHXZ
?put@?$basic_ostream@DU?$char_traits@D@std@@@std@@QAAAAV12@D@Z
?put@?$basic_ostream@GU?$char_traits@G@std@@@std@@QAAAAV12@G@Z
?put@?$money_put@DV?$ostreambuf_iterator@DU?$char_traits@D@std@@@std@@@std@@QBA?AV?$ostreambuf_iterator@DU?$char_traits@D@std@@@2@V32@_NAAVios_base@2@DABV?$basic_string@DU?$char_traits@D@std@@V?$allocator@D@2@@2@@Z
?put@?$money_put@DV?$ostreambuf_iterator@DU?$char_traits@D@std@@@std@@@std@@QBA?AV?$ostreambuf_iterator@DU?$char_traits@D@std@@@2@V32@_NAAVios_base@2@DO@Z
?put@?$money_put@GV?$ostreambuf_iterator@GU?$char_traits@G@std@@@std@@@std@@QBA?AV?$ostreambuf_iterator@GU?$char_traits@G@std@@@2@V32@_NAAVios_base@2@GABV?$basic_string@GU?$char_traits@G@std@@V?$allocator@G@2@@2@@Z
?put@?$money_put@GV?$ostreambuf_iterator@GU?$char_traits@G@std@@@std@@@std@@QBA?AV?$ostreambuf_iterator@GU?$char_traits@G@std@@@2@V32@_NAAVios_base@2@GO@Z
?put@?$num_put@DV?$ostreambuf_iterator@DU?$char_traits@D@std@@@std@@@std@@QBA?AV?$ostreambuf_iterator@DU?$char_traits@D@std@@@2@V32@AAVios_base@2@DJ@Z
?put@?$num_put@DV?$ostreambuf_iterator@DU?$char_traits@D@std@@@std@@@std@@QBA?AV?$ostreambuf_iterator@DU?$char_traits@D@std@@@2@V32@AAVios_base@2@DK@Z
?put@?$num_put@DV?$ostreambuf_iterator@DU?$char_traits@D@std@@@std@@@std@@QBA?AV?$ostreambuf_iterator@DU?$char_traits@D@std@@@2@V32@AAVios_base@2@DN@Z
?put@?$num_put@DV?$ostreambuf_iterator@DU?$char_traits@D@std@@@std@@@std@@QBA?AV?$ostreambuf_iterator@DU?$char_traits@D@std@@@2@V32@AAVios_base@2@DO@Z
?put@?$num_put@DV?$ostreambuf_iterator@DU?$char_traits@D@std@@@std@@@std@@QBA?AV?$ostreambuf_iterator@DU?$char_traits@D@std@@@2@V32@AAVios_base@2@DPBX@Z
?put@?$num_put@DV?$ostreambuf_iterator@DU?$char_traits@D@std@@@std@@@std@@QBA?AV?$ostreambuf_iterator@DU?$char_traits@D@std@@@2@V32@AAVios_base@2@D_N@Z
?put@?$num_put@GV?$ostreambuf_iterator@GU?$char_traits@G@std@@@std@@@std@@QBA?AV?$ostreambuf_iterator@GU?$char_traits@G@std@@@2@V32@AAVios_base@2@GJ@Z
?put@?$num_put@GV?$ostreambuf_iterator@GU?$char_traits@G@std@@@std@@@std@@QBA?AV?$ostreambuf_iterator@GU?$char_traits@G@std@@@2@V32@AAVios_base@2@GK@Z
?put@?$num_put@GV?$ostreambuf_iterator@GU?$char_traits@G@std@@@std@@@std@@QBA?AV?$ostreambuf_iterator@GU?$char_traits@G@std@@@2@V32@AAVios_base@2@GN@Z
?put@?$num_put@GV?$ostreambuf_iterator@GU?$char_traits@G@std@@@std@@@std@@QBA?AV?$ostreambuf_iterator@GU?$char_traits@G@std@@@2@V32@AAVios_base@2@GO@Z
?put@?$num_put@GV?$ostreambuf_iterator@GU?$char_traits@G@std@@@std@@@std@@QBA?AV?$ostreambuf_iterator@GU?$char_traits@G@std@@@2@V32@AAVios_base@2@GPBX@Z
?put@?$num_put@GV?$ostreambuf_iterator@GU?$char_traits@G@std@@@std@@@std@@QBA?AV?$ostreambuf_iterator@GU?$char_traits@G@std@@@2@V32@AAVios_base@2@G_N@Z
?put@?$time_put@DV?$ostreambuf_iterator@DU?$char_traits@D@std@@@std@@@std@@QBA?AV?$ostreambuf_iterator@DU?$char_traits@D@std@@@2@V32@AAVios_base@2@PBUtm@@DD@Z
?put@?$time_put@DV?$ostreambuf_iterator@DU?$char_traits@D@std@@@std@@@std@@QBA?AV?$ostreambuf_iterator@DU?$char_traits@D@std@@@2@V32@AAVios_base@2@PBUtm@@PBD3@Z
?put@?$time_put@GV?$ostreambuf_iterator@GU?$char_traits@G@std@@@std@@@std@@QBA?AV?$ostreambuf_iterator@GU?$char_traits@G@std@@@2@V32@AAVios_base@2@PBUtm@@DD@Z
?put@?$time_put@GV?$ostreambuf_iterator@GU?$char_traits@G@std@@@std@@@std@@QBA?AV?$ostreambuf_iterator@GU?$char_traits@G@std@@@2@V32@AAVios_base@2@PBUtm@@PBG3@Z
?putback@?$basic_istream@DU?$char_traits@D@std@@@std@@QAAAAV12@D@Z
?putback@?$basic_istream@GU?$char_traits@G@std@@@std@@QAAAAV12@G@Z
?pword@ios_base@std@@QAAAAPAXH@Z
?quiet_NaN@?$numeric_limits@C@std@@SACXZ
?quiet_NaN@?$numeric_limits@D@std@@SADXZ
?quiet_NaN@?$numeric_limits@E@std@@SAEXZ
?quiet_NaN@?$numeric_limits@F@std@@SAFXZ
?quiet_NaN@?$numeric_limits@G@std@@SAGXZ
?quiet_NaN@?$numeric_limits@H@std@@SAHXZ
?quiet_NaN@?$numeric_limits@I@std@@SAIXZ
?quiet_NaN@?$numeric_limits@J@std@@SAJXZ
?quiet_NaN@?$numeric_limits@K@std@@SAKXZ
?quiet_NaN@?$numeric_limits@M@std@@SAMXZ
?quiet_NaN@?$numeric_limits@N@std@@SANXZ
?quiet_NaN@?$numeric_limits@O@std@@SAOXZ
?quiet_NaN@?$numeric_limits@_N@std@@SA_NXZ
?rbegin@?$basic_string@DU?$char_traits@D@std@@V?$allocator@D@2@@std@@QAA?AV?$reverse_iterator@PADDAADPADH@2@XZ
?rbegin@?$basic_string@DU?$char_traits@D@std@@V?$allocator@D@2@@std@@QBA?AV?$reverse_iterator@PBDDABDPBDH@2@XZ
?rbegin@?$basic_string@GU?$char_traits@G@std@@V?$allocator@G@2@@std@@QAA?AV?$reverse_iterator@PAGGAAGPAGH@2@XZ
?rbegin@?$basic_string@GU?$char_traits@G@std@@V?$allocator@G@2@@std@@QBA?AV?$reverse_iterator@PBGGABGPBGH@2@XZ
?rdbuf@?$basic_fstream@DU?$char_traits@D@std@@@std@@QBAPAV?$basic_filebuf@DU?$char_traits@D@std@@@2@XZ
?rdbuf@?$basic_fstream@GU?$char_traits@G@std@@@std@@QBAPAV?$basic_filebuf@GU?$char_traits@G@std@@@2@XZ
?rdbuf@?$basic_ifstream@DU?$char_traits@D@std@@@std@@QBAPAV?$basic_filebuf@DU?$char_traits@D@std@@@2@XZ
?rdbuf@?$basic_ifstream@GU?$char_traits@G@std@@@std@@QBAPAV?$basic_filebuf@GU?$char_traits@G@std@@@2@XZ
?rdbuf@?$basic_ios@DU?$char_traits@D@std@@@std@@QAAPAV?$basic_streambuf@DU?$char_traits@D@std@@@2@PAV32@@Z
?rdbuf@?$basic_ios@DU?$char_traits@D@std@@@std@@QBAPAV?$basic_streambuf@DU?$char_traits@D@std@@@2@XZ
?rdbuf@?$basic_ios@GU?$char_traits@G@std@@@std@@QAAPAV?$basic_streambuf@GU?$char_traits@G@std@@@2@PAV32@@Z
?rdbuf@?$basic_ios@GU?$char_traits@G@std@@@std@@QBAPAV?$basic_streambuf@GU?$char_traits@G@std@@@2@XZ
?rdbuf@?$basic_istringstream@DU?$char_traits@D@std@@V?$allocator@D@2@@std@@QBAPAV?$basic_stringbuf@DU?$char_traits@D@std@@V?$allocator@D@2@@2@XZ
?rdbuf@?$basic_istringstream@GU?$char_traits@G@std@@V?$allocator@G@2@@std@@QBAPAV?$basic_stringbuf@GU?$char_traits@G@std@@V?$allocator@G@2@@2@XZ
?rdbuf@?$basic_ofstream@DU?$char_traits@D@std@@@std@@QBAPAV?$basic_filebuf@DU?$char_traits@D@std@@@2@XZ
?rdbuf@?$basic_ofstream@GU?$char_traits@G@std@@@std@@QBAPAV?$basic_filebuf@GU?$char_traits@G@std@@@2@XZ
?rdbuf@?$basic_ostringstream@DU?$char_traits@D@std@@V?$allocator@D@2@@std@@QBAPAV?$basic_stringbuf@DU?$char_traits@D@std@@V?$allocator@D@2@@2@XZ
?rdbuf@?$basic_ostringstream@GU?$char_traits@G@std@@V?$allocator@G@2@@std@@QBAPAV?$basic_stringbuf@GU?$char_traits@G@std@@V?$allocator@G@2@@2@XZ
?rdbuf@?$basic_stringstream@DU?$char_traits@D@std@@V?$allocator@D@2@@std@@QBAPAV?$basic_stringbuf@DU?$char_traits@D@std@@V?$allocator@D@2@@2@XZ
?rdbuf@?$basic_stringstream@GU?$char_traits@G@std@@V?$allocator@G@2@@std@@QBAPAV?$basic_stringbuf@GU?$char_traits@G@std@@V?$allocator@G@2@@2@XZ
?rdstate@ios_base@std@@QBAHXZ
?read@?$basic_istream@DU?$char_traits@D@std@@@std@@QAAAAV12@PADH@Z
?read@?$basic_istream@GU?$char_traits@G@std@@@std@@QAAAAV12@PAGH@Z
?readsome@?$basic_istream@DU?$char_traits@D@std@@@std@@QAAHPADH@Z
?readsome@?$basic_istream@GU?$char_traits@G@std@@@std@@QAAHPAGH@Z
?real@?$_Complex_base@M@std@@QAAMABM@Z
?real@?$_Complex_base@M@std@@QBAMXZ
?real@?$_Complex_base@N@std@@QAANABN@Z
?real@?$_Complex_base@N@std@@QBANXZ
?real@?$_Complex_base@O@std@@QAAOABO@Z
?real@?$_Complex_base@O@std@@QBAOXZ
?real@std@@YAMABV?$complex@M@1@@Z
?real@std@@YANABV?$complex@N@1@@Z
?real@std@@YAOABV?$complex@O@1@@Z
?register_callback@ios_base@std@@QAAXP6AXW4event@12@AAV12@H@ZH@Z
?rend@?$basic_string@DU?$char_traits@D@std@@V?$allocator@D@2@@std@@QAA?AV?$reverse_iterator@PADDAADPADH@2@XZ
?rend@?$basic_string@DU?$char_traits@D@std@@V?$allocator@D@2@@std@@QBA?AV?$reverse_iterator@PBDDABDPBDH@2@XZ
?rend@?$basic_string@GU?$char_traits@G@std@@V?$allocator@G@2@@std@@QAA?AV?$reverse_iterator@PAGGAAGPAGH@2@XZ
?rend@?$basic_string@GU?$char_traits@G@std@@V?$allocator@G@2@@std@@QBA?AV?$reverse_iterator@PBGGABGPBGH@2@XZ
?replace@?$basic_string@DU?$char_traits@D@std@@V?$allocator@D@2@@std@@QAAAAV12@IIABV12@@Z
?replace@?$basic_string@DU?$char_traits@D@std@@V?$allocator@D@2@@std@@QAAAAV12@IIABV12@II@Z
?replace@?$basic_string@DU?$char_traits@D@std@@V?$allocator@D@2@@std@@QAAAAV12@IIID@Z
?replace@?$basic_string@DU?$char_traits@D@std@@V?$allocator@D@2@@std@@QAAAAV12@IIPBD@Z
?replace@?$basic_string@DU?$char_traits@D@std@@V?$allocator@D@2@@std@@QAAAAV12@IIPBDI@Z
?replace@?$basic_string@DU?$char_traits@D@std@@V?$allocator@D@2@@std@@QAAAAV12@PAD0ABV12@@Z
?replace@?$basic_string@DU?$char_traits@D@std@@V?$allocator@D@2@@std@@QAAAAV12@PAD0ID@Z
?replace@?$basic_string@DU?$char_traits@D@std@@V?$allocator@D@2@@std@@QAAAAV12@PAD0PBD1@Z
?replace@?$basic_string@DU?$char_traits@D@std@@V?$allocator@D@2@@std@@QAAAAV12@PAD0PBD@Z
?replace@?$basic_string@DU?$char_traits@D@std@@V?$allocator@D@2@@std@@QAAAAV12@PAD0PBDI@Z
?replace@?$basic_string@GU?$char_traits@G@std@@V?$allocator@G@2@@std@@QAAAAV12@IIABV12@@Z
?replace@?$basic_string@GU?$char_traits@G@std@@V?$allocator@G@2@@std@@QAAAAV12@IIABV12@II@Z
?replace@?$basic_string@GU?$char_traits@G@std@@V?$allocator@G@2@@std@@QAAAAV12@IIIG@Z
?replace@?$basic_string@GU?$char_traits@G@std@@V?$allocator@G@2@@std@@QAAAAV12@IIPBG@Z
?replace@?$basic_string@GU?$char_traits@G@std@@V?$allocator@G@2@@std@@QAAAAV12@IIPBGI@Z
?replace@?$basic_string@GU?$char_traits@G@std@@V?$allocator@G@2@@std@@QAAAAV12@PAG0ABV12@@Z
?replace@?$basic_string@GU?$char_traits@G@std@@V?$allocator@G@2@@std@@QAAAAV12@PAG0IG@Z
?replace@?$basic_string@GU?$char_traits@G@std@@V?$allocator@G@2@@std@@QAAAAV12@PAG0PBG1@Z
?replace@?$basic_string@GU?$char_traits@G@std@@V?$allocator@G@2@@std@@QAAAAV12@PAG0PBG@Z
?replace@?$basic_string@GU?$char_traits@G@std@@V?$allocator@G@2@@std@@QAAAAV12@PAG0PBGI@Z
?reserve@?$basic_string@DU?$char_traits@D@std@@V?$allocator@D@2@@std@@QAAXI@Z
?reserve@?$basic_string@GU?$char_traits@G@std@@V?$allocator@G@2@@std@@QAAXI@Z
?resetiosflags@std@@YA?AU?$_Smanip@H@1@H@Z
?resize@?$basic_string@DU?$char_traits@D@std@@V?$allocator@D@2@@std@@QAAXI@Z
?resize@?$basic_string@DU?$char_traits@D@std@@V?$allocator@D@2@@std@@QAAXID@Z
?resize@?$basic_string@GU?$char_traits@G@std@@V?$allocator@G@2@@std@@QAAXI@Z
?resize@?$basic_string@GU?$char_traits@G@std@@V?$allocator@G@2@@std@@QAAXIG@Z
?rfind@?$basic_string@DU?$char_traits@D@std@@V?$allocator@D@2@@std@@QBAIABV12@I@Z
?rfind@?$basic_string@DU?$char_traits@D@std@@V?$allocator@D@2@@std@@QBAIDI@Z
?rfind@?$basic_string@DU?$char_traits@D@std@@V?$allocator@D@2@@std@@QBAIPBDI@Z
?rfind@?$basic_string@DU?$char_traits@D@std@@V?$allocator@D@2@@std@@QBAIPBDII@Z
?rfind@?$basic_string@GU?$char_traits@G@std@@V?$allocator@G@2@@std@@QBAIABV12@I@Z
?rfind@?$basic_string@GU?$char_traits@G@std@@V?$allocator@G@2@@std@@QBAIGI@Z
?rfind@?$basic_string@GU?$char_traits@G@std@@V?$allocator@G@2@@std@@QBAIPBGI@Z
?rfind@?$basic_string@GU?$char_traits@G@std@@V?$allocator@G@2@@std@@QBAIPBGII@Z
?round_error@?$numeric_limits@C@std@@SACXZ
?round_error@?$numeric_limits@D@std@@SADXZ
?round_error@?$numeric_limits@E@std@@SAEXZ
?round_error@?$numeric_limits@F@std@@SAFXZ
?round_error@?$numeric_limits@G@std@@SAGXZ
?round_error@?$numeric_limits@H@std@@SAHXZ
?round_error@?$numeric_limits@I@std@@SAIXZ
?round_error@?$numeric_limits@J@std@@SAJXZ
?round_error@?$numeric_limits@K@std@@SAKXZ
?round_error@?$numeric_limits@M@std@@SAMXZ
?round_error@?$numeric_limits@N@std@@SANXZ
?round_error@?$numeric_limits@O@std@@SAOXZ
?round_error@?$numeric_limits@_N@std@@SA_NXZ
?sbumpc@?$basic_streambuf@DU?$char_traits@D@std@@@std@@QAAHXZ
?sbumpc@?$basic_streambuf@GU?$char_traits@G@std@@@std@@QAAGXZ
?scan_is@?$ctype@D@std@@QBAPBDFPBD0@Z
?scan_is@?$ctype@G@std@@QBAPBGFPBG0@Z
?scan_not@?$ctype@D@std@@QBAPBDFPBD0@Z
?scan_not@?$ctype@G@std@@QBAPBGFPBG0@Z
?seekg@?$basic_istream@DU?$char_traits@D@std@@@std@@QAAAAV12@JW4seekdir@ios_base@2@@Z
?seekg@?$basic_istream@DU?$char_traits@D@std@@@std@@QAAAAV12@V?$fpos@H@2@@Z
?seekg@?$basic_istream@GU?$char_traits@G@std@@@std@@QAAAAV12@JW4seekdir@ios_base@2@@Z
?seekg@?$basic_istream@GU?$char_traits@G@std@@@std@@QAAAAV12@V?$fpos@H@2@@Z
?seekoff@?$basic_filebuf@DU?$char_traits@D@std@@@std@@MAA?AV?$fpos@H@2@JW4seekdir@ios_base@2@H@Z
?seekoff@?$basic_filebuf@GU?$char_traits@G@std@@@std@@MAA?AV?$fpos@H@2@JW4seekdir@ios_base@2@H@Z
?seekoff@?$basic_streambuf@DU?$char_traits@D@std@@@std@@MAA?AV?$fpos@H@2@JW4seekdir@ios_base@2@H@Z
?seekoff@?$basic_streambuf@GU?$char_traits@G@std@@@std@@MAA?AV?$fpos@H@2@JW4seekdir@ios_base@2@H@Z
?seekoff@?$basic_stringbuf@DU?$char_traits@D@std@@V?$allocator@D@2@@std@@MAA?AV?$fpos@H@2@JW4seekdir@ios_base@2@H@Z
?seekoff@?$basic_stringbuf@GU?$char_traits@G@std@@V?$allocator@G@2@@std@@MAA?AV?$fpos@H@2@JW4seekdir@ios_base@2@H@Z
?seekoff@strstreambuf@std@@MAA?AV?$fpos@H@2@JW4seekdir@ios_base@2@H@Z
?seekp@?$basic_ostream@DU?$char_traits@D@std@@@std@@QAAAAV12@JW4seekdir@ios_base@2@@Z
?seekp@?$basic_ostream@DU?$char_traits@D@std@@@std@@QAAAAV12@V?$fpos@H@2@@Z
?seekp@?$basic_ostream@GU?$char_traits@G@std@@@std@@QAAAAV12@JW4seekdir@ios_base@2@@Z
?seekp@?$basic_ostream@GU?$char_traits@G@std@@@std@@QAAAAV12@V?$fpos@H@2@@Z
?seekpos@?$basic_filebuf@DU?$char_traits@D@std@@@std@@MAA?AV?$fpos@H@2@V32@H@Z
?seekpos@?$basic_filebuf@GU?$char_traits@G@std@@@std@@MAA?AV?$fpos@H@2@V32@H@Z
?seekpos@?$basic_streambuf@DU?$char_traits@D@std@@@std@@MAA?AV?$fpos@H@2@V32@H@Z
?seekpos@?$basic_streambuf@GU?$char_traits@G@std@@@std@@MAA?AV?$fpos@H@2@V32@H@Z
?seekpos@?$basic_stringbuf@DU?$char_traits@D@std@@V?$allocator@D@2@@std@@MAA?AV?$fpos@H@2@V32@H@Z
?seekpos@?$basic_stringbuf@GU?$char_traits@G@std@@V?$allocator@G@2@@std@@MAA?AV?$fpos@H@2@V32@H@Z
?seekpos@strstreambuf@std@@MAA?AV?$fpos@H@2@V32@H@Z
?setbase@std@@YA?AU?$_Smanip@H@1@H@Z
?setbuf@?$basic_filebuf@DU?$char_traits@D@std@@@std@@MAAPAV?$basic_streambuf@DU?$char_traits@D@std@@@2@PADH@Z
?setbuf@?$basic_filebuf@GU?$char_traits@G@std@@@std@@MAAPAV?$basic_streambuf@GU?$char_traits@G@std@@@2@PAGH@Z
?setbuf@?$basic_streambuf@DU?$char_traits@D@std@@@std@@MAAPAV12@PADH@Z
?setbuf@?$basic_streambuf@GU?$char_traits@G@std@@@std@@MAAPAV12@PAGH@Z
?setf@ios_base@std@@QAAHH@Z
?setf@ios_base@std@@QAAHHH@Z
?setg@?$basic_streambuf@DU?$char_traits@D@std@@@std@@IAAXPAD00@Z
?setg@?$basic_streambuf@GU?$char_traits@G@std@@@std@@IAAXPAG00@Z
?setiosflags@std@@YA?AU?$_Smanip@H@1@H@Z
?setp@?$basic_streambuf@DU?$char_traits@D@std@@@std@@IAAXPAD00@Z
?setp@?$basic_streambuf@DU?$char_traits@D@std@@@std@@IAAXPAD0@Z
?setp@?$basic_streambuf@GU?$char_traits@G@std@@@std@@IAAXPAG00@Z
?setp@?$basic_streambuf@GU?$char_traits@G@std@@@std@@IAAXPAG0@Z
?setprecision@std@@YA?AU?$_Smanip@H@1@H@Z
?setstate@?$basic_ios@DU?$char_traits@D@std@@@std@@QAAXF@Z
?setstate@?$basic_ios@DU?$char_traits@D@std@@@std@@QAAXH_N@Z
?setstate@?$basic_ios@GU?$char_traits@G@std@@@std@@QAAXF@Z
?setstate@?$basic_ios@GU?$char_traits@G@std@@@std@@QAAXH_N@Z
?setstate@ios_base@std@@QAAXF@Z
?setstate@ios_base@std@@QAAXH_N@Z
?setw@std@@YA?AU?$_Smanip@H@1@H@Z
?sgetc@?$basic_streambuf@DU?$char_traits@D@std@@@std@@QAAHXZ
?sgetc@?$basic_streambuf@GU?$char_traits@G@std@@@std@@QAAGXZ
?sgetn@?$basic_streambuf@DU?$char_traits@D@std@@@std@@QAAHPADH@Z
?sgetn@?$basic_streambuf@GU?$char_traits@G@std@@@std@@QAAHPAGH@Z
?showmanyc@?$basic_streambuf@DU?$char_traits@D@std@@@std@@MAAHXZ
?showmanyc@?$basic_streambuf@GU?$char_traits@G@std@@@std@@MAAHXZ
?signaling_NaN@?$numeric_limits@C@std@@SACXZ
?signaling_NaN@?$numeric_limits@D@std@@SADXZ
?signaling_NaN@?$numeric_limits@E@std@@SAEXZ
?signaling_NaN@?$numeric_limits@F@std@@SAFXZ
?signaling_NaN@?$numeric_limits@G@std@@SAGXZ
?signaling_NaN@?$numeric_limits@H@std@@SAHXZ
?signaling_NaN@?$numeric_limits@I@std@@SAIXZ
?signaling_NaN@?$numeric_limits@J@std@@SAJXZ
?signaling_NaN@?$numeric_limits@K@std@@SAKXZ
?signaling_NaN@?$numeric_limits@M@std@@SAMXZ
?signaling_NaN@?$numeric_limits@N@std@@SANXZ
?signaling_NaN@?$numeric_limits@O@std@@SAOXZ
?signaling_NaN@?$numeric_limits@_N@std@@SA_NXZ
?sin@?$_Ctr@M@std@@SAMM@Z
?sin@?$_Ctr@N@std@@SANN@Z
?sin@?$_Ctr@O@std@@SAOO@Z
?sin@std@@YA?AV?$complex@M@1@ABV21@@Z
?sin@std@@YA?AV?$complex@N@1@ABV21@@Z
?sin@std@@YA?AV?$complex@O@1@ABV21@@Z
?sinh@std@@YA?AV?$complex@M@1@ABV21@@Z
?sinh@std@@YA?AV?$complex@N@1@ABV21@@Z
?sinh@std@@YA?AV?$complex@O@1@ABV21@@Z
?size@?$basic_string@DU?$char_traits@D@std@@V?$allocator@D@2@@std@@QBAIXZ
?size@?$basic_string@GU?$char_traits@G@std@@V?$allocator@G@2@@std@@QBAIXZ
?snextc@?$basic_streambuf@DU?$char_traits@D@std@@@std@@QAAHXZ
?snextc@?$basic_streambuf@GU?$char_traits@G@std@@@std@@QAAGXZ
?sputbackc@?$basic_streambuf@DU?$char_traits@D@std@@@std@@QAAHD@Z
?sputbackc@?$basic_streambuf@GU?$char_traits@G@std@@@std@@QAAGG@Z
?sputc@?$basic_streambuf@DU?$char_traits@D@std@@@std@@QAAHD@Z
?sputc@?$basic_streambuf@GU?$char_traits@G@std@@@std@@QAAGG@Z
?sputn@?$basic_streambuf@DU?$char_traits@D@std@@@std@@QAAHPBDH@Z
?sputn@?$basic_streambuf@GU?$char_traits@G@std@@@std@@QAAHPBGH@Z
?sqrt@?$_Ctr@M@std@@SAMM@Z
?sqrt@?$_Ctr@N@std@@SANN@Z
?sqrt@?$_Ctr@O@std@@SAOO@Z
?sqrt@std@@YA?AV?$complex@M@1@ABV21@@Z
?sqrt@std@@YA?AV?$complex@N@1@ABV21@@Z
?sqrt@std@@YA?AV?$complex@O@1@ABV21@@Z
?stossc@?$basic_streambuf@DU?$char_traits@D@std@@@std@@QAAXXZ
?stossc@?$basic_streambuf@GU?$char_traits@G@std@@@std@@QAAXXZ
?str@?$basic_istringstream@DU?$char_traits@D@std@@V?$allocator@D@2@@std@@QAAXABV?$basic_string@DU?$char_traits@D@std@@V?$allocator@D@2@@2@@Z
?str@?$basic_istringstream@DU?$char_traits@D@std@@V?$allocator@D@2@@std@@QBA?AV?$basic_string@DU?$char_traits@D@std@@V?$allocator@D@2@@2@XZ
?str@?$basic_istringstream@GU?$char_traits@G@std@@V?$allocator@G@2@@std@@QAAXABV?$basic_string@GU?$char_traits@G@std@@V?$allocator@G@2@@2@@Z
?str@?$basic_istringstream@GU?$char_traits@G@std@@V?$allocator@G@2@@std@@QBA?AV?$basic_string@GU?$char_traits@G@std@@V?$allocator@G@2@@2@XZ
?str@?$basic_ostringstream@DU?$char_traits@D@std@@V?$allocator@D@2@@std@@QAAXABV?$basic_string@DU?$char_traits@D@std@@V?$allocator@D@2@@2@@Z
?str@?$basic_ostringstream@DU?$char_traits@D@std@@V?$allocator@D@2@@std@@QBA?AV?$basic_string@DU?$char_traits@D@std@@V?$allocator@D@2@@2@XZ
?str@?$basic_ostringstream@GU?$char_traits@G@std@@V?$allocator@G@2@@std@@QAAXABV?$basic_string@GU?$char_traits@G@std@@V?$allocator@G@2@@2@@Z
?str@?$basic_ostringstream@GU?$char_traits@G@std@@V?$allocator@G@2@@std@@QBA?AV?$basic_string@GU?$char_traits@G@std@@V?$allocator@G@2@@2@XZ
?str@?$basic_stringbuf@DU?$char_traits@D@std@@V?$allocator@D@2@@std@@QAAXABV?$basic_string@DU?$char_traits@D@std@@V?$allocator@D@2@@2@@Z
?str@?$basic_stringbuf@DU?$char_traits@D@std@@V?$allocator@D@2@@std@@QBA?AV?$basic_string@DU?$char_traits@D@std@@V?$allocator@D@2@@2@XZ
?str@?$basic_stringbuf@GU?$char_traits@G@std@@V?$allocator@G@2@@std@@QAAXABV?$basic_string@GU?$char_traits@G@std@@V?$allocator@G@2@@2@@Z
?str@?$basic_stringbuf@GU?$char_traits@G@std@@V?$allocator@G@2@@std@@QBA?AV?$basic_string@GU?$char_traits@G@std@@V?$allocator@G@2@@2@XZ
?str@?$basic_stringstream@DU?$char_traits@D@std@@V?$allocator@D@2@@std@@QAAXABV?$basic_string@DU?$char_traits@D@std@@V?$allocator@D@2@@2@@Z
?str@?$basic_stringstream@DU?$char_traits@D@std@@V?$allocator@D@2@@std@@QBA?AV?$basic_string@DU?$char_traits@D@std@@V?$allocator@D@2@@2@XZ
?str@?$basic_stringstream@GU?$char_traits@G@std@@V?$allocator@G@2@@std@@QAAXABV?$basic_string@GU?$char_traits@G@std@@V?$allocator@G@2@@2@@Z
?str@?$basic_stringstream@GU?$char_traits@G@std@@V?$allocator@G@2@@std@@QBA?AV?$basic_string@GU?$char_traits@G@std@@V?$allocator@G@2@@2@XZ
?substr@?$basic_string@DU?$char_traits@D@std@@V?$allocator@D@2@@std@@QBA?AV12@II@Z
?substr@?$basic_string@GU?$char_traits@G@std@@V?$allocator@G@2@@std@@QBA?AV12@II@Z
?sungetc@?$basic_streambuf@DU?$char_traits@D@std@@@std@@QAAHXZ
?sungetc@?$basic_streambuf@GU?$char_traits@G@std@@@std@@QAAGXZ
?swap@?$basic_string@DU?$char_traits@D@std@@V?$allocator@D@2@@std@@QAAXAAV12@@Z
?swap@?$basic_string@GU?$char_traits@G@std@@V?$allocator@G@2@@std@@QAAXAAV12@@Z
?sync@?$basic_filebuf@DU?$char_traits@D@std@@@std@@MAAHXZ
?sync@?$basic_filebuf@GU?$char_traits@G@std@@@std@@MAAHXZ
?sync@?$basic_istream@DU?$char_traits@D@std@@@std@@QAAHXZ
?sync@?$basic_istream@GU?$char_traits@G@std@@@std@@QAAHXZ
?sync@?$basic_streambuf@DU?$char_traits@D@std@@@std@@MAAHXZ
?sync@?$basic_streambuf@GU?$char_traits@G@std@@@std@@MAAHXZ
?sync_with_stdio@ios_base@std@@SA_N_N@Z
?table@?$ctype@D@std@@IBAPBFXZ
?table_size@?$ctype@D@std@@2IB
?tellg@?$basic_istream@DU?$char_traits@D@std@@@std@@QAA?AV?$fpos@H@2@XZ
?tellg@?$basic_istream@GU?$char_traits@G@std@@@std@@QAA?AV?$fpos@H@2@XZ
?tellp@?$basic_ostream@DU?$char_traits@D@std@@@std@@QAA?AV?$fpos@H@2@XZ
?tellp@?$basic_ostream@GU?$char_traits@G@std@@@std@@QAA?AV?$fpos@H@2@XZ
?thousands_sep@?$_Mpunct@D@std@@QBADXZ
?thousands_sep@?$_Mpunct@G@std@@QBAGXZ
?thousands_sep@?$numpunct@D@std@@QBADXZ
?thousands_sep@?$numpunct@G@std@@QBAGXZ
?tie@?$basic_ios@DU?$char_traits@D@std@@@std@@QAAPAV?$basic_ostream@DU?$char_traits@D@std@@@2@PAV32@@Z
?tie@?$basic_ios@DU?$char_traits@D@std@@@std@@QBAPAV?$basic_ostream@DU?$char_traits@D@std@@@2@XZ
?tie@?$basic_ios@GU?$char_traits@G@std@@@std@@QAAPAV?$basic_ostream@GU?$char_traits@G@std@@@2@PAV32@@Z
?tie@?$basic_ios@GU?$char_traits@G@std@@@std@@QBAPAV?$basic_ostream@GU?$char_traits@G@std@@@2@XZ
?to_char_type@?$char_traits@D@std@@SADABH@Z
?to_char_type@?$char_traits@G@std@@SAGABG@Z
?to_int_type@?$char_traits@D@std@@SAHABD@Z
?to_int_type@?$char_traits@G@std@@SAGABG@Z
?tolower@?$ctype@D@std@@QBADD@Z
?tolower@?$ctype@D@std@@QBAPBDPADPBD@Z
?tolower@?$ctype@G@std@@QBAGG@Z
?tolower@?$ctype@G@std@@QBAPBGPAGPBG@Z
?toupper@?$ctype@D@std@@QBADD@Z
?toupper@?$ctype@D@std@@QBAPBDPADPBD@Z
?toupper@?$ctype@G@std@@QBAGG@Z
?toupper@?$ctype@G@std@@QBAPBGPAGPBG@Z
?transform@?$collate@D@std@@QBA?AV?$basic_string@DU?$char_traits@D@std@@V?$allocator@D@2@@2@PBD0@Z
?transform@?$collate@G@std@@QBA?AV?$basic_string@GU?$char_traits@G@std@@V?$allocator@G@2@@2@PBG0@Z
?truename@?$numpunct@D@std@@QBA?AV?$basic_string@DU?$char_traits@D@std@@V?$allocator@D@2@@2@XZ
?truename@?$numpunct@G@std@@QBA?AV?$basic_string@GU?$char_traits@G@std@@V?$allocator@G@2@@2@XZ
?uflow@?$basic_filebuf@DU?$char_traits@D@std@@@std@@MAAHXZ
?uflow@?$basic_filebuf@GU?$char_traits@G@std@@@std@@MAAGXZ
?uflow@?$basic_streambuf@DU?$char_traits@D@std@@@std@@MAAHXZ
?uflow@?$basic_streambuf@GU?$char_traits@G@std@@@std@@MAAGXZ
?uncaught_exception@std@@YA_NXZ
?underflow@?$basic_filebuf@DU?$char_traits@D@std@@@std@@MAAHXZ
?underflow@?$basic_filebuf@GU?$char_traits@G@std@@@std@@MAAGXZ
?underflow@?$basic_streambuf@DU?$char_traits@D@std@@@std@@MAAHXZ
?underflow@?$basic_streambuf@GU?$char_traits@G@std@@@std@@MAAGXZ
?underflow@?$basic_stringbuf@DU?$char_traits@D@std@@V?$allocator@D@2@@std@@MAAHXZ
?underflow@?$basic_stringbuf@GU?$char_traits@G@std@@V?$allocator@G@2@@std@@MAAGXZ
?underflow@strstreambuf@std@@MAAHXZ
?unget@?$basic_istream@DU?$char_traits@D@std@@@std@@QAAAAV12@XZ
?unget@?$basic_istream@GU?$char_traits@G@std@@@std@@QAAAAV12@XZ
?unsetf@ios_base@std@@QAAXH@Z
?wcerr@std@@3V?$basic_ostream@GU?$char_traits@G@std@@@1@A DATA
?wcin@std@@3V?$basic_istream@GU?$char_traits@G@std@@@1@A DATA
?wclog@std@@3V?$basic_ostream@GU?$char_traits@G@std@@@1@A DATA
?wcout@std@@3V?$basic_ostream@GU?$char_traits@G@std@@@1@A DATA
?what@logic_error@std@@UBAPBDXZ
?what@runtime_error@std@@UBAPBDXZ
?widen@?$basic_ios@DU?$char_traits@D@std@@@std@@QBADD@Z
?widen@?$basic_ios@GU?$char_traits@G@std@@@std@@QBAGD@Z
?widen@?$ctype@D@std@@QBADD@Z
?widen@?$ctype@D@std@@QBAPBDPBD0PAD@Z
?widen@?$ctype@G@std@@QBAGD@Z
?widen@?$ctype@G@std@@QBAPBDPBD0PAG@Z
?width@ios_base@std@@QAAHH@Z
?width@ios_base@std@@QBAHXZ
?write@?$basic_ostream@DU?$char_traits@D@std@@@std@@QAAAAV12@PBDH@Z
?write@?$basic_ostream@GU?$char_traits@G@std@@@std@@QAAAAV12@PBGH@Z
?ws@std@@YAAAV?$basic_istream@DU?$char_traits@D@std@@@1@AAV21@@Z
?ws@std@@YAAAV?$basic_istream@GU?$char_traits@G@std@@@1@AAV21@@Z
?xalloc@ios_base@std@@SAHXZ
?xsgetn@?$basic_streambuf@DU?$char_traits@D@std@@@std@@MAAHPADH@Z
?xsgetn@?$basic_streambuf@GU?$char_traits@G@std@@@std@@MAAHPAGH@Z
?xsputn@?$basic_streambuf@DU?$char_traits@D@std@@@std@@MAAHPBDH@Z
?xsputn@?$basic_streambuf@GU?$char_traits@G@std@@@std@@MAAHPBGH@Z
_Cosh
_Denorm
_Dnorm
_Dscale
_Dtest
_Eps
_Exp
_FCosh
_FDenorm
_FDnorm
_FDscale
_FDtest
_FEps
_FExp
_FInf
_FNan
_FRteps
_FSinh
_FSnan
_FXbig
_Getcoll
_Getctype
_Getcvt
_Hugeval
_Inf
_LCosh
_LDenorm
_LDscale
_LDtest
_LEps
_LExp
_LInf
_LNan
_LPoly
_LRteps
_LSinh
_LSnan
_LXbig
_Mbrtowc
_Nan
_Poly
_Rteps
_Sinh
_Snan
_Stod
_Stof
_Stold
_Strcoll
_Strxfrm
_Tolower
_Toupper
_Wcrtomb
_Xbig
__Wcrtomb_lk
btowc
mbrlen
mbrtowc
mbsrtowcs
towctrans
wcrtomb
wcsrtombs
wctob
wctrans
wctype
