;
; Definition file of PROVTHRD.dll
; Automatic generated by gendef
; written by Kai Tietz 2008-2014
;
LIBRARY "PROVTHRD.dll"
EXPORTS
??$CompareElements@PAGPAG@@YAHPBQAG0@Z
??$HashKey@PAG@@YAIPAG@Z
??0CBString@@QAA@H@Z
??0CBString@@QAA@PBG@Z
??0CBString@@QAA@XZ
??0Conjunctions@@QAA@K@Z
??0Disjunctions@@QAA@KK@Z
??0PartitionSet@@QAA@ABV0@@Z
??0PartitionSet@@QAA@XZ
??0ProvAnalyser@@QAA@ABV0@@Z
??0ProvAnalyser@@QAA@PBG@Z
??0ProvBitStringType@@QAA@ABV0@@Z
??0ProvBitStringType@@QAA@PBG@Z
??0ProvBitStringType@@QAA@PBGABVProvOctetString@@@Z
??0ProvBitStringType@@QAA@PBGPAPBGABK@Z
??0ProvCounter64@@QAA@ABV0@@Z
??0ProvCounter64@@QAA@KK@Z
??0ProvCounter64Type@@QAA@ABV0@@Z
??0ProvCounter64Type@@QAA@ABVProvCounter64@@@Z
??0ProvCounter64Type@@QAA@KK@Z
??0ProvCounter64Type@@QAA@PBG@Z
??0ProvCounter64Type@@QAA@XZ
??0ProvCounter@@QAA@ABV0@@Z
??0ProvCounter@@QAA@K@Z
??0ProvCounterType@@QAA@ABV0@@Z
??0ProvCounterType@@QAA@ABVProvCounter@@@Z
??0ProvCounterType@@QAA@K@Z
??0ProvCounterType@@QAA@PBG@Z
??0ProvCounterType@@QAA@XZ
??0ProvDateTimeType@@QAA@ABV0@@Z
??0ProvDateTimeType@@QAA@ABVProvOctetString@@@Z
??0ProvDateTimeType@@QAA@PBG@Z
??0ProvDateTimeType@@QAA@XZ
??0ProvDebugLog@@QAA@D@Z
??0ProvDisplayStringType@@QAA@ABV0@@Z
??0ProvDisplayStringType@@QAA@ABVProvOctetString@@PBG@Z
??0ProvDisplayStringType@@QAA@PBG0@Z
??0ProvDisplayStringType@@QAA@PBG@Z
??0ProvEnumeratedType@@QAA@ABV0@@Z
??0ProvEnumeratedType@@QAA@PBG0@Z
??0ProvEnumeratedType@@QAA@PBG@Z
??0ProvEnumeratedType@@QAA@PBGABJ@Z
??0ProvEnumeratedType@@QAA@PBGABVProvInteger@@@Z
??0ProvEventObject@@QAA@ABV0@@Z
??0ProvEventObject@@QAA@PBG@Z
??0ProvFixedLengthDisplayStringType@@QAA@ABK@Z
??0ProvFixedLengthDisplayStringType@@QAA@ABKABVProvOctetString@@@Z
??0ProvFixedLengthDisplayStringType@@QAA@ABKPBG@Z
??0ProvFixedLengthDisplayStringType@@QAA@ABV0@@Z
??0ProvFixedLengthOctetStringType@@QAA@ABK@Z
??0ProvFixedLengthOctetStringType@@QAA@ABKABVProvOctetString@@@Z
??0ProvFixedLengthOctetStringType@@QAA@ABKPBE@Z
??0ProvFixedLengthOctetStringType@@QAA@ABKPBG@Z
??0ProvFixedLengthOctetStringType@@QAA@ABV0@@Z
??0ProvFixedLengthOpaqueType@@QAA@ABK@Z
??0ProvFixedLengthOpaqueType@@QAA@ABKABVProvOpaque@@@Z
??0ProvFixedLengthOpaqueType@@QAA@ABKPBEK@Z
??0ProvFixedLengthOpaqueType@@QAA@ABKPBG@Z
??0ProvFixedLengthOpaqueType@@QAA@ABV0@@Z
??0ProvFixedLengthPhysAddressType@@QAA@ABK@Z
??0ProvFixedLengthPhysAddressType@@QAA@ABKABVProvOctetString@@@Z
??0ProvFixedLengthPhysAddressType@@QAA@ABKPBG@Z
??0ProvFixedLengthPhysAddressType@@QAA@ABV0@@Z
??0ProvFixedType@@QAA@ABV0@@Z
??0ProvFixedType@@QAA@K@Z
??0ProvGauge@@QAA@ABV0@@Z
??0ProvGauge@@QAA@J@Z
??0ProvGaugeType@@QAA@ABV0@@Z
??0ProvGaugeType@@QAA@ABVProvGauge@@PBG@Z
??0ProvGaugeType@@QAA@KPBG@Z
??0ProvGaugeType@@QAA@PBG0@Z
??0ProvGaugeType@@QAA@PBG@Z
??0ProvInstanceType@@IAA@ABV0@@Z
??0ProvInstanceType@@IAA@HH@Z
??0ProvInteger@@QAA@ABV0@@Z
??0ProvInteger@@QAA@J@Z
??0ProvIntegerType@@QAA@ABV0@@Z
??0ProvIntegerType@@QAA@ABVProvInteger@@PBG@Z
??0ProvIntegerType@@QAA@JPBG@Z
??0ProvIntegerType@@QAA@PBG0@Z
??0ProvIntegerType@@QAA@PBG@Z
??0ProvIpAddress@@QAA@ABV0@@Z
??0ProvIpAddress@@QAA@K@Z
??0ProvIpAddress@@QAA@PBD@Z
??0ProvIpAddressType@@QAA@ABV0@@Z
??0ProvIpAddressType@@QAA@ABVProvIpAddress@@@Z
??0ProvIpAddressType@@QAA@K@Z
??0ProvIpAddressType@@QAA@PBG@Z
??0ProvIpAddressType@@QAA@XZ
??0ProvLexicon@@QAA@XZ
??0ProvMacAddressType@@QAA@ABV0@@Z
??0ProvMacAddressType@@QAA@ABVProvOctetString@@@Z
??0ProvMacAddressType@@QAA@PBE@Z
??0ProvMacAddressType@@QAA@PBG@Z
??0ProvMacAddressType@@QAA@XZ
??0ProvNegativeRangeType@@QAA@ABV0@@Z
??0ProvNegativeRangeType@@QAA@JJ@Z
??0ProvNegativeRangeType@@QAA@XZ
??0ProvNetworkAddressType@@QAA@ABV0@@Z
??0ProvNetworkAddressType@@QAA@ABVProvIpAddress@@@Z
??0ProvNetworkAddressType@@QAA@K@Z
??0ProvNetworkAddressType@@QAA@PBG@Z
??0ProvNetworkAddressType@@QAA@XZ
??0ProvNull@@QAA@XZ
??0ProvNullType@@QAA@ABV0@@Z
??0ProvNullType@@QAA@ABVProvNull@@@Z
??0ProvNullType@@QAA@XZ
??0ProvOSIAddressType@@QAA@ABV0@@Z
??0ProvOSIAddressType@@QAA@ABVProvOctetString@@@Z
??0ProvOSIAddressType@@QAA@PBEK@Z
??0ProvOSIAddressType@@QAA@PBG@Z
??0ProvOSIAddressType@@QAA@XZ
??0ProvObjectIdentifier@@QAA@ABV0@@Z
??0ProvObjectIdentifier@@QAA@PBD@Z
??0ProvObjectIdentifier@@QAA@PBKK@Z
??0ProvObjectIdentifierType@@QAA@ABV0@@Z
??0ProvObjectIdentifierType@@QAA@ABVProvObjectIdentifier@@@Z
??0ProvObjectIdentifierType@@QAA@PBG@Z
??0ProvObjectIdentifierType@@QAA@PBKK@Z
??0ProvObjectIdentifierType@@QAA@XZ
??0ProvOctetString@@QAA@ABV0@@Z
??0ProvOctetString@@QAA@PBEK@Z
??0ProvOctetStringType@@QAA@ABV0@@Z
??0ProvOctetStringType@@QAA@ABVProvOctetString@@PBG@Z
??0ProvOctetStringType@@QAA@PBEKPBG@Z
??0ProvOctetStringType@@QAA@PBG0@Z
??0ProvOctetStringType@@QAA@PBG@Z
??0ProvOpaque@@QAA@ABV0@@Z
??0ProvOpaque@@QAA@PBEK@Z
??0ProvOpaqueType@@QAA@ABV0@@Z
??0ProvOpaqueType@@QAA@ABVProvOpaque@@PBG@Z
??0ProvOpaqueType@@QAA@PBEKPBG@Z
??0ProvOpaqueType@@QAA@PBG0@Z
??0ProvOpaqueType@@QAA@PBG@Z
??0ProvPhysAddressType@@QAA@ABV0@@Z
??0ProvPhysAddressType@@QAA@ABVProvOctetString@@PBG@Z
??0ProvPhysAddressType@@QAA@PBEKPBG@Z
??0ProvPhysAddressType@@QAA@PBG0@Z
??0ProvPhysAddressType@@QAA@PBG@Z
??0ProvPositiveRangeType@@QAA@ABV0@@Z
??0ProvPositiveRangeType@@QAA@KJ@Z
??0ProvPositiveRangeType@@QAA@XZ
??0ProvPositiveRangedType@@QAA@ABV0@@Z
??0ProvPositiveRangedType@@QAA@PBG@Z
??0ProvRowStatusType@@QAA@ABJ@Z
??0ProvRowStatusType@@QAA@ABV0@@Z
??0ProvRowStatusType@@QAA@ABVProvInteger@@@Z
??0ProvRowStatusType@@QAA@ABW4ProvRowStatusEnum@0@@Z
??0ProvRowStatusType@@QAA@PBG@Z
??0ProvRowStatusType@@QAA@XZ
??0ProvTimeTicks@@QAA@ABV0@@Z
??0ProvTimeTicks@@QAA@K@Z
??0ProvTimeTicksType@@QAA@ABV0@@Z
??0ProvTimeTicksType@@QAA@ABVProvTimeTicks@@@Z
??0ProvTimeTicksType@@QAA@K@Z
??0ProvTimeTicksType@@QAA@PBG@Z
??0ProvTimeTicksType@@QAA@XZ
??0ProvUDPAddressType@@QAA@ABV0@@Z
??0ProvUDPAddressType@@QAA@ABVProvOctetString@@@Z
??0ProvUDPAddressType@@QAA@PBE@Z
??0ProvUDPAddressType@@QAA@PBG@Z
??0ProvUDPAddressType@@QAA@XZ
??0ProvUInteger32@@QAA@ABV0@@Z
??0ProvUInteger32@@QAA@J@Z
??0ProvValue@@AAA@ABV0@@Z
??0ProvValue@@IAA@XZ
??0QueryPreprocessor@@QAA@ABV0@@Z
??0QueryPreprocessor@@QAA@XZ
??0WmiAndNode@@QAA@ABV0@@Z
??0WmiAndNode@@QAA@PAVWmiTreeNode@@00@Z
??0WmiNotNode@@QAA@ABV0@@Z
??0WmiNotNode@@QAA@PAVWmiTreeNode@@0@Z
??0WmiNullNode@@QAA@ABV0@@Z
??0WmiNullNode@@QAA@PAGKPAVWmiTreeNode@@@Z
??0WmiNullRangeNode@@QAA@ABV0@@Z
??0WmiNullRangeNode@@QAA@PAGKPAVWmiTreeNode@@1@Z
??0WmiOperatorEqualNode@@QAA@ABV0@@Z
??0WmiOperatorEqualNode@@QAA@PAVWmiTreeNode@@0@Z
??0WmiOperatorEqualOrGreaterNode@@QAA@ABV0@@Z
??0WmiOperatorEqualOrGreaterNode@@QAA@PAVWmiTreeNode@@0@Z
??0WmiOperatorEqualOrLessNode@@QAA@ABV0@@Z
??0WmiOperatorEqualOrLessNode@@QAA@PAVWmiTreeNode@@0@Z
??0WmiOperatorGreaterNode@@QAA@ABV0@@Z
??0WmiOperatorGreaterNode@@QAA@PAVWmiTreeNode@@0@Z
??0WmiOperatorIsANode@@QAA@ABV0@@Z
??0WmiOperatorIsANode@@QAA@PAVWmiTreeNode@@0@Z
??0WmiOperatorLessNode@@QAA@ABV0@@Z
??0WmiOperatorLessNode@@QAA@PAVWmiTreeNode@@0@Z
??0WmiOperatorLikeNode@@QAA@ABV0@@Z
??0WmiOperatorLikeNode@@QAA@PAVWmiTreeNode@@0@Z
??0WmiOperatorNode@@QAA@ABV0@@Z
??0WmiOperatorNode@@QAA@KPAVWmiTreeNode@@0@Z
??0WmiOperatorNotEqualNode@@QAA@ABV0@@Z
??0WmiOperatorNotEqualNode@@QAA@PAVWmiTreeNode@@0@Z
??0WmiOperatorNotIsANode@@QAA@ABV0@@Z
??0WmiOperatorNotIsANode@@QAA@PAVWmiTreeNode@@0@Z
??0WmiOperatorNotLikeNode@@QAA@ABV0@@Z
??0WmiOperatorNotLikeNode@@QAA@PAVWmiTreeNode@@0@Z
??0WmiOrNode@@QAA@ABV0@@Z
??0WmiOrNode@@QAA@PAVWmiTreeNode@@00@Z
??0WmiRangeNode@@QAA@ABV0@@Z
??0WmiRangeNode@@QAA@KPAGKHHHHPAVWmiTreeNode@@1@Z
??0WmiSignedIntegerNode@@QAA@ABV0@@Z
??0WmiSignedIntegerNode@@QAA@PAGJKPAVWmiTreeNode@@@Z
??0WmiSignedIntegerRangeNode@@QAA@ABV0@@Z
??0WmiSignedIntegerRangeNode@@QAA@PAGKHHHHJJPAVWmiTreeNode@@1@Z
??0WmiStringNode@@QAA@ABV0@@Z
??0WmiStringNode@@QAA@PAG0W4WmiValueFunction@WmiValueNode@@1KPAVWmiTreeNode@@@Z
??0WmiStringRangeNode@@QAA@ABV0@@Z
??0WmiStringRangeNode@@QAA@PAGKHHHH00PAVWmiTreeNode@@1@Z
??0WmiTreeNode@@QAA@ABV0@@Z
??0WmiTreeNode@@QAA@KPAXPAV0@11@Z
??0WmiTreeNode@@QAA@PAV0@@Z
??0WmiTreeNodeIterator@@QAA@ABV0@@Z
??0WmiTreeNodeIterator@@QAA@PAV0@@Z
??0WmiTreeNodeIterator@@QAA@PAVWmiTreeNode@@@Z
??0WmiUnsignedIntegerNode@@QAA@ABV0@@Z
??0WmiUnsignedIntegerNode@@QAA@PAGKKPAVWmiTreeNode@@@Z
??0WmiUnsignedIntegerRangeNode@@QAA@ABV0@@Z
??0WmiUnsignedIntegerRangeNode@@QAA@PAGKHHHHKKPAVWmiTreeNode@@1@Z
??0WmiValueNode@@QAA@ABV0@@Z
??0WmiValueNode@@QAA@KPAGW4WmiValueFunction@0@1KPAVWmiTreeNode@@@Z
??1CBString@@QAA@XZ
??1Conjunctions@@QAA@XZ
??1Disjunctions@@QAA@XZ
??1PartitionSet@@UAA@XZ
??1ProvAnalyser@@UAA@XZ
??1ProvBitStringType@@UAA@XZ
??1ProvCounter64@@UAA@XZ
??1ProvCounter64Type@@UAA@XZ
??1ProvCounter@@UAA@XZ
??1ProvCounterType@@UAA@XZ
??1ProvDateTimeType@@UAA@XZ
??1ProvDisplayStringType@@UAA@XZ
??1ProvEnumeratedType@@UAA@XZ
??1ProvEventObject@@UAA@XZ
??1ProvFixedLengthDisplayStringType@@UAA@XZ
??1ProvFixedLengthOctetStringType@@UAA@XZ
??1ProvFixedLengthOpaqueType@@UAA@XZ
??1ProvFixedLengthPhysAddressType@@UAA@XZ
??1ProvFixedType@@UAA@XZ
??1ProvGauge@@UAA@XZ
??1ProvGaugeType@@UAA@XZ
??1ProvInstanceType@@UAA@XZ
??1ProvInteger@@UAA@XZ
??1ProvIntegerType@@UAA@XZ
??1ProvIpAddress@@UAA@XZ
??1ProvIpAddressType@@UAA@XZ
??1ProvLexicon@@QAA@XZ
??1ProvMacAddressType@@UAA@XZ
??1ProvNegativeRangeType@@UAA@XZ
??1ProvNetworkAddressType@@UAA@XZ
??1ProvNull@@UAA@XZ
??1ProvNullType@@UAA@XZ
??1ProvOSIAddressType@@UAA@XZ
??1ProvObjectIdentifier@@UAA@XZ
??1ProvObjectIdentifierType@@UAA@XZ
??1ProvOctetString@@UAA@XZ
??1ProvOctetStringType@@UAA@XZ
??1ProvOpaque@@UAA@XZ
??1ProvOpaqueType@@UAA@XZ
??1ProvPhysAddressType@@UAA@XZ
??1ProvPositiveRangeType@@UAA@XZ
??1ProvPositiveRangedType@@UAA@XZ
??1ProvRowStatusType@@UAA@XZ
??1ProvTimeTicks@@UAA@XZ
??1ProvTimeTicksType@@UAA@XZ
??1ProvUDPAddressType@@UAA@XZ
??1ProvUInteger32@@UAA@XZ
??1ProvValue@@UAA@XZ
??1QueryPreprocessor@@UAA@XZ
??1WmiAndNode@@UAA@XZ
??1WmiNotNode@@UAA@XZ
??1WmiNullNode@@UAA@XZ
??1WmiNullRangeNode@@UAA@XZ
??1WmiOperatorEqualNode@@UAA@XZ
??1WmiOperatorEqualOrGreaterNode@@UAA@XZ
??1WmiOperatorEqualOrLessNode@@UAA@XZ
??1WmiOperatorGreaterNode@@UAA@XZ
??1WmiOperatorIsANode@@UAA@XZ
??1WmiOperatorLessNode@@UAA@XZ
??1WmiOperatorLikeNode@@UAA@XZ
??1WmiOperatorNode@@UAA@XZ
??1WmiOperatorNotEqualNode@@UAA@XZ
??1WmiOperatorNotIsANode@@UAA@XZ
??1WmiOperatorNotLikeNode@@UAA@XZ
??1WmiOrNode@@UAA@XZ
??1WmiRangeNode@@UAA@XZ
??1WmiSignedIntegerNode@@UAA@XZ
??1WmiSignedIntegerRangeNode@@UAA@XZ
??1WmiStringNode@@UAA@XZ
??1WmiStringRangeNode@@UAA@XZ
??1WmiTreeNode@@UAA@XZ
??1WmiTreeNodeIterator@@UAA@XZ
??1WmiUnsignedIntegerNode@@UAA@XZ
??1WmiUnsignedIntegerRangeNode@@UAA@XZ
??1WmiValueNode@@UAA@XZ
??4CBString@@QAAAAV0@ABV0@@Z
??4CBString@@QAAABV0@PBG@Z
??4Conjunctions@@QAAAAV0@ABV0@@Z
??4Disjunctions@@QAAAAV0@ABV0@@Z
??4PartitionSet@@QAAAAV0@ABV0@@Z
??4ProvAnalyser@@QAAAAV0@ABV0@@Z
??4ProvBitStringType@@QAAAAV0@ABV0@@Z
??4ProvCounter64@@QAAAAVProvValue@@ABV0@@Z
??4ProvCounter64Type@@QAAAAV0@ABV0@@Z
??4ProvCounter@@QAAAAVProvValue@@ABV0@@Z
??4ProvCounterType@@QAAAAV0@ABV0@@Z
??4ProvDateTimeType@@QAAAAV0@ABV0@@Z
??4ProvDebugLog@@QAAAAV0@ABV0@@Z
??4ProvDisplayStringType@@QAAAAV0@ABV0@@Z
??4ProvEnumeratedType@@QAAAAV0@ABV0@@Z
??4ProvEventObject@@QAAAAV0@ABV0@@Z
??4ProvFixedLengthDisplayStringType@@QAAAAV0@ABV0@@Z
??4ProvFixedLengthOctetStringType@@QAAAAV0@ABV0@@Z
??4ProvFixedLengthOpaqueType@@QAAAAV0@ABV0@@Z
??4ProvFixedLengthPhysAddressType@@QAAAAV0@ABV0@@Z
??4ProvFixedType@@QAAAAV0@ABV0@@Z
??4ProvGauge@@QAAAAVProvValue@@ABV0@@Z
??4ProvGaugeType@@QAAAAV0@ABV0@@Z
??4ProvInstanceType@@QAAAAV0@ABV0@@Z
??4ProvInteger@@QAAAAVProvValue@@ABV0@@Z
??4ProvIntegerType@@QAAAAV0@ABV0@@Z
??4ProvIpAddress@@QAAAAVProvValue@@ABV0@@Z
??4ProvIpAddressType@@QAAAAV0@ABV0@@Z
??4ProvLexicon@@QAAAAV0@ABV0@@Z
??4ProvMacAddressType@@QAAAAV0@ABV0@@Z
??4ProvNegativeRangeType@@QAAAAV0@ABV0@@Z
??4ProvNetworkAddressType@@QAAAAV0@ABV0@@Z
??4ProvNull@@QAAAAVProvValue@@ABV0@@Z
??4ProvNullType@@QAAAAV0@ABV0@@Z
??4ProvOSIAddressType@@QAAAAV0@ABV0@@Z
??4ProvObjectIdentifier@@QAAAAVProvValue@@ABV0@@Z
??4ProvObjectIdentifierType@@QAAAAV0@ABV0@@Z
??4ProvOctetString@@QAAAAVProvValue@@ABV0@@Z
??4ProvOctetStringType@@QAAAAV0@ABV0@@Z
??4ProvOpaque@@QAAAAVProvValue@@ABV0@@Z
??4ProvOpaqueType@@QAAAAV0@ABV0@@Z
??4ProvPhysAddressType@@QAAAAV0@ABV0@@Z
??4ProvPositiveRangeType@@QAAAAV0@ABV0@@Z
??4ProvPositiveRangedType@@QAAAAV0@ABV0@@Z
??4ProvRowStatusType@@QAAAAV0@ABV0@@Z
??4ProvTimeTicks@@QAAAAVProvValue@@ABV0@@Z
??4ProvTimeTicksType@@QAAAAV0@ABV0@@Z
??4ProvUDPAddressType@@QAAAAV0@ABV0@@Z
??4ProvUInteger32@@QAAAAVProvValue@@ABV0@@Z
??4ProvValue@@AAAAAV0@ABV0@@Z
??4QueryPreprocessor@@QAAAAV0@ABV0@@Z
??4WmiAndNode@@QAAAAV0@ABV0@@Z
??4WmiNotNode@@QAAAAV0@ABV0@@Z
??4WmiNullNode@@QAAAAV0@ABV0@@Z
??4WmiNullRangeNode@@QAAAAV0@ABV0@@Z
??4WmiOperatorEqualNode@@QAAAAV0@ABV0@@Z
??4WmiOperatorEqualOrGreaterNode@@QAAAAV0@ABV0@@Z
??4WmiOperatorEqualOrLessNode@@QAAAAV0@ABV0@@Z
??4WmiOperatorGreaterNode@@QAAAAV0@ABV0@@Z
??4WmiOperatorIsANode@@QAAAAV0@ABV0@@Z
??4WmiOperatorLessNode@@QAAAAV0@ABV0@@Z
??4WmiOperatorLikeNode@@QAAAAV0@ABV0@@Z
??4WmiOperatorNode@@QAAAAV0@ABV0@@Z
??4WmiOperatorNotEqualNode@@QAAAAV0@ABV0@@Z
??4WmiOperatorNotIsANode@@QAAAAV0@ABV0@@Z
??4WmiOperatorNotLikeNode@@QAAAAV0@ABV0@@Z
??4WmiOrNode@@QAAAAV0@ABV0@@Z
??4WmiRangeNode@@QAAAAV0@ABV0@@Z
??4WmiSignedIntegerNode@@QAAAAV0@ABV0@@Z
??4WmiSignedIntegerRangeNode@@QAAAAV0@ABV0@@Z
??4WmiStringNode@@QAAAAV0@ABV0@@Z
??4WmiStringRangeNode@@QAAAAV0@ABV0@@Z
??4WmiTreeNode@@QAAAAV0@ABV0@@Z
??4WmiTreeNodeIterator@@QAAAAV0@ABV0@@Z
??4WmiUnsignedIntegerNode@@QAAAAV0@ABV0@@Z
??4WmiUnsignedIntegerRangeNode@@QAAAAV0@ABV0@@Z
??4WmiValueNode@@QAAAAV0@ABV0@@Z
??8ProvInstanceType@@QBAHABV0@@Z
??8ProvObjectIdentifier@@QBAHABV0@@Z
??8ProvValue@@QBAHABV0@@Z
??9ProvInstanceType@@QBAHABV0@@Z
??9ProvObjectIdentifier@@QBAHABV0@@Z
??9ProvValue@@QBAHABV0@@Z
??AProvObjectIdentifier@@QBAAAKK@Z
??BProvAnalyser@@UAAPAXXZ
??BProvInstanceType@@UAAPAXXZ
??BProvPositiveRangedType@@UAAPAXXZ
??HProvObjectIdentifier@@QBA?AV0@ABV0@@Z
??MProvObjectIdentifier@@QBAHABV0@@Z
??NProvObjectIdentifier@@QBAHABV0@@Z
??OProvObjectIdentifier@@QBAHABV0@@Z
??PProvObjectIdentifier@@QBAHABV0@@Z
??RProvIpAddress@@QBAPAXXZ
??RProvObjectIdentifier@@QBAPAXXZ
??RProvOctetString@@QBAPAXXZ
??RProvOpaque@@QBAPAXXZ
??_7PartitionSet@@6B@ DATA
??_7ProvAnalyser@@6B@ DATA
??_7ProvBitStringType@@6BProvInstanceType@@@ DATA
??_7ProvBitStringType@@6BProvPositiveRangedType@@@ DATA
??_7ProvCounter64@@6B@ DATA
??_7ProvCounter64Type@@6B@ DATA
??_7ProvCounter@@6B@ DATA
??_7ProvCounterType@@6B@ DATA
??_7ProvDateTimeType@@6BProvInstanceType@@@ DATA
??_7ProvDateTimeType@@6BProvPositiveRangedType@@@ DATA
??_7ProvDisplayStringType@@6BProvInstanceType@@@ DATA
??_7ProvDisplayStringType@@6BProvPositiveRangedType@@@ DATA
??_7ProvEnumeratedType@@6BProvInstanceType@@@ DATA
??_7ProvEnumeratedType@@6BProvNegativeRangedType@@@ DATA
??_7ProvEventObject@@6B@ DATA
??_7ProvFixedLengthDisplayStringType@@6B@ DATA
??_7ProvFixedLengthDisplayStringType@@6BProvInstanceType@@@ DATA
??_7ProvFixedLengthDisplayStringType@@6BProvPositiveRangedType@@@ DATA
??_7ProvFixedLengthOctetStringType@@6B@ DATA
??_7ProvFixedLengthOctetStringType@@6BProvInstanceType@@@ DATA
??_7ProvFixedLengthOctetStringType@@6BProvPositiveRangedType@@@ DATA
??_7ProvFixedLengthOpaqueType@@6B@ DATA
??_7ProvFixedLengthOpaqueType@@6BProvInstanceType@@@ DATA
??_7ProvFixedLengthOpaqueType@@6BProvPositiveRangedType@@@ DATA
??_7ProvFixedLengthPhysAddressType@@6B@ DATA
??_7ProvFixedLengthPhysAddressType@@6BProvInstanceType@@@ DATA
??_7ProvFixedLengthPhysAddressType@@6BProvPositiveRangedType@@@ DATA
??_7ProvFixedType@@6B@ DATA
??_7ProvGauge@@6B@ DATA
??_7ProvGaugeType@@6BProvInstanceType@@@ DATA
??_7ProvGaugeType@@6BProvPositiveRangedType@@@ DATA
??_7ProvInstanceType@@6B@ DATA
??_7ProvInteger@@6B@ DATA
??_7ProvIntegerType@@6BProvInstanceType@@@ DATA
??_7ProvIntegerType@@6BProvNegativeRangedType@@@ DATA
??_7ProvIpAddress@@6B@ DATA
??_7ProvIpAddressType@@6B@ DATA
??_7ProvMacAddressType@@6B@ DATA
??_7ProvMacAddressType@@6BProvInstanceType@@@ DATA
??_7ProvMacAddressType@@6BProvPositiveRangedType@@@ DATA
??_7ProvNegativeRangeType@@6B@ DATA
??_7ProvNetworkAddressType@@6B@ DATA
??_7ProvNull@@6B@ DATA
??_7ProvNullType@@6B@ DATA
??_7ProvOSIAddressType@@6BProvInstanceType@@@ DATA
??_7ProvOSIAddressType@@6BProvPositiveRangedType@@@ DATA
??_7ProvObjectIdentifier@@6B@ DATA
??_7ProvObjectIdentifierType@@6B@ DATA
??_7ProvOctetString@@6B@ DATA
??_7ProvOctetStringType@@6BProvInstanceType@@@ DATA
??_7ProvOctetStringType@@6BProvPositiveRangedType@@@ DATA
??_7ProvOpaque@@6B@ DATA
??_7ProvOpaqueType@@6BProvInstanceType@@@ DATA
??_7ProvOpaqueType@@6BProvPositiveRangedType@@@ DATA
??_7ProvPhysAddressType@@6BProvInstanceType@@@ DATA
??_7ProvPhysAddressType@@6BProvPositiveRangedType@@@ DATA
??_7ProvPositiveRangeType@@6B@ DATA
??_7ProvPositiveRangedType@@6B@ DATA
??_7ProvRowStatusType@@6BProvInstanceType@@@ DATA
??_7ProvRowStatusType@@6BProvNegativeRangedType@@@ DATA
??_7ProvTimeTicks@@6B@ DATA
??_7ProvTimeTicksType@@6B@ DATA
??_7ProvUDPAddressType@@6B@ DATA
??_7ProvUDPAddressType@@6BProvInstanceType@@@ DATA
??_7ProvUDPAddressType@@6BProvPositiveRangedType@@@ DATA
??_7ProvUInteger32@@6B@ DATA
??_7ProvValue@@6B@ DATA
??_7QueryPreprocessor@@6B@ DATA
??_7WmiAndNode@@6B@ DATA
??_7WmiNotNode@@6B@ DATA
??_7WmiNullNode@@6B@ DATA
??_7WmiNullRangeNode@@6B@ DATA
??_7WmiOperatorEqualNode@@6B@ DATA
??_7WmiOperatorEqualOrGreaterNode@@6B@ DATA
??_7WmiOperatorEqualOrLessNode@@6B@ DATA
??_7WmiOperatorGreaterNode@@6B@ DATA
??_7WmiOperatorIsANode@@6B@ DATA
??_7WmiOperatorLessNode@@6B@ DATA
??_7WmiOperatorLikeNode@@6B@ DATA
??_7WmiOperatorNode@@6B@ DATA
??_7WmiOperatorNotEqualNode@@6B@ DATA
??_7WmiOperatorNotIsANode@@6B@ DATA
??_7WmiOperatorNotLikeNode@@6B@ DATA
??_7WmiOrNode@@6B@ DATA
??_7WmiRangeNode@@6B@ DATA
??_7WmiSignedIntegerNode@@6B@ DATA
??_7WmiSignedIntegerRangeNode@@6B@ DATA
??_7WmiStringNode@@6B@ DATA
??_7WmiStringRangeNode@@6B@ DATA
??_7WmiTreeNode@@6B@ DATA
??_7WmiTreeNodeIterator@@6B@ DATA
??_7WmiUnsignedIntegerNode@@6B@ DATA
??_7WmiUnsignedIntegerRangeNode@@6B@ DATA
??_7WmiValueNode@@6B@ DATA
??_FProvAnalyser@@QAAXXZ
??_FProvDisplayStringType@@QAAXXZ
??_FProvEventObject@@QAAXXZ
??_FProvGaugeType@@QAAXXZ
??_FProvInstanceType@@QAAXXZ
??_FProvIntegerType@@QAAXXZ
??_FProvOctetStringType@@QAAXXZ
??_FProvOpaqueType@@QAAXXZ
??_FProvPhysAddressType@@QAAXXZ
??_FProvPositiveRangedType@@QAAXXZ
??_FWmiAndNode@@QAAXXZ
??_FWmiNotNode@@QAAXXZ
??_FWmiOperatorEqualNode@@QAAXXZ
??_FWmiOperatorEqualOrGreaterNode@@QAAXXZ
??_FWmiOperatorEqualOrLessNode@@QAAXXZ
??_FWmiOperatorGreaterNode@@QAAXXZ
??_FWmiOperatorIsANode@@QAAXXZ
??_FWmiOperatorLessNode@@QAAXXZ
??_FWmiOperatorLikeNode@@QAAXXZ
??_FWmiOperatorNotEqualNode@@QAAXXZ
??_FWmiOperatorNotIsANode@@QAAXXZ
??_FWmiOperatorNotLikeNode@@QAAXXZ
??_FWmiOrNode@@QAAXXZ
??_FWmiTreeNode@@QAAXXZ
?AllocInfiniteRangeNode@QueryPreprocessor@@MAAPAVWmiRangeNode@@PAXPAG@Z
?AllocTypeNode@QueryPreprocessor@@MAAPAVWmiTreeNode@@PAXPAGAAUtagVARIANT@@W4WmiValueFunction@WmiValueNode@@3PAV2@@Z
?Analyse@ProvAnalyser@@MAAHPAVProvLexicon@@AAKGPBG1HHH@Z
?BitStringDef@ProvBitStringType@@AAAHXZ
?Check@ProvPositiveRangedType@@QAAHABK@Z
?Clear@ProvEventObject@@QAAXXZ
?ClosedLowerBound@WmiRangeNode@@QAAHXZ
?ClosedUpperBound@WmiRangeNode@@QAAHXZ
?Closedown@ProvDebugLog@@SAXXZ
?Compare@ProvObjectIdentifier@@IBA?AW4Comparison@1@ABV1@0@Z
?ComparePropertyName@WmiRangeNode@@QAAJAAV1@@Z
?ComparePropertyName@WmiValueNode@@QAAJAAV1@@Z
?Complete@ProvEventObject@@UAAXXZ
?ConvertToRanges@QueryPreprocessor@@IAA?AW4WmiTriState@@AAPAVWmiTreeNode@@@Z
?Copy@ProvBitStringType@@UBAPAVProvInstanceType@@XZ
?Copy@ProvCounter64@@UBAPAVProvValue@@XZ
?Copy@ProvCounter64Type@@UBAPAVProvInstanceType@@XZ
?Copy@ProvCounter@@UBAPAVProvValue@@XZ
?Copy@ProvCounterType@@UBAPAVProvInstanceType@@XZ
?Copy@ProvDateTimeType@@UBAPAVProvInstanceType@@XZ
?Copy@ProvDisplayStringType@@UBAPAVProvInstanceType@@XZ
?Copy@ProvEnumeratedType@@UBAPAVProvInstanceType@@XZ
?Copy@ProvFixedLengthDisplayStringType@@UBAPAVProvInstanceType@@XZ
?Copy@ProvFixedLengthOctetStringType@@UBAPAVProvInstanceType@@XZ
?Copy@ProvFixedLengthOpaqueType@@UBAPAVProvInstanceType@@XZ
?Copy@ProvFixedLengthPhysAddressType@@UBAPAVProvInstanceType@@XZ
?Copy@ProvGauge@@UBAPAVProvValue@@XZ
?Copy@ProvGaugeType@@UBAPAVProvInstanceType@@XZ
?Copy@ProvInteger@@UBAPAVProvValue@@XZ
?Copy@ProvIntegerType@@UBAPAVProvInstanceType@@XZ
?Copy@ProvIpAddress@@UBAPAVProvValue@@XZ
?Copy@ProvIpAddressType@@UBAPAVProvInstanceType@@XZ
?Copy@ProvMacAddressType@@UBAPAVProvInstanceType@@XZ
?Copy@ProvNegativeRangeType@@UAAPAV1@XZ
?Copy@ProvNetworkAddressType@@UBAPAVProvInstanceType@@XZ
?Copy@ProvNull@@UBAPAVProvValue@@XZ
?Copy@ProvNullType@@UBAPAVProvInstanceType@@XZ
?Copy@ProvOSIAddressType@@UBAPAVProvInstanceType@@XZ
?Copy@ProvObjectIdentifier@@UBAPAVProvValue@@XZ
?Copy@ProvObjectIdentifierType@@UBAPAVProvInstanceType@@XZ
?Copy@ProvOctetString@@UBAPAVProvValue@@XZ
?Copy@ProvOctetStringType@@UBAPAVProvInstanceType@@XZ
?Copy@ProvOpaque@@UBAPAVProvValue@@XZ
?Copy@ProvOpaqueType@@UBAPAVProvInstanceType@@XZ
?Copy@ProvPhysAddressType@@UBAPAVProvInstanceType@@XZ
?Copy@ProvPositiveRangeType@@UAAPAV1@XZ
?Copy@ProvRowStatusType@@UBAPAVProvInstanceType@@XZ
?Copy@ProvTimeTicks@@UBAPAVProvValue@@XZ
?Copy@ProvTimeTicksType@@UBAPAVProvInstanceType@@XZ
?Copy@ProvUDPAddressType@@UBAPAVProvInstanceType@@XZ
?Copy@ProvUInteger32@@UBAPAVProvValue@@XZ
?Copy@WmiAndNode@@UAAPAVWmiTreeNode@@XZ
?Copy@WmiNotNode@@UAAPAVWmiTreeNode@@XZ
?Copy@WmiNullNode@@UAAPAVWmiTreeNode@@XZ
?Copy@WmiNullRangeNode@@UAAPAVWmiTreeNode@@XZ
?Copy@WmiOperatorEqualNode@@UAAPAVWmiTreeNode@@XZ
?Copy@WmiOperatorEqualOrGreaterNode@@UAAPAVWmiTreeNode@@XZ
?Copy@WmiOperatorEqualOrLessNode@@UAAPAVWmiTreeNode@@XZ
?Copy@WmiOperatorGreaterNode@@UAAPAVWmiTreeNode@@XZ
?Copy@WmiOperatorIsANode@@UAAPAVWmiTreeNode@@XZ
?Copy@WmiOperatorLessNode@@UAAPAVWmiTreeNode@@XZ
?Copy@WmiOperatorLikeNode@@UAAPAVWmiTreeNode@@XZ
?Copy@WmiOperatorNotEqualNode@@UAAPAVWmiTreeNode@@XZ
?Copy@WmiOperatorNotIsANode@@UAAPAVWmiTreeNode@@XZ
?Copy@WmiOperatorNotLikeNode@@UAAPAVWmiTreeNode@@XZ
?Copy@WmiOrNode@@UAAPAVWmiTreeNode@@XZ
?Copy@WmiSignedIntegerNode@@UAAPAVWmiTreeNode@@XZ
?Copy@WmiSignedIntegerRangeNode@@UAAPAVWmiTreeNode@@XZ
?Copy@WmiStringNode@@UAAPAVWmiTreeNode@@XZ
?Copy@WmiStringRangeNode@@UAAPAVWmiTreeNode@@XZ
?Copy@WmiTreeNode@@UAAPAV1@XZ
?Copy@WmiTreeNodeIterator@@UAAPAV1@XZ
?Copy@WmiUnsignedIntegerNode@@UAAPAVWmiTreeNode@@XZ
?Copy@WmiUnsignedIntegerRangeNode@@UAAPAVWmiTreeNode@@XZ
?CopyNode@WmiTreeNode@@UAAPAV1@XZ
?CountDisjunctions@QueryPreprocessor@@IAAXPAVWmiTreeNode@@AAK@Z
?CreateDisjunctionContainer@QueryPreprocessor@@IAA?AW4WmiTriState@@PAXPAVWmiTreeNode@@KPAPAGAAPAVDisjunctions@@@Z
?CreateDisjunctions@QueryPreprocessor@@IAA?AW4WmiTriState@@PAXPAVWmiTreeNode@@PAVDisjunctions@@KPAPAGAAK@Z
?CreateLexicon@ProvAnalyser@@MAAPAVProvLexicon@@XZ
?CreatePartitionSet@QueryPreprocessor@@IAA?AW4WmiTriState@@PAVDisjunctions@@AAPAVPartitionSet@@@Z
?Cut@ProvObjectIdentifier@@QBAPAV1@AAV1@@Z
?DateTimeDef@ProvDateTimeType@@AAAHXZ
?DbcsToUnicodeString@@YAPAGPBD@Z
?DecCharToDecInteger@ProvAnalyser@@SAKD@Z
?DecIntegerToDecChar@ProvAnalyser@@SADE@Z
?DecIntegerToDecWChar@ProvAnalyser@@SAGE@Z
?DecIntegerToHexChar@ProvAnalyser@@SADE@Z
?DecIntegerToHexWChar@ProvAnalyser@@SAGE@Z
?DecIntegerToOctChar@ProvAnalyser@@SADE@Z
?DecIntegerToOctWChar@ProvAnalyser@@SAGE@Z
?DecWCharToDecInteger@ProvAnalyser@@SAKG@Z
?DisjunctiveNormalForm@QueryPreprocessor@@IAA?AW4QuadState@1@AAPAVWmiTreeNode@@@Z
?Encode@ProvDateTimeType@@AAAXABK0000000000@Z
?EnumerationDef@ProvEnumeratedType@@AAAHXZ
?Equivalent@ProvCounter64@@MBAHABVProvValue@@@Z
?Equivalent@ProvCounter64@@QBAHABV1@@Z
?Equivalent@ProvCounter64Type@@MBAHABVProvInstanceType@@@Z
?Equivalent@ProvCounter@@MBAHABVProvValue@@@Z
?Equivalent@ProvCounter@@QBAHABV1@@Z
?Equivalent@ProvCounterType@@MBAHABVProvInstanceType@@@Z
?Equivalent@ProvGauge@@MBAHABVProvValue@@@Z
?Equivalent@ProvGauge@@QBAHABV1@@Z
?Equivalent@ProvGaugeType@@MBAHABVProvInstanceType@@@Z
?Equivalent@ProvInteger@@MBAHABVProvValue@@@Z
?Equivalent@ProvInteger@@QBAHABV1@@Z
?Equivalent@ProvIntegerType@@MBAHABVProvInstanceType@@@Z
?Equivalent@ProvIpAddress@@MBAHABVProvValue@@@Z
?Equivalent@ProvIpAddress@@QBAHABV1@@Z
?Equivalent@ProvIpAddressType@@MBAHABVProvInstanceType@@@Z
?Equivalent@ProvNetworkAddressType@@MBAHABVProvInstanceType@@@Z
?Equivalent@ProvNull@@MBAHABVProvValue@@@Z
?Equivalent@ProvNullType@@MBAHABVProvInstanceType@@@Z
?Equivalent@ProvObjectIdentifier@@IBAHABV1@@Z
?Equivalent@ProvObjectIdentifier@@MBAHABVProvValue@@@Z
?Equivalent@ProvObjectIdentifier@@QBAHABV1@K@Z
?Equivalent@ProvObjectIdentifierType@@MBAHABVProvInstanceType@@@Z
?Equivalent@ProvOctetString@@MBAHABVProvValue@@@Z
?Equivalent@ProvOctetString@@QBAHABV1@@Z
?Equivalent@ProvOctetStringType@@MBAHABVProvInstanceType@@@Z
?Equivalent@ProvOpaque@@MBAHABVProvValue@@@Z
?Equivalent@ProvOpaque@@QBAHABV1@@Z
?Equivalent@ProvOpaqueType@@MBAHABVProvInstanceType@@@Z
?Equivalent@ProvTimeTicks@@MBAHABVProvValue@@@Z
?Equivalent@ProvTimeTicks@@QBAHABV1@@Z
?Equivalent@ProvTimeTicksType@@MBAHABVProvInstanceType@@@Z
?Equivalent@ProvUInteger32@@MBAHABVProvValue@@@Z
?Equivalent@ProvUInteger32@@QBAHABV1@@Z
?Evaluate@QueryPreprocessor@@IAAHPAXAAUSQL_LEVEL_1_RPN_EXPRESSION@@PAPAVWmiTreeNode@@@Z
?EvaluateAndExpression@QueryPreprocessor@@IAA?AW4WmiTriState@@AAPAVWmiTreeNode@@@Z
?EvaluateNotEqualExpression@QueryPreprocessor@@IAA?AW4WmiTriState@@AAPAVWmiTreeNode@@@Z
?EvaluateNotExpression@QueryPreprocessor@@IAA?AW4WmiTriState@@AAPAVWmiTreeNode@@@Z
?EvaluateOrExpression@QueryPreprocessor@@IAA?AW4WmiTriState@@AAPAVWmiTreeNode@@@Z
?Get@ProvAnalyser@@QAAPAVProvLexicon@@HHH@Z
?Get@ProvBitStringType@@AAAPAVProvLexicon@@XZ
?Get@ProvDateTimeType@@AAAPAVProvLexicon@@XZ
?Get@ProvEnumeratedType@@AAAPAVProvLexicon@@XZ
?Get@ProvPositiveRangedType@@IAAPAVProvLexicon@@XZ
?GetAllocatedString@ProvObjectIdentifier@@QBAPADXZ
?GetConjunctionCount@Disjunctions@@QAAKXZ
?GetConstantFunction@WmiValueNode@@QAA?AW4WmiValueFunction@1@XZ
?GetData@WmiTreeNode@@QAAPAXXZ
?GetData@WmiTreeNode@@QAAXPAPAX@Z
?GetDisjunction@Disjunctions@@QAAPAVConjunctions@@K@Z
?GetDisjunctionCount@Disjunctions@@QAAKXZ
?GetHandle@ProvEventObject@@QAAPAXXZ
?GetHighValue@ProvCounter64@@QBAKXZ
?GetIndex@WmiRangeNode@@QAAKXZ
?GetIndex@WmiValueNode@@QAAKXZ
?GetIntersectingRange@WmiSignedIntegerRangeNode@@QAA?AW4WmiTriState@@AAV1@AAPAV1@@Z
?GetIntersectingRange@WmiStringRangeNode@@QAA?AW4WmiTriState@@AAV1@AAPAV1@@Z
?GetIntersectingRange@WmiUnsignedIntegerRangeNode@@QAA?AW4WmiTriState@@AAV1@AAPAV1@@Z
?GetIterator@WmiTreeNodeIterator@@QAAPAVWmiTreeNode@@XZ
?GetKeyIndex@PartitionSet@@QAAKXZ
?GetLeft@WmiTreeNode@@QAAPAV1@XZ
?GetLeft@WmiTreeNode@@QAAXAAPAPAV1@@Z
?GetLevel@ProvDebugLog@@QAAKXZ
?GetLogging@ProvDebugLog@@QAAHXZ
?GetLowValue@ProvCounter64@@QBAKXZ
?GetLowerBound@ProvNegativeRangeType@@QAAJXZ
?GetLowerBound@ProvPositiveRangeType@@QAAKXZ
?GetOverlappingRange@WmiSignedIntegerRangeNode@@QAA?AW4WmiTriState@@AAV1@AAPAV1@@Z
?GetOverlappingRange@WmiStringRangeNode@@QAA?AW4WmiTriState@@AAV1@AAPAV1@@Z
?GetOverlappingRange@WmiUnsignedIntegerRangeNode@@QAA?AW4WmiTriState@@AAV1@AAPAV1@@Z
?GetParent@WmiTreeNode@@QAAPAV1@XZ
?GetParent@WmiTreeNode@@QAAXAAPAPAV1@@Z
?GetPartition@PartitionSet@@QAAPAV1@K@Z
?GetPartitionCount@PartitionSet@@QAAKXZ
?GetPropertyFunction@WmiValueNode@@QAA?AW4WmiValueFunction@1@XZ
?GetPropertyName@WmiRangeNode@@QAAPAGXZ
?GetPropertyName@WmiValueNode@@QAAPAGXZ
?GetProvDebugLog@ProvDebugLog@@SAPAV1@D@Z
?GetRange@Conjunctions@@QAAPAVWmiRangeNode@@K@Z
?GetRange@PartitionSet@@QAAPAVWmiRangeNode@@XZ
?GetRange@WmiOperatorEqualNode@@UAAPAVWmiRangeNode@@XZ
?GetRange@WmiOperatorEqualOrGreaterNode@@UAAPAVWmiRangeNode@@XZ
?GetRange@WmiOperatorEqualOrLessNode@@UAAPAVWmiRangeNode@@XZ
?GetRange@WmiOperatorGreaterNode@@UAAPAVWmiRangeNode@@XZ
?GetRange@WmiOperatorIsANode@@UAAPAVWmiRangeNode@@XZ
?GetRange@WmiOperatorLessNode@@UAAPAVWmiRangeNode@@XZ
?GetRange@WmiOperatorLikeNode@@UAAPAVWmiRangeNode@@XZ
?GetRange@WmiOperatorNotEqualNode@@UAAPAVWmiRangeNode@@XZ
?GetRange@WmiOperatorNotIsANode@@UAAPAVWmiRangeNode@@XZ
?GetRange@WmiOperatorNotLikeNode@@UAAPAVWmiRangeNode@@XZ
?GetRangeCount@Conjunctions@@QAAKXZ
?GetRight@WmiTreeNode@@QAAPAV1@XZ
?GetRight@WmiTreeNode@@QAAXAAPAPAV1@@Z
?GetRowStatus@ProvRowStatusType@@QBA?AW4ProvRowStatusEnum@1@XZ
?GetString@CBString@@QAAPAGXZ
?GetStringValue@ProvBitStringType@@UBAPAGXZ
?GetStringValue@ProvCounter64Type@@UBAPAGXZ
?GetStringValue@ProvCounterType@@UBAPAGXZ
?GetStringValue@ProvDateTimeType@@UBAPAGXZ
?GetStringValue@ProvDisplayStringType@@UBAPAGXZ
?GetStringValue@ProvEnumeratedType@@UBAPAGXZ
?GetStringValue@ProvFixedLengthDisplayStringType@@UBAPAGXZ
?GetStringValue@ProvFixedLengthPhysAddressType@@UBAPAGXZ
?GetStringValue@ProvGaugeType@@UBAPAGXZ
?GetStringValue@ProvIntegerType@@UBAPAGXZ
?GetStringValue@ProvIpAddressType@@UBAPAGXZ
?GetStringValue@ProvMacAddressType@@UBAPAGXZ
?GetStringValue@ProvNetworkAddressType@@UBAPAGXZ
?GetStringValue@ProvNullType@@UBAPAGXZ
?GetStringValue@ProvOSIAddressType@@UBAPAGXZ
?GetStringValue@ProvObjectIdentifierType@@UBAPAGXZ
?GetStringValue@ProvOctetStringType@@UBAPAGXZ
?GetStringValue@ProvOpaqueType@@UBAPAGXZ
?GetStringValue@ProvPhysAddressType@@UBAPAGXZ
?GetStringValue@ProvRowStatusType@@UBAPAGXZ
?GetStringValue@ProvTimeTicksType@@UBAPAGXZ
?GetStringValue@ProvUDPAddressType@@UBAPAGXZ
?GetToken@ProvAnalyser@@AAAPAVProvLexicon@@HHH@Z
?GetToken@ProvLexicon@@QAA?AW4LexiconToken@1@XZ
?GetType@WmiTreeNode@@QAAKXZ
?GetUpperBound@ProvNegativeRangeType@@QAAJXZ
?GetUpperBound@ProvPositiveRangeType@@QAAKXZ
?GetValue@ProvBitStringType@@QBAKAAPAPAG@Z
?GetValue@ProvCounter64Type@@QBAXAAK0@Z
?GetValue@ProvCounter@@QBAKXZ
?GetValue@ProvCounterType@@QBAKXZ
?GetValue@ProvDateTimeType@@QBAPAGXZ
?GetValue@ProvDisplayStringType@@QBAPAGXZ
?GetValue@ProvEnumeratedType@@QBAPAGXZ
?GetValue@ProvFixedLengthDisplayStringType@@QBAPAGXZ
?GetValue@ProvGauge@@QBAKXZ
?GetValue@ProvGaugeType@@QBAKXZ
?GetValue@ProvInteger@@QBAJXZ
?GetValue@ProvIntegerType@@QBAJXZ
?GetValue@ProvIpAddress@@QBAKXZ
?GetValue@ProvIpAddressType@@QBAKXZ
?GetValue@ProvLexicon@@QAAPATProvLexiconValue@@XZ
?GetValue@ProvNetworkAddressType@@QBAKXZ
?GetValue@ProvObjectIdentifier@@QBAPAKXZ
?GetValue@ProvObjectIdentifierType@@QBAPAKXZ
?GetValue@ProvOctetString@@QBAPAEXZ
?GetValue@ProvOctetStringType@@QBAPAEXZ
?GetValue@ProvOpaque@@QBAPAEXZ
?GetValue@ProvOpaqueType@@QBAPAEXZ
?GetValue@ProvRowStatusType@@QBAPAGXZ
?GetValue@ProvTimeTicks@@QBAKXZ
?GetValue@ProvTimeTicksType@@QBAKXZ
?GetValue@ProvUInteger32@@QBAKXZ
?GetValue@WmiSignedIntegerNode@@QAAJXZ
?GetValue@WmiStringNode@@QAAPAGXZ
?GetValue@WmiUnsignedIntegerNode@@QAAKXZ
?GetValueLength@ProvObjectIdentifier@@QBAKXZ
?GetValueLength@ProvObjectIdentifierType@@QBAKXZ
?GetValueLength@ProvOctetString@@QBAKXZ
?GetValueLength@ProvOctetStringType@@QBAKXZ
?GetValueLength@ProvOpaque@@QBAKXZ
?GetValueLength@ProvOpaqueType@@QBAKXZ
?HexCharToDecInteger@ProvAnalyser@@SAKD@Z
?HexWCharToDecInteger@ProvAnalyser@@SAKG@Z
?InfiniteLowerBound@WmiRangeNode@@QAAHXZ
?InfiniteUpperBound@WmiRangeNode@@QAAHXZ
?Initialise@ProvAnalyser@@MAAXXZ
?Initialize@Conjunctions@@QAA?AW4WmiTriState@@XZ
?Initialize@Disjunctions@@QAA?AW4WmiTriState@@XZ
?Initialize@PartitionSet@@QAA?AW4WmiTriState@@K@Z
?Initialize@ProvObjectIdentifier@@MAAXPBKK@Z
?Initialize@ProvOctetString@@MAAXPBEK@Z
?InsertNode@QueryPreprocessor@@IAA?AW4WmiTriState@@AAPAVWmiTreeNode@@0@Z
?InvariantEvaluate@QueryPreprocessor@@MAA?AW4QuadState@1@PAXPAVWmiTreeNode@@1@Z
?IsAlpha@ProvAnalyser@@SAHG@Z
?IsAlphaNumeric@ProvAnalyser@@SAHG@Z
?IsDecimal@ProvAnalyser@@SAHG@Z
?IsEof@ProvAnalyser@@SAHG@Z
?IsHex@ProvAnalyser@@SAHG@Z
?IsLeadingDecimal@ProvAnalyser@@SAHG@Z
?IsNull@ProvInstanceType@@UBAHXZ
?IsOctal@ProvAnalyser@@SAHG@Z
?IsProvV1Type@ProvCounter64Type@@UBAHXZ
?IsProvV1Type@ProvInstanceType@@UBAHXZ
?IsProvV2CType@ProvInstanceType@@UBAHXZ
?IsProvV2CType@ProvNullType@@UBAHXZ
?IsValid@ProvInstanceType@@UBAHXZ
?IsValid@ProvPositiveRangedType@@QAAHXZ
?IsWhitespace@ProvAnalyser@@SAHG@Z
?Leaf@PartitionSet@@QAAHXZ
?LexicographicallyAfter@WmiSignedIntegerNode@@QAAHAAJ@Z
?LexicographicallyAfter@WmiStringNode@@QAAHAAPAG@Z
?LexicographicallyAfter@WmiUnsignedIntegerNode@@QAAHAAK@Z
?LexicographicallyBefore@WmiSignedIntegerNode@@QAAHAAJ@Z
?LexicographicallyBefore@WmiStringNode@@QAAHAAPAG@Z
?LexicographicallyBefore@WmiUnsignedIntegerNode@@QAAHAAK@Z
?LowerBound@WmiSignedIntegerRangeNode@@QAAJXZ
?LowerBound@WmiStringRangeNode@@QAAPAGXZ
?LowerBound@WmiUnsignedIntegerRangeNode@@QAAKXZ
?Match@ProvBitStringType@@AAAPAVProvLexicon@@W4LexiconToken@2@@Z
?Match@ProvDateTimeType@@AAAPAVProvLexicon@@W4LexiconToken@2@@Z
?Match@ProvEnumeratedType@@AAAPAVProvLexicon@@W4LexiconToken@2@@Z
?Match@ProvPositiveRangedType@@IAAPAVProvLexicon@@W4LexiconToken@2@@Z
?OctCharToDecInteger@ProvAnalyser@@SAKD@Z
?OctWCharToDecInteger@ProvAnalyser@@SAKG@Z
?OverWrite@ProvObjectIdentifier@@AAAXPBK@Z
?OverWrite@ProvOctetString@@AAAXPBE@Z
?Parse@ProvBitStringType@@AAAHPBG@Z
?Parse@ProvCounter64Type@@IAAHPBG@Z
?Parse@ProvCounterType@@IAAHPBG@Z
?Parse@ProvDateTimeType@@AAAHPBG@Z
?Parse@ProvEnumeratedType@@AAAHPBG@Z
?Parse@ProvFixedLengthPhysAddressType@@IAAHPBG@Z
?Parse@ProvGaugeType@@IAAHPBG@Z
?Parse@ProvIntegerType@@IAAHPBG@Z
?Parse@ProvIpAddressType@@IAAHPBG@Z
?Parse@ProvMacAddressType@@IAAHPBG@Z
?Parse@ProvNetworkAddressType@@IAAHPBG@Z
?Parse@ProvOSIAddressType@@IAAHPBG@Z
?Parse@ProvObjectIdentifierType@@IAAHPBG@Z
?Parse@ProvOctetStringType@@IAAHPBG@Z
?Parse@ProvOpaqueType@@IAAHPBG@Z
?Parse@ProvPhysAddressType@@IAAHPBG@Z
?Parse@ProvPositiveRangedType@@IAAHPBG@Z
?Parse@ProvTimeTicksType@@IAAHPBG@Z
?Parse@ProvUDPAddressType@@IAAHPBG@Z
?PreProcess@QueryPreprocessor@@QAA?AW4QuadState@1@PAXPAUSQL_LEVEL_1_RPN_EXPRESSION@@AAPAVWmiTreeNode@@@Z
?PreProcess@QueryPreprocessor@@QAA?AW4QuadState@1@PAXPAUSQL_LEVEL_1_RPN_EXPRESSION@@PAVWmiTreeNode@@KPAPAGAAPAVPartitionSet@@@Z
?Prefix@ProvObjectIdentifier@@QBAHKAAV1@@Z
?Print@WmiAndNode@@UAAXXZ
?Print@WmiNotNode@@UAAXXZ
?Print@WmiNullNode@@UAAXXZ
?Print@WmiNullRangeNode@@UAAXXZ
?Print@WmiOperatorEqualNode@@UAAXXZ
?Print@WmiOperatorEqualOrGreaterNode@@UAAXXZ
?Print@WmiOperatorEqualOrLessNode@@UAAXXZ
?Print@WmiOperatorGreaterNode@@UAAXXZ
?Print@WmiOperatorIsANode@@UAAXXZ
?Print@WmiOperatorLessNode@@UAAXXZ
?Print@WmiOperatorLikeNode@@UAAXXZ
?Print@WmiOperatorNotEqualNode@@UAAXXZ
?Print@WmiOperatorNotIsANode@@UAAXXZ
?Print@WmiOperatorNotLikeNode@@UAAXXZ
?Print@WmiOrNode@@UAAXXZ
?Print@WmiSignedIntegerNode@@UAAXXZ
?Print@WmiSignedIntegerRangeNode@@UAAXXZ
?Print@WmiStringNode@@UAAXXZ
?Print@WmiStringRangeNode@@UAAXXZ
?Print@WmiTreeNode@@UAAXXZ
?Print@WmiUnsignedIntegerNode@@UAAXXZ
?Print@WmiUnsignedIntegerRangeNode@@UAAXXZ
?PrintTree@QueryPreprocessor@@IAAXPAVWmiTreeNode@@@Z
?Process@ProvEventObject@@UAAXXZ
?PushBack@ProvBitStringType@@AAAXXZ
?PushBack@ProvDateTimeType@@AAAXXZ
?PushBack@ProvEnumeratedType@@AAAXXZ
?PushBack@ProvPositiveRangedType@@IAAXXZ
?PutBack@ProvAnalyser@@QAAXPBVProvLexicon@@@Z
?Query@QueryPreprocessor@@QAA?AW4QuadState@1@PAGAAPAUSQL_LEVEL_1_RPN_EXPRESSION@@@Z
?QuickSort@QueryPreprocessor@@IAAXPAPAVWmiRangeNode@@PAKK@Z
?RangeDef@ProvPositiveRangedType@@IAAHXZ
?RecursiveConvertToRanges@QueryPreprocessor@@IAA?AW4WmiTriState@@AAPAVWmiTreeNode@@@Z
?RecursiveDef@ProvBitStringType@@AAAHXZ
?RecursiveDef@ProvEnumeratedType@@AAAHXZ
?RecursiveDef@ProvPositiveRangedType@@IAAHXZ
?RecursiveDisjunctiveNormalForm@QueryPreprocessor@@IAA?AW4QuadState@1@AAPAVWmiTreeNode@@@Z
?RecursiveEvaluate@QueryPreprocessor@@IAAHPAXAAUSQL_LEVEL_1_RPN_EXPRESSION@@PAVWmiTreeNode@@PAPAV3@AAH@Z
?RecursiveInsertNode@QueryPreprocessor@@IAA?AW4WmiTriState@@AAPAVWmiTreeNode@@0@Z
?RecursivePartitionSet@QueryPreprocessor@@IAA?AW4WmiTriState@@PAVDisjunctions@@AAPAVPartitionSet@@KPAKK@Z
?RecursiveQuickSort@QueryPreprocessor@@IAAXPAPAVWmiRangeNode@@PAKKK@Z
?RecursiveRemoveInvariants@QueryPreprocessor@@IAA?AW4QuadState@1@PAXAAPAVWmiTreeNode@@@Z
?RecursiveRemoveNonOverlappingRanges@QueryPreprocessor@@IAA?AW4QuadState@1@AAPAVWmiTreeNode@@0@Z
?RecursiveSort@QueryPreprocessor@@IAA?AW4WmiTriState@@AAPAVWmiTreeNode@@@Z
?RecursiveSortConditionals@QueryPreprocessor@@IAA?AW4WmiTriState@@AAPAVWmiTreeNode@@0@Z
?RemoveInvariants@QueryPreprocessor@@IAA?AW4QuadState@1@PAXAAPAVWmiTreeNode@@@Z
?RemoveNonOverlappingRanges@QueryPreprocessor@@IAA?AW4QuadState@1@AAPAVWmiTreeNode@@@Z
?RemoveOverlaps@QueryPreprocessor@@IAA?AW4WmiTriState@@PAKK00PAPAVWmiRangeNode@@@Z
?Replicate@ProvObjectIdentifier@@MBAPAKPBKK0K@Z
?Replicate@ProvObjectIdentifier@@MBAPAKPBKK@Z
?Replicate@ProvOctetString@@MAAPAEPBEK@Z
?Root@PartitionSet@@QAAHXZ
?Set@ProvAnalyser@@QAAXPBG@Z
?Set@ProvEventObject@@QAAXXZ
?SetData@WmiTreeNode@@QAAPAXPAX@Z
?SetIterator@WmiTreeNodeIterator@@QAAPAVWmiTreeNode@@PAV2@@Z
?SetKeyIndex@PartitionSet@@QAAXK@Z
?SetLeft@WmiTreeNode@@QAAPAV1@PAV1@@Z
?SetLowerBound@ProvNegativeRangeType@@QAAXABJ@Z
?SetLowerBound@ProvPositiveRangeType@@QAAXABK@Z
?SetNull@ProvInstanceType@@QAAXH@Z
?SetParent@WmiTreeNode@@QAAPAV1@PAV1@@Z
?SetPartition@PartitionSet@@QAAXKPAV1@@Z
?SetRange@Conjunctions@@QAAXKPAVWmiRangeNode@@@Z
?SetRange@PartitionSet@@QAAXPAVWmiRangeNode@@@Z
?SetRight@WmiTreeNode@@QAAPAV1@PAV1@@Z
?SetStatus@ProvInstanceType@@QAAXH@Z
?SetStatus@ProvPositiveRangedType@@QAAXABH@Z
?SetToken@ProvLexicon@@QAAXW4LexiconToken@1@@Z
?SetType@WmiTreeNode@@QAAXK@Z
?SetUpperBound@ProvNegativeRangeType@@QAAXABJ@Z
?SetUpperBound@ProvPositiveRangeType@@QAAXABK@Z
?SetValue@ProvCounter64@@QAAXKK@Z
?SetValue@ProvCounter@@QAAXK@Z
?SetValue@ProvGauge@@QAAXK@Z
?SetValue@ProvInteger@@QAAXJ@Z
?SetValue@ProvIpAddress@@QAAXK@Z
?SetValue@ProvObjectIdentifier@@QAAXPBKK@Z
?SetValue@ProvOctetString@@QAAXPBEK@Z
?SetValue@ProvOpaque@@QAAXPBEK@Z
?SetValue@ProvTimeTicks@@QAAXK@Z
?SetValue@ProvUInteger32@@QAAXK@Z
?Sort@QueryPreprocessor@@IAA?AW4WmiTriState@@AAPAVWmiTreeNode@@@Z
?SortConditionals@QueryPreprocessor@@IAA?AW4WmiTriState@@AAPAVWmiTreeNode@@@Z
?SortRanges@QueryPreprocessor@@IAAXKPAKPAPAVWmiRangeNode@@@Z
?Startup@ProvDebugLog@@SAHXZ
?Suffix@ProvObjectIdentifier@@QBAHKAAV1@@Z
?TransformAndOrExpression@QueryPreprocessor@@IAAXAAPAVWmiTreeNode@@PAV2@1@Z
?TransformAndTrueEvaluation@QueryPreprocessor@@IAAXAAPAVWmiTreeNode@@PAV2@@Z
?TransformIntersectingRange@QueryPreprocessor@@IAAXAAPAVWmiTreeNode@@PAV2@1@Z
?TransformNonIntersectingRange@QueryPreprocessor@@IAAXAAPAVWmiTreeNode@@PAV2@@Z
?TransformNotAndExpression@QueryPreprocessor@@IAAXAAPAVWmiTreeNode@@PAV2@@Z
?TransformNotEqualExpression@QueryPreprocessor@@IAAXAAPAVWmiTreeNode@@PAV2@@Z
?TransformNotNotExpression@QueryPreprocessor@@IAAXAAPAVWmiTreeNode@@PAV2@@Z
?TransformNotOperatorEqualExpression@QueryPreprocessor@@IAAXAAPAVWmiTreeNode@@PAV2@@Z
?TransformNotOperatorEqualOrGreaterExpression@QueryPreprocessor@@IAAXAAPAVWmiTreeNode@@PAV2@@Z
?TransformNotOperatorEqualOrLessExpression@QueryPreprocessor@@IAAXAAPAVWmiTreeNode@@PAV2@@Z
?TransformNotOperatorGreaterExpression@QueryPreprocessor@@IAAXAAPAVWmiTreeNode@@PAV2@@Z
?TransformNotOperatorIsAExpression@QueryPreprocessor@@IAAXAAPAVWmiTreeNode@@PAV2@@Z
?TransformNotOperatorLessExpression@QueryPreprocessor@@IAAXAAPAVWmiTreeNode@@PAV2@@Z
?TransformNotOperatorLikeExpression@QueryPreprocessor@@IAAXAAPAVWmiTreeNode@@PAV2@@Z
?TransformNotOperatorNotEqualExpression@QueryPreprocessor@@IAAXAAPAVWmiTreeNode@@PAV2@@Z
?TransformNotOperatorNotIsAExpression@QueryPreprocessor@@IAAXAAPAVWmiTreeNode@@PAV2@@Z
?TransformNotOperatorNotLikeExpression@QueryPreprocessor@@IAAXAAPAVWmiTreeNode@@PAV2@@Z
?TransformNotOrExpression@QueryPreprocessor@@IAAXAAPAVWmiTreeNode@@PAV2@@Z
?TransformOperatorToRange@QueryPreprocessor@@IAAXAAPAVWmiTreeNode@@@Z
?TransformOrFalseEvaluation@QueryPreprocessor@@IAAXAAPAVWmiTreeNode@@PAV2@@Z
?UnReplicate@ProvObjectIdentifier@@MAAXPAK@Z
?UnReplicate@ProvOctetString@@MAAXPAE@Z
?UnicodeStringAppend@@YAPAGPBG0@Z
?UnicodeStringDuplicate@@YAPAGPBG@Z
?UnicodeToDbcsString@@YAPADPBG@Z
?UpperBound@WmiSignedIntegerRangeNode@@QAAJXZ
?UpperBound@WmiStringRangeNode@@QAAPAGXZ
?UpperBound@WmiUnsignedIntegerRangeNode@@QAAKXZ
?Wait@ProvEventObject@@UAAHXZ
?Write@ProvDebugLog@@QAAXPBGZZ
?WriteA@ProvDebugLog@@QAAXPBDZZ
?WriteFileAndLine@ProvDebugLog@@QAAXPBDKPBGZZ
?WriteFileAndLine@ProvDebugLog@@QAAXPBGK0ZZ
?WriteFileAndLineA@ProvDebugLog@@QAAXPBDK0ZZ
?WriteFileAndLineW@ProvDebugLog@@QAAXPBGK0ZZ
?WriteW@ProvDebugLog@@QAAXPBGZZ
?s_ProvDebugLog@ProvDebugLog@@2PAV1@A DATA
?s_ReferenceCount@ProvDebugLog@@2JA DATA
?s_aLogs@ProvDebugLog@@2PAV1@A DATA
