;
; Definition file of SkyDriveTelemetry.dll
; Automatic generated by gendef
; written by Kai Tietz 2008-2014
;
LIBRARY "SkyDriveTelemetry.dll"
EXPORTS
??0ScenarioQosAutoUpdate@QoS@@QAA@ABV01@@Z
??0ScenarioQosAutoUpdate@QoS@@QAA@XZ
??0ScenarioQosChangeEnumeration@QoS@@QAA@ABV01@@Z
??0ScenarioQosChangeEnumeration@QoS@@QAA@XZ
??0ScenarioQosClientPolicy@QoS@@QAA@ABV01@@Z
??0ScenarioQosClientPolicy@QoS@@QAA@XZ
??0ScenarioQosConnectingToWns@QoS@@QAA@ABV01@@Z
??0ScenarioQosConnectingToWns@QoS@@QAA@XZ
??0ScenarioQosCreateJumpLink@QoS@@QAA@ABV01@@Z
??0ScenarioQosCreateJumpLink@QoS@@QAA@XZ
??0ScenarioQosCreateSubscription@QoS@@QAA@ABV01@@Z
??0ScenarioQosCreateSubscription@QoS@@QAA@XZ
??0ScenarioQosCreatingSubscription@QoS@@QAA@ABV01@@Z
??0ScenarioQosCreatingSubscription@QoS@@QAA@XZ
??0ScenarioQosDelegatedSyncWrapper@QoS@@IAA@W4_ScenarioId@Bici@@@Z
??0ScenarioQosDelegatedSyncWrapper@QoS@@QAA@ABV01@@Z
??0ScenarioQosDeleteSubscription@QoS@@QAA@ABV01@@Z
??0ScenarioQosDeleteSubscription@QoS@@QAA@XZ
??0ScenarioQosDeviceHeroShot@QoS@@QAA@ABV01@@Z
??0ScenarioQosDeviceHeroShot@QoS@@QAA@XZ
??0ScenarioQosDownloadChunk@QoS@@QAA@ABV01@@Z
??0ScenarioQosDownloadChunk@QoS@@QAA@XZ
??0ScenarioQosDownloadFile@QoS@@QAA@ABV01@@Z
??0ScenarioQosDownloadFile@QoS@@QAA@XZ
??0ScenarioQosGetThumbnail@QoS@@QAA@ABV01@@Z
??0ScenarioQosGetThumbnail@QoS@@QAA@XZ
??0ScenarioQosLoginFRE@QoS@@QAA@ABV01@@Z
??0ScenarioQosLoginFRE@QoS@@QAA@XZ
??0ScenarioQosLoginPartnerFirstRun@QoS@@QAA@ABV01@@Z
??0ScenarioQosLoginPartnerFirstRun@QoS@@QAA@XZ
??0ScenarioQosLoginSubsequent@QoS@@QAA@ABV01@@Z
??0ScenarioQosLoginSubsequent@QoS@@QAA@XZ
??0ScenarioQosPartnerDefault@QoS@@QAA@ABV01@@Z
??0ScenarioQosPartnerDefault@QoS@@QAA@XZ
??0ScenarioQosPartnerDelete@QoS@@QAA@ABV01@@Z
??0ScenarioQosPartnerDelete@QoS@@QAA@XZ
??0ScenarioQosPartnerDownload@QoS@@QAA@ABV01@@Z
??0ScenarioQosPartnerDownload@QoS@@QAA@XZ
??0ScenarioQosPartnerLookup@QoS@@QAA@ABV01@@Z
??0ScenarioQosPartnerLookup@QoS@@QAA@XZ
??0ScenarioQosPartnerReload@QoS@@QAA@ABV01@@Z
??0ScenarioQosPartnerReload@QoS@@QAA@XZ
??0ScenarioQosPartnerRename@QoS@@QAA@ABV01@@Z
??0ScenarioQosPartnerRename@QoS@@QAA@XZ
??0ScenarioQosPartnerReset@QoS@@QAA@ABV01@@Z
??0ScenarioQosPartnerReset@QoS@@QAA@XZ
??0ScenarioQosPartnerStart@QoS@@QAA@ABV01@@Z
??0ScenarioQosPartnerStart@QoS@@QAA@XZ
??0ScenarioQosPartnerStop@QoS@@QAA@ABV01@@Z
??0ScenarioQosPartnerStop@QoS@@QAA@XZ
??0ScenarioQosPartnerUpload@QoS@@QAA@ABV01@@Z
??0ScenarioQosPartnerUpload@QoS@@QAA@XZ
??0ScenarioQosPlatWrapper@QoS@@IAA@W4_ScenarioId@Bici@@@Z
??0ScenarioQosPlatWrapper@QoS@@QAA@ABV01@@Z
??0ScenarioQosPollingChangeEnumeration@QoS@@QAA@ABV01@@Z
??0ScenarioQosPollingChangeEnumeration@QoS@@QAA@XZ
??0ScenarioQosPostLogs@QoS@@QAA@ABV01@@Z
??0ScenarioQosPostLogs@QoS@@QAA@XZ
??0ScenarioQosPostTransactionReport@QoS@@QAA@ABV01@@Z
??0ScenarioQosPostTransactionReport@QoS@@QAA@XZ
??0ScenarioQosProviderWrapper@QoS@@IAA@W4_ScenarioId@Bici@@@Z
??0ScenarioQosProviderWrapper@QoS@@QAA@ABV01@@Z
??0ScenarioQosQuotaStatus@QoS@@QAA@ABV01@@Z
??0ScenarioQosQuotaStatus@QoS@@QAA@XZ
??0ScenarioQosRemoteAccessWrapper@QoS@@QAA@ABV01@@Z
??0ScenarioQosRemoteAccessWrapper@QoS@@QAA@IPBG@Z
??0ScenarioQosSelectiveSyncEnumeration@QoS@@QAA@ABV01@@Z
??0ScenarioQosSelectiveSyncEnumeration@QoS@@QAA@XZ
??0ScenarioQosStartup@QoS@@QAA@ABV01@@Z
??0ScenarioQosStartup@QoS@@QAA@XZ
??0ScenarioQosStartupChangeEnumeration@QoS@@QAA@ABV01@@Z
??0ScenarioQosStartupChangeEnumeration@QoS@@QAA@XZ
??0ScenarioQosStorageProvisioning@QoS@@QAA@ABV01@@Z
??0ScenarioQosStorageProvisioning@QoS@@QAA@XZ
??0ScenarioQosSyncVerification@QoS@@QAA@ABV01@@Z
??0ScenarioQosSyncVerification@QoS@@QAA@XZ
??0ScenarioQosSyncWrapper@QoS@@IAA@W4_ScenarioId@Bici@@@Z
??0ScenarioQosSyncWrapper@QoS@@QAA@ABV01@@Z
??0ScenarioQosSystrayInteraction@QoS@@QAA@ABV01@@Z
??0ScenarioQosSystrayInteraction@QoS@@QAA@XZ
??0ScenarioQosTargetedQuery@QoS@@QAA@ABV01@@Z
??0ScenarioQosTargetedQuery@QoS@@QAA@XZ
??0ScenarioQosTelemetryWrapper@QoS@@IAA@W4_ScenarioId@Bici@@@Z
??0ScenarioQosTelemetryWrapper@QoS@@QAA@ABV01@@Z
??0ScenarioQosUXWrapper@QoS@@IAA@W4_ScenarioId@Bici@@@Z
??0ScenarioQosUXWrapper@QoS@@QAA@ABV01@@Z
??0ScenarioQosUploadExternalFile@QoS@@QAA@ABV01@@Z
??0ScenarioQosUploadExternalFile@QoS@@QAA@XZ
??0ScenarioQosUploadFile@QoS@@QAA@ABV01@@Z
??0ScenarioQosUploadFile@QoS@@QAA@XZ
??0ScenarioQosUploadMetadata@QoS@@QAA@ABV01@@Z
??0ScenarioQosUploadMetadata@QoS@@QAA@XZ
??0ScenarioQosUserRequestedChangeEnumeration@QoS@@QAA@ABV01@@Z
??0ScenarioQosUserRequestedChangeEnumeration@QoS@@QAA@XZ
??0ScenarioQosWNSNotificationChangeEnumeration@QoS@@QAA@ABV01@@Z
??0ScenarioQosWNSNotificationChangeEnumeration@QoS@@QAA@XZ
??0ScenarioQosWrapper@QoS@@IAA@IPBG@Z
??0ScenarioQosWrapper@QoS@@IAA@W4_ScenarioId@Bici@@@Z
??0ScenarioQosWrapper@QoS@@IAA@W4_ScenarioId@Bici@@_N@Z
??0ScenarioQosWrapper@QoS@@QAA@ABV01@@Z
??1ScenarioQosAutoUpdate@QoS@@UAA@XZ
??1ScenarioQosChangeEnumeration@QoS@@UAA@XZ
??1ScenarioQosClientPolicy@QoS@@UAA@XZ
??1ScenarioQosConnectingToWns@QoS@@UAA@XZ
??1ScenarioQosCreateJumpLink@QoS@@UAA@XZ
??1ScenarioQosCreateSubscription@QoS@@UAA@XZ
??1ScenarioQosCreatingSubscription@QoS@@UAA@XZ
??1ScenarioQosDelegatedSyncWrapper@QoS@@UAA@XZ
??1ScenarioQosDeleteSubscription@QoS@@UAA@XZ
??1ScenarioQosDeviceHeroShot@QoS@@UAA@XZ
??1ScenarioQosDownloadChunk@QoS@@UAA@XZ
??1ScenarioQosDownloadFile@QoS@@UAA@XZ
??1ScenarioQosGetThumbnail@QoS@@UAA@XZ
??1ScenarioQosLoginFRE@QoS@@UAA@XZ
??1ScenarioQosLoginPartnerFirstRun@QoS@@UAA@XZ
??1ScenarioQosLoginSubsequent@QoS@@UAA@XZ
??1ScenarioQosPartnerDefault@QoS@@UAA@XZ
??1ScenarioQosPartnerDelete@QoS@@UAA@XZ
??1ScenarioQosPartnerDownload@QoS@@UAA@XZ
??1ScenarioQosPartnerLookup@QoS@@UAA@XZ
??1ScenarioQosPartnerReload@QoS@@UAA@XZ
??1ScenarioQosPartnerRename@QoS@@UAA@XZ
??1ScenarioQosPartnerReset@QoS@@UAA@XZ
??1ScenarioQosPartnerStart@QoS@@UAA@XZ
??1ScenarioQosPartnerStop@QoS@@UAA@XZ
??1ScenarioQosPartnerUpload@QoS@@UAA@XZ
??1ScenarioQosPlatWrapper@QoS@@UAA@XZ
??1ScenarioQosPollingChangeEnumeration@QoS@@UAA@XZ
??1ScenarioQosPostLogs@QoS@@UAA@XZ
??1ScenarioQosPostTransactionReport@QoS@@UAA@XZ
??1ScenarioQosProviderWrapper@QoS@@UAA@XZ
??1ScenarioQosQuotaStatus@QoS@@UAA@XZ
??1ScenarioQosRemoteAccessWrapper@QoS@@UAA@XZ
??1ScenarioQosSelectiveSyncEnumeration@QoS@@UAA@XZ
??1ScenarioQosStartup@QoS@@UAA@XZ
??1ScenarioQosStartupChangeEnumeration@QoS@@UAA@XZ
??1ScenarioQosStorageProvisioning@QoS@@UAA@XZ
??1ScenarioQosSyncVerification@QoS@@UAA@XZ
??1ScenarioQosSyncWrapper@QoS@@UAA@XZ
??1ScenarioQosSystrayInteraction@QoS@@UAA@XZ
??1ScenarioQosTargetedQuery@QoS@@UAA@XZ
??1ScenarioQosTelemetryWrapper@QoS@@UAA@XZ
??1ScenarioQosUXWrapper@QoS@@UAA@XZ
??1ScenarioQosUploadExternalFile@QoS@@UAA@XZ
??1ScenarioQosUploadFile@QoS@@UAA@XZ
??1ScenarioQosUploadMetadata@QoS@@UAA@XZ
??1ScenarioQosUserRequestedChangeEnumeration@QoS@@UAA@XZ
??1ScenarioQosWNSNotificationChangeEnumeration@QoS@@UAA@XZ
??1ScenarioQosWrapper@QoS@@MAA@XZ
??4PlaceholderQosRecorder@@QAAAAV0@ABV0@@Z
??4ScenarioQosAutoUpdate@QoS@@QAAAAV01@ABV01@@Z
??4ScenarioQosChangeEnumeration@QoS@@QAAAAV01@ABV01@@Z
??4ScenarioQosClientPolicy@QoS@@QAAAAV01@ABV01@@Z
??4ScenarioQosConnectingToWns@QoS@@QAAAAV01@ABV01@@Z
??4ScenarioQosCreateJumpLink@QoS@@QAAAAV01@ABV01@@Z
??4ScenarioQosCreateSubscription@QoS@@QAAAAV01@ABV01@@Z
??4ScenarioQosCreatingSubscription@QoS@@QAAAAV01@ABV01@@Z
??4ScenarioQosDelegatedSyncWrapper@QoS@@QAAAAV01@ABV01@@Z
??4ScenarioQosDeleteSubscription@QoS@@QAAAAV01@ABV01@@Z
??4ScenarioQosDeviceHeroShot@QoS@@QAAAAV01@ABV01@@Z
??4ScenarioQosDownloadChunk@QoS@@QAAAAV01@ABV01@@Z
??4ScenarioQosDownloadFile@QoS@@QAAAAV01@ABV01@@Z
??4ScenarioQosGetThumbnail@QoS@@QAAAAV01@ABV01@@Z
??4ScenarioQosLoginFRE@QoS@@QAAAAV01@ABV01@@Z
??4ScenarioQosLoginPartnerFirstRun@QoS@@QAAAAV01@ABV01@@Z
??4ScenarioQosLoginSubsequent@QoS@@QAAAAV01@ABV01@@Z
??4ScenarioQosPartnerDefault@QoS@@QAAAAV01@ABV01@@Z
??4ScenarioQosPartnerDelete@QoS@@QAAAAV01@ABV01@@Z
??4ScenarioQosPartnerDownload@QoS@@QAAAAV01@ABV01@@Z
??4ScenarioQosPartnerLookup@QoS@@QAAAAV01@ABV01@@Z
??4ScenarioQosPartnerReload@QoS@@QAAAAV01@ABV01@@Z
??4ScenarioQosPartnerRename@QoS@@QAAAAV01@ABV01@@Z
??4ScenarioQosPartnerReset@QoS@@QAAAAV01@ABV01@@Z
??4ScenarioQosPartnerStart@QoS@@QAAAAV01@ABV01@@Z
??4ScenarioQosPartnerStop@QoS@@QAAAAV01@ABV01@@Z
??4ScenarioQosPartnerUpload@QoS@@QAAAAV01@ABV01@@Z
??4ScenarioQosPlatWrapper@QoS@@QAAAAV01@ABV01@@Z
??4ScenarioQosPollingChangeEnumeration@QoS@@QAAAAV01@ABV01@@Z
??4ScenarioQosPostLogs@QoS@@QAAAAV01@ABV01@@Z
??4ScenarioQosPostTransactionReport@QoS@@QAAAAV01@ABV01@@Z
??4ScenarioQosProviderWrapper@QoS@@QAAAAV01@ABV01@@Z
??4ScenarioQosQuotaStatus@QoS@@QAAAAV01@ABV01@@Z
??4ScenarioQosRemoteAccessWrapper@QoS@@QAAAAV01@ABV01@@Z
??4ScenarioQosSelectiveSyncEnumeration@QoS@@QAAAAV01@ABV01@@Z
??4ScenarioQosStartup@QoS@@QAAAAV01@ABV01@@Z
??4ScenarioQosStartupChangeEnumeration@QoS@@QAAAAV01@ABV01@@Z
??4ScenarioQosStorageProvisioning@QoS@@QAAAAV01@ABV01@@Z
??4ScenarioQosSyncVerification@QoS@@QAAAAV01@ABV01@@Z
??4ScenarioQosSyncWrapper@QoS@@QAAAAV01@ABV01@@Z
??4ScenarioQosSystrayInteraction@QoS@@QAAAAV01@ABV01@@Z
??4ScenarioQosTargetedQuery@QoS@@QAAAAV01@ABV01@@Z
??4ScenarioQosTelemetryWrapper@QoS@@QAAAAV01@ABV01@@Z
??4ScenarioQosUXWrapper@QoS@@QAAAAV01@ABV01@@Z
??4ScenarioQosUploadExternalFile@QoS@@QAAAAV01@ABV01@@Z
??4ScenarioQosUploadFile@QoS@@QAAAAV01@ABV01@@Z
??4ScenarioQosUploadMetadata@QoS@@QAAAAV01@ABV01@@Z
??4ScenarioQosUserRequestedChangeEnumeration@QoS@@QAAAAV01@ABV01@@Z
??4ScenarioQosWNSNotificationChangeEnumeration@QoS@@QAAAAV01@ABV01@@Z
??4ScenarioQosWrapper@QoS@@QAAAAV01@ABV01@@Z
??_7ScenarioQosAutoUpdate@QoS@@6B@ DATA
??_7ScenarioQosChangeEnumeration@QoS@@6B@ DATA
??_7ScenarioQosClientPolicy@QoS@@6B@ DATA
??_7ScenarioQosConnectingToWns@QoS@@6B@ DATA
??_7ScenarioQosCreateJumpLink@QoS@@6B@ DATA
??_7ScenarioQosCreateSubscription@QoS@@6B@ DATA
??_7ScenarioQosCreatingSubscription@QoS@@6B@ DATA
??_7ScenarioQosDelegatedSyncWrapper@QoS@@6B@ DATA
??_7ScenarioQosDeleteSubscription@QoS@@6B@ DATA
??_7ScenarioQosDeviceHeroShot@QoS@@6B@ DATA
??_7ScenarioQosDownloadChunk@QoS@@6B@ DATA
??_7ScenarioQosDownloadFile@QoS@@6B@ DATA
??_7ScenarioQosGetThumbnail@QoS@@6B@ DATA
??_7ScenarioQosLoginFRE@QoS@@6B@ DATA
??_7ScenarioQosLoginPartnerFirstRun@QoS@@6B@ DATA
??_7ScenarioQosLoginSubsequent@QoS@@6B@ DATA
??_7ScenarioQosPartnerDefault@QoS@@6B@ DATA
??_7ScenarioQosPartnerDelete@QoS@@6B@ DATA
??_7ScenarioQosPartnerDownload@QoS@@6B@ DATA
??_7ScenarioQosPartnerLookup@QoS@@6B@ DATA
??_7ScenarioQosPartnerReload@QoS@@6B@ DATA
??_7ScenarioQosPartnerRename@QoS@@6B@ DATA
??_7ScenarioQosPartnerReset@QoS@@6B@ DATA
??_7ScenarioQosPartnerStart@QoS@@6B@ DATA
??_7ScenarioQosPartnerStop@QoS@@6B@ DATA
??_7ScenarioQosPartnerUpload@QoS@@6B@ DATA
??_7ScenarioQosPlatWrapper@QoS@@6B@ DATA
??_7ScenarioQosPollingChangeEnumeration@QoS@@6B@ DATA
??_7ScenarioQosPostLogs@QoS@@6B@ DATA
??_7ScenarioQosPostTransactionReport@QoS@@6B@ DATA
??_7ScenarioQosProviderWrapper@QoS@@6B@ DATA
??_7ScenarioQosQuotaStatus@QoS@@6B@ DATA
??_7ScenarioQosRemoteAccessWrapper@QoS@@6B@ DATA
??_7ScenarioQosSelectiveSyncEnumeration@QoS@@6B@ DATA
??_7ScenarioQosStartup@QoS@@6B@ DATA
??_7ScenarioQosStartupChangeEnumeration@QoS@@6B@ DATA
??_7ScenarioQosStorageProvisioning@QoS@@6B@ DATA
??_7ScenarioQosSyncVerification@QoS@@6B@ DATA
??_7ScenarioQosSyncWrapper@QoS@@6B@ DATA
??_7ScenarioQosSystrayInteraction@QoS@@6B@ DATA
??_7ScenarioQosTargetedQuery@QoS@@6B@ DATA
??_7ScenarioQosTelemetryWrapper@QoS@@6B@ DATA
??_7ScenarioQosUXWrapper@QoS@@6B@ DATA
??_7ScenarioQosUploadExternalFile@QoS@@6B@ DATA
??_7ScenarioQosUploadFile@QoS@@6B@ DATA
??_7ScenarioQosUploadMetadata@QoS@@6B@ DATA
??_7ScenarioQosUserRequestedChangeEnumeration@QoS@@6B@ DATA
??_7ScenarioQosWNSNotificationChangeEnumeration@QoS@@6B@ DATA
??_7ScenarioQosWrapper@QoS@@6B@ DATA
?AcceptableResponseCode@ScenarioQosDelegatedSyncWrapper@QoS@@QAA_NJ@Z
?AddDwordToDatapointValueList@QoS@@YAJPAXK@Z
?AddStringToDatapointValueList@QoS@@YAJPAXABV?$basic_string@GU?$char_traits@G@std@@V?$allocator@G@2@@std@@@Z
?AddToStream@QoS@@YAJKPAX@Z
?AllowedDeleteFileResult@ScenarioQosDelegatedSyncWrapper@QoS@@QAA_NJ@Z
?AllowedGetChangesResult@ScenarioQosDelegatedSyncWrapper@QoS@@QAA_NJ@Z
?AllowedGetFileStatusResult@ScenarioQosDelegatedSyncWrapper@QoS@@QAA_NJ@Z
?AllowedGetSupportedFileExtensionsResult@ScenarioQosDelegatedSyncWrapper@QoS@@QAA_NJ@Z
?AllowedInitializeResult@ScenarioQosDelegatedSyncWrapper@QoS@@QAA_NJ@Z
?AllowedLocalFileChangeResult@ScenarioQosDelegatedSyncWrapper@QoS@@QAA_NJ@Z
?AllowedRenameFileResult@ScenarioQosDelegatedSyncWrapper@QoS@@QAA_NJ@Z
?AllowedResetCacheResult@ScenarioQosDelegatedSyncWrapper@QoS@@QAA_NJ@Z
?AllowedServerFileChangeResult@ScenarioQosDelegatedSyncWrapper@QoS@@QAA_NJ@Z
?AllowedSetClientConnectivityStateResult@ScenarioQosDelegatedSyncWrapper@QoS@@QAA_NJ@Z
?AllowedUninitializeResult@ScenarioQosDelegatedSyncWrapper@QoS@@QAA_NJ@Z
?CheckRecordedErrorType@ScenarioQosWrapper@QoS@@AAAXW4_ErrorType@Bici@@@Z
?CreateDatapointValueList@QoS@@YAJPAPAX@Z
?DefaultOrMostSevereErrorTypeRecorded@ScenarioQosWrapper@QoS@@QAA?AW4_ErrorType@Bici@@W434@@Z
?DestroyDatapointValueList@QoS@@YAJPAX@Z
?DetermineReportingCode@ScenarioQosDelegatedSyncWrapper@QoS@@QAA_NJ@Z
?GetApiId@ScenarioQosWrapper@QoS@@IAA?AW4_ApiId@Bici@@XZ
?GetBiciTelemetryStartedEvent@QoS@@YAPAXXZ
?GetEventProviderGuid@QoS@@YAPBU_GUID@@XZ
?GetInstance@Telemetry@@CAPAV1@XZ
?GetLastSherlockTransactionReportUploadTime@QoS@@YA_JXZ
?GetMostSevereErrorTypeRecorded@ScenarioQosWrapper@QoS@@QAA?AW4_ErrorType@Bici@@XZ
?GetScenarioErrorCode@ScenarioQosSyncVerification@QoS@@QAAIXZ
?GetTxnContextString@ScenarioQosWrapper@QoS@@UAA?AV?$basic_string@GU?$char_traits@G@std@@V?$allocator@G@2@@std@@XZ
?IncrementDatapoint@QoS@@YAJKK@Z
?Initialize@ScenarioQosWrapper@QoS@@IAAXXZ
?InitializeWithTxnContext@ScenarioQosWrapper@QoS@@IAAXIPBG@Z
?IsMsftInternal@QoS@@YA_NXZ
?IsRPCError@ScenarioQosDelegatedSyncWrapper@QoS@@QAA_NJ@Z
?IsSherlockUserConsented@QoS@@YA_NXZ
?OnUserDataAvailable@QoS@@YAXXZ
?RecordApi@ScenarioQosDelegatedSyncWrapper@QoS@@QAAXJABV?$basic_string@GU?$char_traits@G@std@@V?$allocator@G@2@@std@@@Z
?RecordApi@ScenarioQosPlatWrapper@QoS@@QAAXJW4_ErrorType@Bici@@@Z
?RecordApi@ScenarioQosProviderWrapper@QoS@@QAAXHW4_ErrorType@Bici@@@Z
?RecordApi@ScenarioQosSyncWrapper@QoS@@QAAXJIABV?$basic_string@GU?$char_traits@G@std@@V?$allocator@G@2@@std@@@Z
?RecordApi@ScenarioQosSyncWrapper@QoS@@QAAXJIABV?$basic_string@GU?$char_traits@G@std@@V?$allocator@G@2@@std@@ABV?$set@IU?$less@I@std@@V?$allocator@I@2@@4@@Z
?RecordApi@ScenarioQosTelemetryWrapper@QoS@@QAAXJ@Z
?RecordApi@ScenarioQosTelemetryWrapper@QoS@@QAAXJI@Z
?RecordApi@ScenarioQosUXWrapper@QoS@@QAAXJ@Z
?RecordApi@ScenarioQosUXWrapper@QoS@@QAAXJI@Z
?RecordApi@ScenarioQosWrapper@QoS@@IAAXHW4_ErrorType@Bici@@IPAVDatapointValueList@4@@Z
?RecordApi@ScenarioQosWrapper@QoS@@IAAXHW4_ErrorType@Bici@@PAVDatapointValueList@4@@Z
?RecordApiWithDescription@ScenarioQosPlatWrapper@QoS@@QAAXJABV?$basic_string@GU?$char_traits@G@std@@V?$allocator@G@2@@std@@@Z
?RecordApiWithSize@ScenarioQosSyncWrapper@QoS@@QAAXJIABV?$basic_string@GU?$char_traits@G@std@@V?$allocator@G@2@@std@@@Z
?RecordApiWithSize@ScenarioQosSyncWrapper@QoS@@QAAXJIIABV?$basic_string@GU?$char_traits@G@std@@V?$allocator@G@2@@std@@@Z
?RecordApiWithSize@ScenarioQosSyncWrapper@QoS@@QAAXJIIABV?$basic_string@GU?$char_traits@G@std@@V?$allocator@G@2@@std@@ABV?$set@IU?$less@I@std@@V?$allocator@I@2@@4@@Z
?RecordConnectingToWnsApi@ScenarioQosConnectingToWns@QoS@@QAAXJIII@Z
?RecordDependentApiQos@ScenarioQosWrapper@QoS@@AAAXPAVTransactionContext@Bici@@HW4_ErrorType@4@_KIPAVDatapointValueList@4@@Z
?RecordFailedAssert@QoS@@YAXABV?$basic_string@DU?$char_traits@D@std@@V?$allocator@D@2@@std@@00I0_N@Z
?RecordFailedAssert@QoS@@YAXABV?$basic_string@GU?$char_traits@G@std@@V?$allocator@G@2@@std@@00I0_N@Z
?RecordInternalApiQos@ScenarioQosWrapper@QoS@@AAAXPAVTransactionContext@Bici@@HW4_ErrorType@4@_KIPAVDatapointValueList@4@@Z
?RecordScenario@ScenarioQosDelegatedSyncWrapper@QoS@@UAAXHW4_ErrorType@Bici@@@Z
?RecordScenario@ScenarioQosPlatWrapper@QoS@@UAAXHW4_ErrorType@Bici@@@Z
?RecordScenario@ScenarioQosProviderWrapper@QoS@@QAAXHW4_ErrorType@Bici@@@Z
?RecordScenario@ScenarioQosSyncWrapper@QoS@@UAAXHW4_ErrorType@Bici@@@Z
?RecordScenario@ScenarioQosSyncWrapper@QoS@@UAAXHW4_ErrorType@Bici@@IABV?$basic_string@GU?$char_traits@G@std@@V?$allocator@G@2@@std@@@Z
?RecordScenario@ScenarioQosTelemetryWrapper@QoS@@UAAXHW4_ErrorType@Bici@@@Z
?RecordScenario@ScenarioQosUXWrapper@QoS@@UAAXHW4_ErrorType@Bici@@@Z
?RecordScenario@ScenarioQosWrapper@QoS@@IAAXHW4_ErrorType@Bici@@IPAVDatapointValueList@4@@Z
?RecordScenario@ScenarioQosWrapper@QoS@@IAAXHW4_ErrorType@Bici@@PAVDatapointValueList@4@@Z
?RecordScenarioQos@ScenarioQosWrapper@QoS@@AAAXPAVTransactionContext@Bici@@HW4_ErrorType@4@_KIPAVDatapointValueList@4@@Z
?RecordScenarioWithSize@ScenarioQosSyncWrapper@QoS@@UAAXHW4_ErrorType@Bici@@I@Z
?RecordScenarioWithSize@ScenarioQosTelemetryWrapper@QoS@@UAAXHW4_ErrorType@Bici@@I@Z
?RecordShellQosResults@PlaceholderQosRecorder@@SAJUPlaceholderQosResult@@KPBU2@@Z
?SetANID@QoS@@YAXABV?$basic_string@GU?$char_traits@G@std@@V?$allocator@G@2@@std@@@Z
?SetCID@QoS@@YAXABV?$basic_string@GU?$char_traits@G@std@@V?$allocator@G@2@@std@@@Z
?SetDatapoint@QoS@@YAJKK@Z
?SetLastSherlockLogUploadTime@QoS@@YAX_J@Z
?SetLastSherlockTransactionReportUploadTime@QoS@@YAX_J@Z
?SetLiveIdConnectionSettings@QoS@@YAXABV?$basic_string@GU?$char_traits@G@std@@V?$allocator@G@2@@std@@0@Z
?SetQosEnabled@QoS@@YAX_N@Z
?SetScenarioErrorCode@ScenarioQosSyncVerification@QoS@@QAAXI@Z
?SetSherlockEnabled@QoS@@YAX_NABV?$basic_string@GU?$char_traits@G@std@@V?$allocator@G@2@@std@@1PAVISkyDrivePrincipal@@@Z
?SetSherlockThrottles@QoS@@YAX_J0@Z
?SetUploadEnabled@QoS@@YAX_N@Z
?SetUserBetaState@QoS@@YAX_N@Z
?SetUserId@QoS@@YAXABV?$basic_string@GU?$char_traits@G@std@@V?$allocator@G@2@@std@@@Z
?Start@QoS@@YAXABV?$basic_string@GU?$char_traits@G@std@@V?$allocator@G@2@@std@@@Z
?StartAndRecordCheckMismatches@ScenarioQosSyncVerification@QoS@@QAAXJK@Z
?StartAndRecordCheckPartnerMismatches@ScenarioQosSyncVerification@QoS@@QAAXJK@Z
?StartAndRecordCheckPlaceholderMismatches@ScenarioQosSyncVerification@QoS@@QAAXJK@Z
?StartAndRecordCheckProgress@ScenarioQosSyncVerification@QoS@@QAAXJK@Z
?StartAndRecordCheckPropertyMismatches@ScenarioQosSyncVerification@QoS@@QAAXJK@Z
?StartAndRecordDependentApi@ScenarioQosWrapper@QoS@@IAAXW4_ApiId@Bici@@W4_PropertyId@4@HW4_ErrorType@4@HIPAVDatapointValueList@4@@Z
?StartAndRecordDispatchRuntimeThreads@ScenarioQosStartup@QoS@@QAAXJABV?$basic_string@GU?$char_traits@G@std@@V?$allocator@G@2@@std@@@Z
?StartAndRecordInitGlobalClientState@ScenarioQosStartup@QoS@@QAAXJABV?$basic_string@GU?$char_traits@G@std@@V?$allocator@G@2@@std@@@Z
?StartAndRecordInitSyncEngineCore@ScenarioQosStartup@QoS@@QAAXJABV?$basic_string@GU?$char_traits@G@std@@V?$allocator@G@2@@std@@@Z
?StartAndRecordInitializeSyncController@ScenarioQosStartup@QoS@@QAAXJABV?$basic_string@GU?$char_traits@G@std@@V?$allocator@G@2@@std@@@Z
?StartAndRecordInternalApi@ScenarioQosWrapper@QoS@@IAAXW4_ApiId@Bici@@HW4_ErrorType@4@HIPAVDatapointValueList@4@@Z
?StartAndRecordSetUpSyncRoot@ScenarioQosStartup@QoS@@QAAXJABV?$basic_string@GU?$char_traits@G@std@@V?$allocator@G@2@@std@@@Z
?StartAndRecordShowHideSkyDriveShellItems@ScenarioQosStartup@QoS@@QAAXJABV?$basic_string@GU?$char_traits@G@std@@V?$allocator@G@2@@std@@@Z
?StartAndRecordWorkerPoolStart@ScenarioQosStartup@QoS@@QAAXJABV?$basic_string@GU?$char_traits@G@std@@V?$allocator@G@2@@std@@@Z
?StartApi@ScenarioQosUXWrapper@QoS@@QAAXW4_ApiId@Bici@@@Z
?StartBitsCloseSession@ScenarioQosSyncWrapper@QoS@@QAAXXZ
?StartBitsCreateSession@ScenarioQosSyncWrapper@QoS@@QAAXXZ
?StartBitsFragment@ScenarioQosSyncWrapper@QoS@@QAAXXZ
?StartCompressLogs@ScenarioQosPostLogs@QoS@@QAAXXZ
?StartCreateJumpLink@ScenarioQosSyncWrapper@QoS@@QAAXXZ
?StartCreateNotificationSubscription@ScenarioQosSyncWrapper@QoS@@QAAXXZ
?StartCreateWnsChannel@ScenarioQosPlatWrapper@QoS@@QAAXXZ
?StartDeleteFile@ScenarioQosDelegatedSyncWrapper@QoS@@QAAXXZ
?StartDeleteNotificationSubscription@ScenarioQosSyncWrapper@QoS@@QAAXXZ
?StartDependentApi@ScenarioQosWrapper@QoS@@IAAXW4_ApiId@Bici@@W4_PropertyId@4@@Z
?StartDownloadBlock@ScenarioQosSyncWrapper@QoS@@QAAXXZ
?StartEnumChanges@ScenarioQosSyncWrapper@QoS@@QAAXXZ
?StartGenerateResponseStream@ScenarioQosProviderWrapper@QoS@@QAAXW4_ApiId@Bici@@@Z
?StartGetAlbumMetadata@ScenarioQosProviderWrapper@QoS@@QAAXXZ
?StartGetChanges@ScenarioQosDelegatedSyncWrapper@QoS@@QAAXXZ
?StartGetClientPolicy@ScenarioQosSyncWrapper@QoS@@QAAXXZ
?StartGetDeviceHeroShot@ScenarioQosProviderWrapper@QoS@@QAAXXZ
?StartGetFileMetadata@ScenarioQosSyncWrapper@QoS@@QAAXXZ
?StartGetFileStatus@ScenarioQosDelegatedSyncWrapper@QoS@@QAAXXZ
?StartGetLiveFolder@ScenarioQosSyncWrapper@QoS@@QAAXXZ
?StartGetQuotaInformation@ScenarioQosSyncWrapper@QoS@@QAAXXZ
?StartGetSupportedFileExtensions@ScenarioQosDelegatedSyncWrapper@QoS@@QAAXXZ
?StartInitialize@ScenarioQosDelegatedSyncWrapper@QoS@@QAAXXZ
?StartInternalApi@ScenarioQosWrapper@QoS@@IAAXW4_ApiId@Bici@@@Z
?StartLocalFileChange@ScenarioQosDelegatedSyncWrapper@QoS@@QAAXXZ
?StartParseTransactionReportResponse@ScenarioQosPostTransactionReport@QoS@@QAAXXZ
?StartPostLogs@ScenarioQosPostLogs@QoS@@QAAXXZ
?StartPostSubscriptionToStorage@ScenarioQosPlatWrapper@QoS@@QAAXXZ
?StartPostTransactionReport@ScenarioQosPostTransactionReport@QoS@@QAAXXZ
?StartProviderInitialGet@ScenarioQosRemoteAccessWrapper@QoS@@QAAXXZ
?StartProvisionLiveFolder@ScenarioQosSyncWrapper@QoS@@QAAXXZ
?StartRenameFile@ScenarioQosDelegatedSyncWrapper@QoS@@QAAXXZ
?StartResetCache@ScenarioQosDelegatedSyncWrapper@QoS@@QAAXXZ
?StartSelectiveSyncEnumeration@ScenarioQosSyncWrapper@QoS@@QAAXXZ
?StartServerFileChange@ScenarioQosDelegatedSyncWrapper@QoS@@QAAXXZ
?StartSetClientConnectivityState@ScenarioQosDelegatedSyncWrapper@QoS@@QAAXXZ
?StartUninitialize@ScenarioQosDelegatedSyncWrapper@QoS@@QAAXXZ
?StartUploadBatch@ScenarioQosSyncWrapper@QoS@@QAAXXZ
?StartUploadResults@ScenarioQosProviderWrapper@QoS@@QAAXW4_ApiId@Bici@@@Z
?StartUploadSyncDiagnostic@ScenarioQosSyncWrapper@QoS@@QAAXXZ
?Stop@QoS@@YAXXZ
?StopProviderInitialGet@ScenarioQosRemoteAccessWrapper@QoS@@QAAXJI@Z
?UploadToSherlock@QoS@@YAJABV?$basic_string@GU?$char_traits@G@std@@V?$allocator@G@2@@std@@JABV?$map@V?$basic_string@GU?$char_traits@G@std@@V?$allocator@G@2@@std@@V12@U?$less@V?$basic_string@GU?$char_traits@G@std@@V?$allocator@G@2@@std@@@2@V?$allocator@U?$pair@$$CBV?$basic_string@GU?$char_traits@G@std@@V?$allocator@G@2@@std@@V12@@std@@@2@@3@@Z
?UploadToSherlockEx@QoS@@YAJABV?$basic_string@GU?$char_traits@G@std@@V?$allocator@G@2@@std@@ABV?$basic_string@DU?$char_traits@D@std@@V?$allocator@D@2@@3@@Z
?_RecordDataPoints@PlaceholderQosRecorder@@CAJW4_ScenarioId@Bici@@W4_ApiId@3@PBVTransactionContext@3@J@Z
