;
; Definition file of SPWIZENG.DLL
; Automatic generated by gendef
; written by Kai Tietz 2008-2014
;
LIBRARY "SPWIZENG.DLL"
EXPORTS
??0?$CSimpleArray@PAGV?$CSimpleArrayEqualHelper@PAG@ATL@@@ATL@@QAA@ABV01@@Z
??0?$CSimpleArray@PAGV?$CSimpleArrayEqualHelper@PAG@ATL@@@ATL@@QAA@XZ
??0?$CSimpleArray@PAUIResourceModuleEvent@@V?$CSimpleArrayEqualHelper@PAUIResourceModuleEvent@@@ATL@@@ATL@@QAA@ABV01@@Z
??0?$CSimpleArray@PAUIResourceModuleEvent@@V?$CSimpleArrayEqualHelper@PAUIResourceModuleEvent@@@ATL@@@ATL@@QAA@XZ
??0?$CSimpleArray@PAUKEYBOARD@@V?$CSimpleArrayEqualHelper@PAUKEYBOARD@@@ATL@@@ATL@@QAA@ABV01@@Z
??0?$CSimpleArray@PAUKEYBOARD@@V?$CSimpleArrayEqualHelper@PAUKEYBOARD@@@ATL@@@ATL@@QAA@XZ
??0?$CSimpleArray@PAULANGUAGE@@V?$CSimpleArrayEqualHelper@PAULANGUAGE@@@ATL@@@ATL@@QAA@ABV01@@Z
??0?$CSimpleArray@PAULANGUAGE@@V?$CSimpleArrayEqualHelper@PAULANGUAGE@@@ATL@@@ATL@@QAA@XZ
??0?$CSimpleArray@PAULOCALE@@V?$CSimpleArrayEqualHelper@PAULOCALE@@@ATL@@@ATL@@QAA@ABV01@@Z
??0?$CSimpleArray@PAULOCALE@@V?$CSimpleArrayEqualHelper@PAULOCALE@@@ATL@@@ATL@@QAA@XZ
??0?$CSimpleStringT@G$0A@@ATL@@QAA@ABV01@@Z
??0?$CSimpleStringT@G$0A@@ATL@@QAA@ABV?$CSimpleStringT@G$00@1@@Z
??0?$CSimpleStringT@G$0A@@ATL@@QAA@PAUIAtlStringMgr@1@@Z
??0?$CSimpleStringT@G$0A@@ATL@@QAA@PBGHPAUIAtlStringMgr@1@@Z
??0?$CSimpleStringT@G$0A@@ATL@@QAA@PBGPAUIAtlStringMgr@1@@Z
??0?$CStringT@GV?$StrTraitATL@GV?$ChTraitsCRT@G@ATL@@@ATL@@@ATL@@QAA@ABUtagVARIANT@@@Z
??0?$CStringT@GV?$StrTraitATL@GV?$ChTraitsCRT@G@ATL@@@ATL@@@ATL@@QAA@ABUtagVARIANT@@PAUIAtlStringMgr@1@@Z
??0?$CStringT@GV?$StrTraitATL@GV?$ChTraitsCRT@G@ATL@@@ATL@@@ATL@@QAA@ABV01@@Z
??0?$CStringT@GV?$StrTraitATL@GV?$ChTraitsCRT@G@ATL@@@ATL@@@ATL@@QAA@DH@Z
??0?$CStringT@GV?$StrTraitATL@GV?$ChTraitsCRT@G@ATL@@@ATL@@@ATL@@QAA@GH@Z
??0?$CStringT@GV?$StrTraitATL@GV?$ChTraitsCRT@G@ATL@@@ATL@@@ATL@@QAA@PAUIAtlStringMgr@1@@Z
??0?$CStringT@GV?$StrTraitATL@GV?$ChTraitsCRT@G@ATL@@@ATL@@@ATL@@QAA@PBD@Z
??0?$CStringT@GV?$StrTraitATL@GV?$ChTraitsCRT@G@ATL@@@ATL@@@ATL@@QAA@PBDH@Z
??0?$CStringT@GV?$StrTraitATL@GV?$ChTraitsCRT@G@ATL@@@ATL@@@ATL@@QAA@PBDHPAUIAtlStringMgr@1@@Z
??0?$CStringT@GV?$StrTraitATL@GV?$ChTraitsCRT@G@ATL@@@ATL@@@ATL@@QAA@PBDPAUIAtlStringMgr@1@@Z
??0?$CStringT@GV?$StrTraitATL@GV?$ChTraitsCRT@G@ATL@@@ATL@@@ATL@@QAA@PBE@Z
??0?$CStringT@GV?$StrTraitATL@GV?$ChTraitsCRT@G@ATL@@@ATL@@@ATL@@QAA@PBEPAUIAtlStringMgr@1@@Z
??0?$CStringT@GV?$StrTraitATL@GV?$ChTraitsCRT@G@ATL@@@ATL@@@ATL@@QAA@PBG@Z
??0?$CStringT@GV?$StrTraitATL@GV?$ChTraitsCRT@G@ATL@@@ATL@@@ATL@@QAA@PBGH@Z
??0?$CStringT@GV?$StrTraitATL@GV?$ChTraitsCRT@G@ATL@@@ATL@@@ATL@@QAA@PBGHPAUIAtlStringMgr@1@@Z
??0?$CStringT@GV?$StrTraitATL@GV?$ChTraitsCRT@G@ATL@@@ATL@@@ATL@@QAA@PBGPAUIAtlStringMgr@1@@Z
??0?$CStringT@GV?$StrTraitATL@GV?$ChTraitsCRT@G@ATL@@@ATL@@@ATL@@QAA@XZ
??0AppWindow@@QAA@ABV0@@Z
??0AppWindow@@QAA@PAVWizardUI@@I@Z
??0BranchWizStrategy@@QAA@ABV0@@Z
??0BranchWizStrategy@@QAA@PAVWizardEx@@@Z
??0CAnimation@@QAA@ABV0@@Z
??0CAnimation@@QAA@XZ
??0CAnimationControl@@QAA@ABV0@@Z
??0CAnimationControl@@QAA@XZ
??0CAttachDataDlg@@QAA@ABV0@@Z
??0CAttachDataDlg@@QAA@PAUHINSTANCE__@@0@Z
??0CCritSec@@QAA@ABV0@@Z
??0CCritSec@@QAA@XZ
??0CCtlText@@QAA@ABV0@@Z
??0CCtlText@@QAA@XZ
??0CCursor@@AAA@XZ
??0CCursor@@QAA@ABV0@@Z
??0CCustomButtonEx@@AAA@XZ
??0CCustomButtonEx@@QAA@ABV0@@Z
??0CCustomGraphicEx@@QAA@ABV0@@Z
??0CCustomGraphicEx@@QAA@XZ
??0CDIB@@QAA@XZ
??0CDrawBackground@@QAA@ABV0@@Z
??0CDrawBackground@@QAA@XZ
??0CDrawItem@@QAA@ABV0@@Z
??0CDrawItem@@QAA@XZ
??0CDrawItemComposite@@QAA@ABV0@@Z
??0CDrawItemComposite@@QAA@XZ
??0CGenericNavWindow@@QAA@ABV0@@Z
??0CGenericNavWindow@@QAA@PAVAppWindow@@@Z
??0CHighContrast@@AAA@XZ
??0CHighContrast@@QAA@ABV0@@Z
??0CResourceModule@@QAA@ABV0@@Z
??0CResourceModule@@QAA@PAUHINSTANCE__@@@Z
??0CResourceModule@@QAA@PAUHINSTANCE__@@PBG@Z
??0CResourceModule@@QAA@PBG@Z
??0CRichEditControl@@QAA@XZ
??0CScreenDIB@@QAA@ABV0@@Z
??0CScreenDIB@@QAA@XZ
??0CScreenText@@QAA@ABV0@@Z
??0CScreenText@@QAA@XZ
??0CWndObj@@QAA@ABV0@@Z
??0CWndObj@@QAA@XZ
??0ChoiceWizStrategy@@QAA@ABV0@@Z
??0ChoiceWizStrategy@@QAA@PAVWizardEx@@@Z
??0ICreateNavbarWnd@@QAA@ABV0@@Z
??0ICreateNavbarWnd@@QAA@XZ
??0ICreateProgressWnd@@QAA@ABV0@@Z
??0ICreateProgressWnd@@QAA@XZ
??0IResourceModuleEvent@@QAA@ABU0@@Z
??0IResourceModuleEvent@@QAA@XZ
??0LanguageNeutralSelectionDialogBase@@QAA@ABV0@@Z
??0LanguageNeutralSelectionDialogBase@@QAA@XZ
??0LanguageSelectionDialogBase@@QAA@ABV0@@Z
??0LanguageSelectionDialogBase@@QAA@XZ
??0MyString@@QAA@XZ
??0NavWindow@@QAA@ABV0@@Z
??0NavWindow@@QAA@PAVAppWindow@@@Z
??0NavigationStack@@QAA@ABV0@@Z
??0NavigationStack@@QAA@XZ
??0Navigator@@AAA@XZ
??0Navigator@@QAA@ABV0@@Z
??0PIDStringView@@QAA@ABV0@@Z
??0PIDStringView@@QAA@XZ
??0PageContainer@@QAA@ABV0@@Z
??0PageContainer@@QAA@XZ
??0ProtoPageDimensions@@QAA@USimpleRect@@USimpleSize@@HH11MM@Z
??0ProtoPageDimensions@@QAA@XZ
??0ProtoPageList@@QAA@ABV0@@Z
??0ProtoPageList@@QAA@PAVWizardDesciption@@KKKHPAVICreateProgressWnd@@HPAUtagSIZE@@PAVICreateNavbarWnd@@UProtoPageDimensions@@KKH@Z
??0ProtoPageList@@QAA@XZ
??0ScrWindow@@QAA@ABV0@@Z
??0ScrWindow@@QAA@PAVWizardUI@@I@Z
??0SimpleDialogBase@@QAA@ABV0@@Z
??0SimpleDialogBase@@QAA@XZ
??0SimpleRect@@QAA@HHHH@Z
??0SimpleRect@@QAA@XZ
??0SimpleSize@@QAA@HH@Z
??0SimpleSize@@QAA@XZ
??0SimpleWizStrategy@@QAA@ABV0@@Z
??0SimpleWizStrategy@@QAA@PAVWizardEx@@@Z
??0SummaryWizStrategy@@QAA@ABV0@@Z
??0SummaryWizStrategy@@QAA@PAVWizardEx@@@Z
??0VariationWizStrategy@@QAA@ABV0@@Z
??0VariationWizStrategy@@QAA@PAVWizardEx@@ABV?$CSimpleMap@HHV?$CSimpleMapEqualHelper@HH@ATL@@@ATL@@H@Z
??0Win32Navigator@@AAA@XZ
??0Win32Navigator@@QAA@ABV0@@Z
??0Wiz_Node@@QAA@ABV0@@Z
??0Wiz_Node@@QAA@I@Z
??0WizardBranch@@QAA@ABV0@@Z
??0WizardBranch@@QAA@IPAPAVWiz_Node@@@Z
??0WizardCollection@@QAA@ABV0@@Z
??0WizardCollection@@QAA@IIPAPAVWiz_Node@@@Z
??0WizardDesciption@@QAA@ABV0@@Z
??0WizardDesciption@@QAA@IPAPAVWiz_Node@@@Z
??0WizardDialogPost@@QAA@ABV0@@Z
??0WizardDialogPost@@QAA@XZ
??0WizardDialogPre@@QAA@ABV0@@Z
??0WizardDialogPre@@QAA@XZ
??0WizardEx@@QAA@ABV0@@Z
??0WizardEx@@QAA@XZ
??0WizardHandler@@QAA@ABV0@@Z
??0WizardHandler@@QAA@XZ
??0WizardNode@@QAA@ABV0@@Z
??0WizardNode@@QAA@IIPAVWizardEx@@PAVWizardUI@@@Z
??0WizardNode@@QAA@XZ
??0WizardPage@@QAA@ABV0@@Z
??0WizardPage@@QAA@IIPAVWizardEx@@PAVWizardUI@@@Z
??0WizardRoot@@QAA@ABV0@@Z
??0WizardRoot@@QAA@XZ
??0WizardStrategy@@QAA@ABV0@@Z
??0WizardStrategy@@QAA@PAVWizardEx@@@Z
??0WizardSummary@@QAA@ABV0@@Z
??0WizardSummary@@QAA@IPAPAVWiz_Node@@@Z
??0WizardUI@@QAA@XZ
??0WizardVariation@@QAA@ABV0@@Z
??0WizardVariation@@QAA@IPAPAVWiz_Node@@ABV?$CSimpleMap@HHV?$CSimpleMapEqualHelper@HH@ATL@@@ATL@@PBG@Z
??0Wizard_PageDesciption@@QAA@ABV0@@Z
??0Wizard_PageDesciption@@QAA@KPBG0KP6APAVWizardRoot@@PAVWizardPage@@@ZK@Z
??1?$CSimpleArray@PAGV?$CSimpleArrayEqualHelper@PAG@ATL@@@ATL@@QAA@XZ
??1?$CSimpleArray@PAUIResourceModuleEvent@@V?$CSimpleArrayEqualHelper@PAUIResourceModuleEvent@@@ATL@@@ATL@@QAA@XZ
??1?$CSimpleArray@PAUKEYBOARD@@V?$CSimpleArrayEqualHelper@PAUKEYBOARD@@@ATL@@@ATL@@QAA@XZ
??1?$CSimpleArray@PAULANGUAGE@@V?$CSimpleArrayEqualHelper@PAULANGUAGE@@@ATL@@@ATL@@QAA@XZ
??1?$CSimpleArray@PAULOCALE@@V?$CSimpleArrayEqualHelper@PAULOCALE@@@ATL@@@ATL@@QAA@XZ
??1?$CSimpleStringT@G$0A@@ATL@@QAA@XZ
??1?$CStringT@GV?$StrTraitATL@GV?$ChTraitsCRT@G@ATL@@@ATL@@@ATL@@QAA@XZ
??1AppWindow@@UAA@XZ
??1BranchWizStrategy@@UAA@XZ
??1CAnimation@@UAA@XZ
??1CAnimationControl@@UAA@XZ
??1CAttachDataDlg@@QAA@XZ
??1CCritSec@@UAA@XZ
??1CCtlText@@UAA@XZ
??1CCursor@@EAA@XZ
??1CCustomButtonEx@@EAA@XZ
??1CCustomGraphicEx@@UAA@XZ
??1CDIB@@QAA@XZ
??1CDrawBackground@@UAA@XZ
??1CDrawItem@@UAA@XZ
??1CDrawItemComposite@@UAA@XZ
??1CGenericNavWindow@@UAA@XZ
??1CHighContrast@@EAA@XZ
??1CResourceModule@@QAA@XZ
??1CScreenDIB@@UAA@XZ
??1CScreenText@@UAA@XZ
??1CWndObj@@UAA@XZ
??1ChoiceWizStrategy@@UAA@XZ
??1ICreateNavbarWnd@@UAA@XZ
??1ICreateProgressWnd@@UAA@XZ
??1LanguageNeutralSelectionDialogBase@@QAA@XZ
??1LanguageSelectionDialogBase@@QAA@XZ
??1NavWindow@@UAA@XZ
??1NavigationStack@@UAA@XZ
??1Navigator@@EAA@XZ
??1PIDStringView@@UAA@XZ
??1PageContainer@@UAA@XZ
??1ScrWindow@@UAA@XZ
??1SimpleWizStrategy@@UAA@XZ
??1SummaryWizStrategy@@UAA@XZ
??1VariationWizStrategy@@UAA@XZ
??1Win32Navigator@@EAA@XZ
??1Wiz_Node@@UAA@XZ
??1WizardBranch@@UAA@XZ
??1WizardCollection@@UAA@XZ
??1WizardDesciption@@UAA@XZ
??1WizardEx@@UAA@XZ
??1WizardNode@@UAA@XZ
??1WizardPage@@UAA@XZ
??1WizardRoot@@UAA@XZ
??1WizardStrategy@@UAA@XZ
??1WizardSummary@@UAA@XZ
??1WizardUI@@QAA@XZ
??1WizardVariation@@UAA@XZ
??1Wizard_PageDesciption@@UAA@XZ
??4?$CSimpleArray@PAGV?$CSimpleArrayEqualHelper@PAG@ATL@@@ATL@@QAAAAV01@ABV01@@Z
??4?$CSimpleArray@PAUIResourceModuleEvent@@V?$CSimpleArrayEqualHelper@PAUIResourceModuleEvent@@@ATL@@@ATL@@QAAAAV01@ABV01@@Z
??4?$CSimpleArray@PAUKEYBOARD@@V?$CSimpleArrayEqualHelper@PAUKEYBOARD@@@ATL@@@ATL@@QAAAAV01@ABV01@@Z
??4?$CSimpleArray@PAULANGUAGE@@V?$CSimpleArrayEqualHelper@PAULANGUAGE@@@ATL@@@ATL@@QAAAAV01@ABV01@@Z
??4?$CSimpleArray@PAULOCALE@@V?$CSimpleArrayEqualHelper@PAULOCALE@@@ATL@@@ATL@@QAAAAV01@ABV01@@Z
??4?$CSimpleStringT@G$0A@@ATL@@QAAAAV01@ABV01@@Z
??4?$CSimpleStringT@G$0A@@ATL@@QAAAAV01@ABV?$CSimpleStringT@G$00@1@@Z
??4?$CSimpleStringT@G$0A@@ATL@@QAAAAV01@PBG@Z
??4?$CStringT@GV?$StrTraitATL@GV?$ChTraitsCRT@G@ATL@@@ATL@@@ATL@@QAAAAV01@ABUtagVARIANT@@@Z
??4?$CStringT@GV?$StrTraitATL@GV?$ChTraitsCRT@G@ATL@@@ATL@@@ATL@@QAAAAV01@ABV01@@Z
??4?$CStringT@GV?$StrTraitATL@GV?$ChTraitsCRT@G@ATL@@@ATL@@@ATL@@QAAAAV01@D@Z
??4?$CStringT@GV?$StrTraitATL@GV?$ChTraitsCRT@G@ATL@@@ATL@@@ATL@@QAAAAV01@G@Z
??4?$CStringT@GV?$StrTraitATL@GV?$ChTraitsCRT@G@ATL@@@ATL@@@ATL@@QAAAAV01@PBD@Z
??4?$CStringT@GV?$StrTraitATL@GV?$ChTraitsCRT@G@ATL@@@ATL@@@ATL@@QAAAAV01@PBE@Z
??4?$CStringT@GV?$StrTraitATL@GV?$ChTraitsCRT@G@ATL@@@ATL@@@ATL@@QAAAAV01@PBG@Z
??4AppWindow@@QAAAAV0@ABV0@@Z
??4BranchWizStrategy@@QAAAAV0@ABV0@@Z
??4CAnimation@@QAAAAV0@ABV0@@Z
??4CAnimationControl@@QAAAAV0@ABV0@@Z
??4CAttachDataDlg@@QAAAAV0@ABV0@@Z
??4CCritSec@@QAAAAV0@ABV0@@Z
??4CCtlText@@QAAAAV0@ABV0@@Z
??4CCursor@@QAAAAV0@ABV0@@Z
??4CCustomButtonEx@@QAAAAV0@ABV0@@Z
??4CCustomGraphicEx@@QAAAAV0@ABV0@@Z
??4CDIB@@QAAAAV0@ABV0@@Z
??4CDrawBackground@@QAAAAV0@ABV0@@Z
??4CDrawItem@@QAAAAV0@ABV0@@Z
??4CDrawItemComposite@@QAAAAV0@ABV0@@Z
??4CGenericNavWindow@@QAAAAV0@ABV0@@Z
??4CHighContrast@@QAAAAV0@ABV0@@Z
??4CResourceModule@@QAAAAV0@ABV0@@Z
??4CResourceModuleFactory@@QAAAAV0@ABV0@@Z
??4CRichEditControl@@QAAAAV0@ABV0@@Z
??4CScreenDIB@@QAAAAV0@ABV0@@Z
??4CScreenText@@QAAAAV0@ABV0@@Z
??4CWndObj@@QAAAAV0@ABV0@@Z
??4ChoiceWizStrategy@@QAAAAV0@ABV0@@Z
??4ICreateNavbarWnd@@QAAAAV0@ABV0@@Z
??4ICreateProgressWnd@@QAAAAV0@ABV0@@Z
??4IResourceModuleEvent@@QAAAAU0@ABU0@@Z
??4LanguageNeutralSelectionDialogBase@@QAAAAV0@ABV0@@Z
??4LanguageSelectionDialogBase@@QAAAAV0@ABV0@@Z
??4MyString@@QAAAAV0@ABV0@@Z
??4NavWindow@@QAAAAV0@ABV0@@Z
??4NavigationStack@@QAAAAV0@ABV0@@Z
??4Navigator@@QAAAAV0@ABV0@@Z
??4PIDStringView@@QAAAAV0@ABV0@@Z
??4PageContainer@@QAAAAV0@ABV0@@Z
??4PageDef@@QAAAAU0@ABU0@@Z
??4ProgressCreateStruct@@QAAAAU0@ABU0@@Z
??4ProtoPageDimensions@@QAAAAU0@ABU0@@Z
??4ProtoPageList@@QAAAAV0@ABV0@@Z
??4ScrWindow@@QAAAAV0@ABV0@@Z
??4SimpleDialogBase@@QAAAAV0@ABV0@@Z
??4SimpleRect@@QAAAAU0@ABU0@@Z
??4SimpleSize@@QAAAAU0@ABU0@@Z
??4SimpleWizStrategy@@QAAAAV0@ABV0@@Z
??4SummaryWizStrategy@@QAAAAV0@ABV0@@Z
??4Win32Navigator@@QAAAAV0@ABV0@@Z
??4Wiz_Node@@QAAAAV0@ABV0@@Z
??4WizardBranch@@QAAAAV0@ABV0@@Z
??4WizardCollection@@QAAAAV0@ABV0@@Z
??4WizardDesciption@@QAAAAV0@ABV0@@Z
??4WizardDialogPost@@QAAAAV0@ABV0@@Z
??4WizardDialogPre@@QAAAAV0@ABV0@@Z
??4WizardEx@@QAAAAV0@ABV0@@Z
??4WizardHandler@@QAAAAV0@ABV0@@Z
??4WizardNode@@QAAAAV0@ABV0@@Z
??4WizardPage@@QAAAAV0@ABV0@@Z
??4WizardRoot@@QAAAAV0@ABV0@@Z
??4WizardStrategy@@QAAAAV0@ABV0@@Z
??4WizardSummary@@QAAAAV0@ABV0@@Z
??4WizardUI@@QAAAAV0@ABV0@@Z
??4Wizard_PageDesciption@@QAAAAV0@ABV0@@Z
??A?$CSimpleArray@PAGV?$CSimpleArrayEqualHelper@PAG@ATL@@@ATL@@QAAAAPAGH@Z
??A?$CSimpleArray@PAGV?$CSimpleArrayEqualHelper@PAG@ATL@@@ATL@@QBAABQAGH@Z
??A?$CSimpleArray@PAUIResourceModuleEvent@@V?$CSimpleArrayEqualHelper@PAUIResourceModuleEvent@@@ATL@@@ATL@@QAAAAPAUIResourceModuleEvent@@H@Z
??A?$CSimpleArray@PAUIResourceModuleEvent@@V?$CSimpleArrayEqualHelper@PAUIResourceModuleEvent@@@ATL@@@ATL@@QBAABQAUIResourceModuleEvent@@H@Z
??A?$CSimpleArray@PAUKEYBOARD@@V?$CSimpleArrayEqualHelper@PAUKEYBOARD@@@ATL@@@ATL@@QAAAAPAUKEYBOARD@@H@Z
??A?$CSimpleArray@PAUKEYBOARD@@V?$CSimpleArrayEqualHelper@PAUKEYBOARD@@@ATL@@@ATL@@QBAABQAUKEYBOARD@@H@Z
??A?$CSimpleArray@PAULANGUAGE@@V?$CSimpleArrayEqualHelper@PAULANGUAGE@@@ATL@@@ATL@@QAAAAPAULANGUAGE@@H@Z
??A?$CSimpleArray@PAULANGUAGE@@V?$CSimpleArrayEqualHelper@PAULANGUAGE@@@ATL@@@ATL@@QBAABQAULANGUAGE@@H@Z
??A?$CSimpleArray@PAULOCALE@@V?$CSimpleArrayEqualHelper@PAULOCALE@@@ATL@@@ATL@@QAAAAPAULOCALE@@H@Z
??A?$CSimpleArray@PAULOCALE@@V?$CSimpleArrayEqualHelper@PAULOCALE@@@ATL@@@ATL@@QBAABQAULOCALE@@H@Z
??A?$CSimpleStringT@G$0A@@ATL@@QBAGH@Z
??B?$CSimpleStringT@G$0A@@ATL@@QAAAAV?$CSimpleStringT@G$00@1@XZ
??B?$CSimpleStringT@G$0A@@ATL@@QBAPBGXZ
??B?$CStringT@GV?$StrTraitATL@GV?$ChTraitsCRT@G@ATL@@@ATL@@@ATL@@QAAAAV?$CSimpleStringT@G$00@1@XZ
??Y?$CSimpleStringT@G$0A@@ATL@@QAAAAV01@ABV01@@Z
??Y?$CSimpleStringT@G$0A@@ATL@@QAAAAV01@D@Z
??Y?$CSimpleStringT@G$0A@@ATL@@QAAAAV01@E@Z
??Y?$CSimpleStringT@G$0A@@ATL@@QAAAAV01@G@Z
??Y?$CSimpleStringT@G$0A@@ATL@@QAAAAV01@PBG@Z
??Y?$CStringT@GV?$StrTraitATL@GV?$ChTraitsCRT@G@ATL@@@ATL@@@ATL@@QAAAAV01@ABUtagVARIANT@@@Z
??Y?$CStringT@GV?$StrTraitATL@GV?$ChTraitsCRT@G@ATL@@@ATL@@@ATL@@QAAAAV01@ABV?$CSimpleStringT@G$0A@@1@@Z
??Y?$CStringT@GV?$StrTraitATL@GV?$ChTraitsCRT@G@ATL@@@ATL@@@ATL@@QAAAAV01@D@Z
??Y?$CStringT@GV?$StrTraitATL@GV?$ChTraitsCRT@G@ATL@@@ATL@@@ATL@@QAAAAV01@E@Z
??Y?$CStringT@GV?$StrTraitATL@GV?$ChTraitsCRT@G@ATL@@@ATL@@@ATL@@QAAAAV01@G@Z
??Y?$CStringT@GV?$StrTraitATL@GV?$ChTraitsCRT@G@ATL@@@ATL@@@ATL@@QAAAAV01@PBD@Z
??Y?$CStringT@GV?$StrTraitATL@GV?$ChTraitsCRT@G@ATL@@@ATL@@@ATL@@QAAAAV01@PBG@Z
??_7AppWindow@@6BIWndObj@@@ DATA
??_7AppWindow@@6BIWndProp@@@ DATA
??_7BranchWizStrategy@@6B@ DATA
??_7CAnimation@@6B@ DATA
??_7CAnimationControl@@6B@ DATA
??_7CAttachDataDlg@@6B@ DATA
??_7CCritSec@@6B@ DATA
??_7CCtlText@@6B@ DATA
??_7CCursor@@6B@ DATA
??_7CCustomButtonEx@@6B@ DATA
??_7CCustomGraphicEx@@6B@ DATA
??_7CDrawBackground@@6B@ DATA
??_7CDrawItem@@6B@ DATA
??_7CDrawItemComposite@@6B@ DATA
??_7CGenericNavWindow@@6B@ DATA
??_7CHighContrast@@6B@ DATA
??_7CScreenDIB@@6B@ DATA
??_7CScreenText@@6B@ DATA
??_7CWndObj@@6BIWndObj@@@ DATA
??_7CWndObj@@6BIWndProp@@@ DATA
??_7ChoiceWizStrategy@@6B@ DATA
??_7ICreateNavbarWnd@@6B@ DATA
??_7ICreateProgressWnd@@6B@ DATA
??_7IResourceModuleEvent@@6B@ DATA
??_7LanguageNeutralSelectionDialogBase@@6B@ DATA
??_7LanguageSelectionDialogBase@@6B@ DATA
??_7NavWindow@@6B@ DATA
??_7NavigationStack@@6B@ DATA
??_7Navigator@@6B@ DATA
??_7PIDStringView@@6B@ DATA
??_7PageContainer@@6B@ DATA
??_7ScrWindow@@6BIWndObj@@@ DATA
??_7ScrWindow@@6BIWndProp@@@ DATA
??_7SimpleDialogBase@@6B@ DATA
??_7SimpleWizStrategy@@6B@ DATA
??_7SummaryWizStrategy@@6B@ DATA
??_7VariationWizStrategy@@6B@ DATA
??_7Win32Navigator@@6B@ DATA
??_7Wiz_Node@@6B@ DATA
??_7WizardBranch@@6B@ DATA
??_7WizardCollection@@6B@ DATA
??_7WizardDesciption@@6B@ DATA
??_7WizardDialogPost@@6B@ DATA
??_7WizardDialogPre@@6B@ DATA
??_7WizardEx@@6BINavigationNode@@@ DATA
??_7WizardEx@@6BWizardNode@@@ DATA
??_7WizardHandler@@6B@ DATA
??_7WizardNode@@6B@ DATA
??_7WizardPage@@6B@ DATA
??_7WizardRoot@@6B@ DATA
??_7WizardStrategy@@6B@ DATA
??_7WizardSummary@@6B@ DATA
??_7WizardVariation@@6B@ DATA
??_7Wizard_PageDesciption@@6B@ DATA
?Add@?$CSimpleArray@PAGV?$CSimpleArrayEqualHelper@PAG@ATL@@@ATL@@QAAHABQAG@Z
?Add@?$CSimpleArray@PAUIResourceModuleEvent@@V?$CSimpleArrayEqualHelper@PAUIResourceModuleEvent@@@ATL@@@ATL@@QAAHABQAUIResourceModuleEvent@@@Z
?Add@?$CSimpleArray@PAUKEYBOARD@@V?$CSimpleArrayEqualHelper@PAUKEYBOARD@@@ATL@@@ATL@@QAAHABQAUKEYBOARD@@@Z
?Add@?$CSimpleArray@PAULANGUAGE@@V?$CSimpleArrayEqualHelper@PAULANGUAGE@@@ATL@@@ATL@@QAAHABQAULANGUAGE@@@Z
?Add@?$CSimpleArray@PAULOCALE@@V?$CSimpleArrayEqualHelper@PAULOCALE@@@ATL@@@ATL@@QAAHABQAULOCALE@@@Z
?AddItem@CDrawItemComposite@@QAAXPAVCDrawItem@@@Z
?AddPage@PageContainer@@QAAXPAVWizardPage@@@Z
?AddPage@WizardUI@@QAAHPAVWizardPage@@@Z
?AddRef@CWndObj@@UAAKXZ
?AllocSysString@?$CStringT@GV?$StrTraitATL@GV?$ChTraitsCRT@G@ATL@@@ATL@@@ATL@@QBAPAGXZ
?Append@?$CSimpleStringT@G$0A@@ATL@@QAAXABV12@@Z
?Append@?$CSimpleStringT@G$0A@@ATL@@QAAXPBG@Z
?Append@?$CSimpleStringT@G$0A@@ATL@@QAAXPBGH@Z
?AppendChar@?$CSimpleStringT@G$0A@@ATL@@QAAXG@Z
?AppendFormat@?$CStringT@GV?$StrTraitATL@GV?$ChTraitsCRT@G@ATL@@@ATL@@@ATL@@QAAXIZZ
?AppendFormat@?$CStringT@GV?$StrTraitATL@GV?$ChTraitsCRT@G@ATL@@@ATL@@@ATL@@QAAXPBGZZ
?AppendFormatV@?$CStringT@GV?$StrTraitATL@GV?$ChTraitsCRT@G@ATL@@@ATL@@@ATL@@QAAXPBGPAD@Z
?Attach@?$CSimpleStringT@G$0A@@ATL@@AAAXPAUCStringData@2@@Z
?Back@Navigator@@UAAPAVWizardPage@@PAVWizardNode@@@Z
?Back@WizardEx@@UAAPAVWizardPage@@PAVWizardNode@@@Z
?BlendNormal32@CDIB@@CAXPAV1@0@Z
?ButtonContinue@WizardHandler@@QAAPAVCCustomButtonEx@@XZ
?ButtonContinue@WizardRoot@@QAAAAPAVCCustomButtonEx@@XZ
?ButtonFinish@WizardHandler@@QAAPAVCCustomButtonEx@@XZ
?ButtonFinish@WizardRoot@@QAAAAPAVCCustomButtonEx@@XZ
?CStringExpandEnvironmentStrings@@YA?AV?$CStringT@GV?$StrTraitATL@GV?$ChTraitsCRT@G@ATL@@@ATL@@@ATL@@V12@@Z
?CStringGetModuleFileName@@YA?AV?$CStringT@GV?$StrTraitATL@GV?$ChTraitsCRT@G@ATL@@@ATL@@@ATL@@PAUHINSTANCE__@@@Z
?CStringGetPrivateProfileString@@YA?AV?$CStringT@GV?$StrTraitATL@GV?$ChTraitsCRT@G@ATL@@@ATL@@@ATL@@PBG000@Z
?CStringGetWindowText@@YA?AV?$CStringT@GV?$StrTraitATL@GV?$ChTraitsCRT@G@ATL@@@ATL@@@ATL@@PAUHWND__@@@Z
?CStringGetWindowsDirectory@@YA?AV?$CStringT@GV?$StrTraitATL@GV?$ChTraitsCRT@G@ATL@@@ATL@@@ATL@@XZ
?CalcAppSize@WizardUI@@AAAXXZ
?CanPageBeActivated@LanguageNeutralSelectionDialogBase@@UAAHW4Direction@@PAH@Z
?CanPageBeActivated@LanguageSelectionDialogBase@@UAAHW4Direction@@PAH@Z
?CanPageBeActivated@WizardHandler@@EAAHW4Direction@@PAH@Z
?CanPageBeActivated@WizardRoot@@UAAHW4Direction@@PAH@Z
?CanPageBeActivatedWrapper@WizardHandler@@QAAHW4Direction@@PAH@Z
?Cancel@Navigator@@UAAPAVWizardPage@@XZ
?CenterApp@WizardUI@@AAAXPAUHWND__@@UtagRECT@@@Z
?CenterRelativeToWindow@@YAHPAUHWND__@@0I@Z
?ChangeUiLanguage@CResourceModule@@SAHPBG@Z
?CharToOemA@?$CStringT@GV?$StrTraitATL@GV?$ChTraitsCRT@G@ATL@@@ATL@@@ATL@@QAAXXZ
?CheckImplicitLoad@?$CStringT@GV?$StrTraitATL@GV?$ChTraitsCRT@G@ATL@@@ATL@@@ATL@@AAA_NPBX@Z
?ClearCursorWait@CCursor@@QAAXXZ
?ClearString@MyString@@QAAXXZ
?ClearString@PIDStringView@@QAAXXZ
?CloneData@?$CSimpleStringT@G$0A@@ATL@@CAPAUCStringData@2@PAU32@@Z
?Collate@?$CStringT@GV?$StrTraitATL@GV?$ChTraitsCRT@G@ATL@@@ATL@@@ATL@@QBAHPBG@Z
?CollateNoCase@?$CStringT@GV?$StrTraitATL@GV?$ChTraitsCRT@G@ATL@@@ATL@@@ATL@@QBAHPBG@Z
?CommandHandled@WizardRoot@@QAAAAHXZ
?Compare@?$CStringT@GV?$StrTraitATL@GV?$ChTraitsCRT@G@ATL@@@ATL@@@ATL@@QBAHPBG@Z
?CompareNoCase@?$CStringT@GV?$StrTraitATL@GV?$ChTraitsCRT@G@ATL@@@ATL@@@ATL@@QBAHPBG@Z
?ComposeOffscreen@CDrawItem@@UAAXPAUHWND__@@@Z
?ComposeOffscreen@CDrawItemComposite@@UAAXPAUHWND__@@@Z
?ComposeOffscreen@CScreenText@@UAAXPAUHWND__@@@Z
?Concatenate@?$CSimpleStringT@G$0A@@ATL@@KAXAAV12@PBGH1H@Z
?Construct@?$CStringT@GV?$StrTraitATL@GV?$ChTraitsCRT@G@ATL@@@ATL@@@ATL@@SAXPAV12@@Z
?ConvertColorKeyToAlpha@CDIB@@QAAXXZ
?CopyChars@?$CSimpleStringT@G$0A@@ATL@@SAXPAGIPBGH@Z
?CopyChars@?$CSimpleStringT@G$0A@@ATL@@SAXPAGPBGH@Z
?CopyCharsOverlapped@?$CSimpleStringT@G$0A@@ATL@@SAXPAGIPBGH@Z
?CopyCharsOverlapped@?$CSimpleStringT@G$0A@@ATL@@SAXPAGPBGH@Z
?Create@CCustomButtonEx@@SAPAV1@PAUHINSTANCE__@@0PAUHWND__@@@Z
?Create@CCustomButtonEx@@SAPAV1@PAUHINSTANCE__@@0PAUHWND__@@I@Z
?Create@CCustomButtonEx@@SAPAV1@PAUHINSTANCE__@@0PAUHWND__@@IPAUHDC__@@1@Z
?Create@CCustomButtonEx@@SAPAV1@PAUHINSTANCE__@@0PAUHWND__@@PAUHDC__@@1@Z
?CreateAppWindow@WizardUI@@AAAXXZ
?CreateEx@CCustomButtonEx@@SAPAV1@PAUHINSTANCE__@@0PAUHWND__@@IQAU_Button_Data@@PAUHDC__@@1@Z
?CreateEx@CCustomButtonEx@@SAPAV1@PAUHINSTANCE__@@0PAUHWND__@@QAU_Button_Data@@PAUHDC__@@1@Z
?CreateFromHwnd@CDIB@@QAAHPAUHWND__@@@Z
?CreateIndirect@CCustomButtonEx@@SAPAV1@PAUHINSTANCE__@@0PAUHWND__@@IQAU_Button_Data@@@Z
?CreateIndirect@CCustomButtonEx@@SAPAV1@PAUHINSTANCE__@@0PAUHWND__@@QAU_Button_Data@@@Z
?CreateMirroredIcon@@YAPAUHICON__@@PAU1@@Z
?CreateModifiedFont@@YAPAUHFONT__@@PAUHDC__@@PAUtagLOGFONTW@@HHHH@Z
?CreateNavWindow@WizardUI@@AAAHXZ
?CreateNode@WizardBranch@@UAAPAVWizardNode@@IPAVWizardEx@@PAVWizardUI@@@Z
?CreateNode@WizardDesciption@@UAAPAVWizardNode@@IPAVWizardEx@@PAVWizardUI@@@Z
?CreateNode@WizardSummary@@UAAPAVWizardNode@@IPAVWizardEx@@PAVWizardUI@@@Z
?CreateNode@WizardVariation@@UAAPAVWizardNode@@IPAVWizardEx@@PAVWizardUI@@@Z
?CreateNode@Wizard_PageDesciption@@UAAPAVWizardNode@@IPAVWizardEx@@PAVWizardUI@@@Z
?CreateNodeHelper@WizardCollection@@QAAPAVWizardEx@@IPAV2@PAVWizardUI@@@Z
?CreateProgressWindow@WizardUI@@AAAHXZ
?CreatePropertySheet@WizardUI@@AAAXXZ
?CreateScrWindow@WizardUI@@AAAXXZ
?CreateWindows@WizardUI@@AAAXXZ
?Delete@?$CStringT@GV?$StrTraitATL@GV?$ChTraitsCRT@G@ATL@@@ATL@@@ATL@@QAAHHH@Z
?DeleteBackground@WizardUI@@CAXXZ
?Destroy@CCustomButtonEx@@SAXPAV1@@Z
?DestroyAllStandardButtons@WizardRoot@@QAAXXZ
?DestroyAppWindow@WizardUI@@AAAXXZ
?DestroyDialog@CAttachDataDlg@@QAAXIIJ@Z
?DestroyDialog@CGenericNavWindow@@AAAXXZ
?DestroyNavWindow@WizardUI@@AAAXXZ
?DestroyProgressWindow@WizardUI@@AAAXXZ
?DestroyPropertySheet@WizardUI@@AAAXXZ
?DestroyScrWindow@WizardUI@@AAAXXZ
?DestroyStandardButton@WizardRoot@@QAAXPAVCCustomButtonEx@@@Z
?DestroyWindows@WizardUI@@AAAXXZ
?DibHeight@CDIB@@QBAJXZ
?DibWidth@CDIB@@QBAJXZ
?DoCancel@Win32Navigator@@UAAXXZ
?DoGoToPageIndex@Win32Navigator@@UAAXH@Z
?Draw@CAnimation@@UAAHPAUHDC__@@@Z
?Draw@CDIB@@QAAHPAUHDC__@@HH@Z
?Draw@CDIB@@QAAHPAUHDC__@@HHUtagRECT@@@Z
?Draw@CDrawBackground@@UAAHPAUHDC__@@@Z
?Draw@CDrawItem@@QAAHPAUHWND__@@@Z
?Draw@CDrawItem@@QAAHXZ
?Draw@CDrawItemComposite@@UAAHPAUHDC__@@@Z
?Draw@CScreenDIB@@UAAHPAUHDC__@@@Z
?Draw@CScreenText@@UAAHPAUHDC__@@@Z
?DrawAlphaBlended@CDIB@@AAAHPAUHDC__@@HHUtagRECT@@@Z
?DrawColorKey@CDIB@@AAAHPAUHDC__@@HHUtagRECT@@@Z
?DrawCore@CDIB@@AAAHPAUHDC__@@HHUtagRECT@@H@Z
?DrawLVItem@LanguageNeutralSelectionDialogBase@@AAAJPAUtagNMLVCUSTOMDRAW@@@Z
?DrawOpaque@CDIB@@QAAHPAUHDC__@@HH@Z
?DrawOpaque@CDIB@@QAAHPAUHDC__@@HHUtagRECT@@@Z
?DumpToFile@CDIB@@QAAHPBG@Z
?EditStreamCallbackAnsi@CRichEditControl@@CAKKPAEJPAJ@Z
?EditStreamCallbackUnicode@CRichEditControl@@CAKKPAEJPAJ@Z
?Empty@?$CSimpleStringT@G$0A@@ATL@@QAAXXZ
?EnableInput@WizardUI@@QAAXH@Z
?EndUI@WizardUI@@QAAHXZ
?Enter@CCritSec@@UAAXXZ
?EnteringTrackedWnd@CCursor@@QAAHPAUHWND__@@@Z
?Find@?$CSimpleArray@PAGV?$CSimpleArrayEqualHelper@PAG@ATL@@@ATL@@QBAHABQAG@Z
?Find@?$CSimpleArray@PAUIResourceModuleEvent@@V?$CSimpleArrayEqualHelper@PAUIResourceModuleEvent@@@ATL@@@ATL@@QBAHABQAUIResourceModuleEvent@@@Z
?Find@?$CSimpleArray@PAUKEYBOARD@@V?$CSimpleArrayEqualHelper@PAUKEYBOARD@@@ATL@@@ATL@@QBAHABQAUKEYBOARD@@@Z
?Find@?$CSimpleArray@PAULANGUAGE@@V?$CSimpleArrayEqualHelper@PAULANGUAGE@@@ATL@@@ATL@@QBAHABQAULANGUAGE@@@Z
?Find@?$CSimpleArray@PAULOCALE@@V?$CSimpleArrayEqualHelper@PAULOCALE@@@ATL@@@ATL@@QBAHABQAULOCALE@@@Z
?Find@?$CStringT@GV?$StrTraitATL@GV?$ChTraitsCRT@G@ATL@@@ATL@@@ATL@@QBAHGH@Z
?Find@?$CStringT@GV?$StrTraitATL@GV?$ChTraitsCRT@G@ATL@@@ATL@@@ATL@@QBAHPBGH@Z
?FindOneOf@?$CStringT@GV?$StrTraitATL@GV?$ChTraitsCRT@G@ATL@@@ATL@@@ATL@@QBAHPBG@Z
?FirstVisit@WizardHandler@@EAAXXZ
?Fork@?$CSimpleStringT@G$0A@@ATL@@AAAXH@Z
?Format@?$CStringT@GV?$StrTraitATL@GV?$ChTraitsCRT@G@ATL@@@ATL@@@ATL@@QAAXIZZ
?Format@?$CStringT@GV?$StrTraitATL@GV?$ChTraitsCRT@G@ATL@@@ATL@@@ATL@@QAAXPBGZZ
?FormatMessageV@?$CStringT@GV?$StrTraitATL@GV?$ChTraitsCRT@G@ATL@@@ATL@@@ATL@@QAAXPBGPAPAD@Z
?FormatMessageW@?$CStringT@GV?$StrTraitATL@GV?$ChTraitsCRT@G@ATL@@@ATL@@@ATL@@QAAXIZZ
?FormatMessageW@?$CStringT@GV?$StrTraitATL@GV?$ChTraitsCRT@G@ATL@@@ATL@@@ATL@@QAAXPBGZZ
?FormatV@?$CStringT@GV?$StrTraitATL@GV?$ChTraitsCRT@G@ATL@@@ATL@@@ATL@@QAAXPBGPAD@Z
?FormatVarMessage@@YAKKPBXKKPAGKZZ
?FreeExtra@?$CSimpleStringT@G$0A@@ATL@@QAAXXZ
?FreeInstance@CCursor@@SAXXZ
?FreeInstance@CHighContrast@@SAXXZ
?FreeInstance@Navigator@@SAXXZ
?FreeInstance@Win32Navigator@@SAXXZ
?GetAllocLength@?$CSimpleStringT@G$0A@@ATL@@QBAHXZ
?GetAllowMirror@CDIB@@QAAHXZ
?GetAppBitmap@WizardUI@@SAGXZ
?GetAppDib@AppWindow@@QAAPAVCDIB@@XZ
?GetAppDimensions@WizardUI@@SAPAUProtoPageDimensions@@XZ
?GetAppHWnd@WizardUI@@QAAPAUHWND__@@XZ
?GetAppImage@AppWindow@@QAAPAUHDC__@@XZ
?GetAppRect@AppWindow@@QAAXPAUtagRECT@@@Z
?GetAppWindow@WizardUI@@QAAPAVAppWindow@@XZ
?GetAppWindowInBackgroundBitmap@ProtoPageDimensions@@QAA?AUSimpleRect@@XZ
?GetAppWindowOffset@ProtoPageDimensions@@QAA?AUSimpleSize@@XZ
?GetAppWindowSize@ProtoPageDimensions@@QAA?AUSimpleSize@@XZ
?GetAt@?$CSimpleStringT@G$0A@@ATL@@QBAGH@Z
?GetBitsPerPixel@CDIB@@QAAIXZ
?GetBkBrush@CHighContrast@@QAAPAUHBRUSH__@@PAU2@@Z
?GetBkColor@CHighContrast@@QAAKK@Z
?GetBottomMargin@ProtoPageDimensions@@QAAHXZ
?GetBuffer@?$CSimpleStringT@G$0A@@ATL@@QAAPAGH@Z
?GetBuffer@?$CSimpleStringT@G$0A@@ATL@@QAAPAGXZ
?GetBufferSetLength@?$CSimpleStringT@G$0A@@ATL@@QAAPAGH@Z
?GetButtons@WizardPage@@QAAKXZ
?GetButtons@Wizard_PageDesciption@@QAAKXZ
?GetCancelNoShow@WizardUI@@QAAHXZ
?GetCancelPage@WizardUI@@QAAPAVWizardPage@@XZ
?GetCanceled@WizardUI@@QAAHXZ
?GetContainerHwnd@PageContainer@@QAAPAUHWND__@@XZ
?GetCreateWizardDialog@Wizard_PageDesciption@@QAAQ6APAVWizardRoot@@PAVWizardPage@@@ZXZ
?GetCurrentPage@WizardUI@@QAAPAVWizardPage@@XZ
?GetCurrentPageHwnd@PageContainer@@QAAPAUHWND__@@XZ
?GetCurrentPageIndex@PageContainer@@QAAHXZ
?GetCurrentVariation@WizardVariation@@MAAXXZ
?GetData@?$CSimpleArray@PAGV?$CSimpleArrayEqualHelper@PAG@ATL@@@ATL@@QBAPAPAGXZ
?GetData@?$CSimpleArray@PAUIResourceModuleEvent@@V?$CSimpleArrayEqualHelper@PAUIResourceModuleEvent@@@ATL@@@ATL@@QBAPAPAUIResourceModuleEvent@@XZ
?GetData@?$CSimpleArray@PAUKEYBOARD@@V?$CSimpleArrayEqualHelper@PAUKEYBOARD@@@ATL@@@ATL@@QBAPAPAUKEYBOARD@@XZ
?GetData@?$CSimpleArray@PAULANGUAGE@@V?$CSimpleArrayEqualHelper@PAULANGUAGE@@@ATL@@@ATL@@QBAPAPAULANGUAGE@@XZ
?GetData@?$CSimpleArray@PAULOCALE@@V?$CSimpleArrayEqualHelper@PAULOCALE@@@ATL@@@ATL@@QBAPAPAULOCALE@@XZ
?GetData@?$CSimpleStringT@G$0A@@ATL@@ABAPAUCStringData@2@XZ
?GetData@WizardPage@@QAAPAXXZ
?GetDialog@WizardPage@@QAAPAVWizardRoot@@XZ
?GetDib@CScreenDIB@@QAAABVCDIB@@XZ
?GetElement@NavigationStack@@QAAPAVWizardNode@@H@Z
?GetEnvironmentVariableW@?$CStringT@GV?$StrTraitATL@GV?$ChTraitsCRT@G@ATL@@@ATL@@@ATL@@QAAHPBG@Z
?GetFirstPage@WizardEx@@QAAPAVWizardPage@@XZ
?GetFontCharSet@WizardUI@@QAAKXZ
?GetFontName@WizardUI@@QAAPBGXZ
?GetFontSize@WizardUI@@QAAIXZ
?GetHWnd@WizardPage@@QAAPAUHWND__@@XZ
?GetHdc@CDIB@@QBAPAUHDC__@@XZ
?GetHwndFont@@YAPAUHFONT__@@PAUHWND__@@PAUtagLOGFONTW@@@Z
?GetHwndLogFont@@YAHPAUHWND__@@PAUtagLOGFONTW@@@Z
?GetIndex@WizardNode@@QAAIXZ
?GetInstance@CCursor@@SAPAV1@XZ
?GetInstance@CHighContrast@@SAPAV1@XZ
?GetLength@?$CSimpleStringT@G$0A@@ATL@@QBAHXZ
?GetManager@?$CSimpleStringT@G$0A@@ATL@@QBAPAUIAtlStringMgr@2@XZ
?GetManager@?$CStringT@GV?$StrTraitATL@GV?$ChTraitsCRT@G@ATL@@@ATL@@@ATL@@QBAPAUIAtlStringMgr@2@XZ
?GetMaxCount@WizardEx@@QAAIXZ
?GetMaxPageIndex@PageContainer@@QAAHXZ
?GetNavBarHeight@ProtoPageDimensions@@QAAHXZ
?GetNavHWnd@WizardUI@@QAAPAUHWND__@@XZ
?GetNavRect@AppWindow@@QAAXPAUtagRECT@@@Z
?GetPage@WizardEx@@UAAPAVWizardPage@@XZ
?GetPage@WizardPage@@UAAPAV1@XZ
?GetPageContainer@WizardUI@@QAAPAVPageContainer@@XZ
?GetPageHandler@WizardRoot@@UAAPAVWizardHandler@@XZ
?GetPageHwndFromPageIndex@PageContainer@@QAAPAUHWND__@@H@Z
?GetPageIndex@WizardEx@@QAAIXZ
?GetPageIndex@WizardNode@@QAAIXZ
?GetPageList@WizardEx@@QAAPAPAVWizardNode@@XZ
?GetPageListItem@WizardEx@@QAAPAVWizardNode@@H@Z
?GetPageName@WizardRoot@@QAA?AV?$CStringT@GV?$StrTraitATL@GV?$ChTraitsCRT@G@ATL@@@ATL@@@ATL@@XZ
?GetParent@WizardNode@@QAAPAVWizardEx@@XZ
?GetPidStr@PIDStringView@@QAAPBGXZ
?GetResourceInstance@CResourceModule@@QAAPAUHINSTANCE__@@XZ
?GetResourceInstance@CResourceModuleFactory@@QAAPAUHINSTANCE__@@XZ
?GetResourceInstanceLoc@WizardPage@@QAAPAUHINSTANCE__@@XZ
?GetResourceInstanceLoc@WizardUI@@QAAPAUHINSTANCE__@@XZ
?GetResourceInstanceNonLoc@WizardPage@@QAAPAUHINSTANCE__@@XZ
?GetResourceInstanceNonLoc@WizardUI@@QAAPAUHINSTANCE__@@XZ
?GetResourceLocName@Wizard_PageDesciption@@QAAPBGXZ
?GetResourceModule@CResourceModuleFactory@@QAAPAVCResourceModule@@XZ
?GetResourceNonLocName@Wizard_PageDesciption@@QAAPBGXZ
?GetResourceStringLoc@WizardPage@@QAAPBGXZ
?GetRoot@WizardHandler@@QAAPAVWizardRoot@@XZ
?GetScaledBackgroundBitmapSize@ProtoPageDimensions@@QAA?AUSimpleSize@@XZ
?GetScrHWnd@WizardUI@@QAAPAUHWND__@@XZ
?GetScrImage@ScrWindow@@QAAPAUHDC__@@XZ
?GetScrRect@ScrWindow@@QAAXPAUtagRECT@@@Z
?GetScrWindow@WizardUI@@QAAPAVScrWindow@@XZ
?GetScreenBitmap@WizardUI@@SAGXZ
?GetScreenBitmapSize@ProtoPageDimensions@@QAA?AUSimpleSize@@XZ
?GetSelectedLanguage@LanguageSelectionDialogBase@@AAA?AV?$CStringT@GV?$StrTraitATL@GV?$ChTraitsCRT@G@ATL@@@ATL@@@ATL@@XZ
?GetSelectedLocale@LanguageSelectionDialogBase@@AAA?AV?$CStringT@GV?$StrTraitATL@GV?$ChTraitsCRT@G@ATL@@@ATL@@@ATL@@XZ
?GetShowScreenWindow@WizardUI@@QAAHXZ
?GetSize@?$CSimpleArray@PAGV?$CSimpleArrayEqualHelper@PAG@ATL@@@ATL@@QBAHXZ
?GetSize@?$CSimpleArray@PAUIResourceModuleEvent@@V?$CSimpleArrayEqualHelper@PAUIResourceModuleEvent@@@ATL@@@ATL@@QBAHXZ
?GetSize@?$CSimpleArray@PAUKEYBOARD@@V?$CSimpleArrayEqualHelper@PAUKEYBOARD@@@ATL@@@ATL@@QBAHXZ
?GetSize@?$CSimpleArray@PAULANGUAGE@@V?$CSimpleArrayEqualHelper@PAULANGUAGE@@@ATL@@@ATL@@QBAHXZ
?GetSize@?$CSimpleArray@PAULOCALE@@V?$CSimpleArrayEqualHelper@PAULOCALE@@@ATL@@@ATL@@QBAHXZ
?GetSize@NavigationStack@@QAAHXZ
?GetStrategy@WizardEx@@QAAPAVWizardStrategy@@XZ
?GetString@?$CSimpleStringT@G$0A@@ATL@@QBAPBGXZ
?GetString@MyString@@QAAPBGXZ
?GetTemplate@WizardPage@@QAAKXZ
?GetTemplate@Wizard_PageDesciption@@QAAKXZ
?GetTextColor@CHighContrast@@QAAKK@Z
?GetTitle@WizardPage@@QAAKXZ
?GetTitle@Wizard_PageDesciption@@QAAKXZ
?GetTop@NavigationStack@@QAAPAVWizardNode@@XZ
?GetTransparentColor@CDIB@@QAAKXZ
?GetType@WizardNode@@QAAIXZ
?GetUiMutex@WizardUI@@QAAPAXXZ
?GetUserSelectedHideOOBELang@WizardUI@@QAAPAGXZ
?GetUserSelectedKeyboardType@WizardUI@@QAAPAGXZ
?GetUserSelectedLDId@WizardUI@@QAAPAGXZ
?GetUserSelectedLocale@WizardUI@@QAAPAGXZ
?GetUserSelectedTargetLanguage@WizardUI@@QAAPAGXZ
?GetUserSelectedUILanguage@WizardUI@@QAAPAGXZ
?GetWindowProc@WizardPage@@QAAP6AHPAUHWND__@@IIJ@ZXZ
?GetWindowProc@WizardRoot@@UAAP6AHPAUHWND__@@IIJ@ZXZ
?GetWizNodeType@Wiz_Node@@QAAIXZ
?GetWizUI@WizardNode@@QAAPAVWizardUI@@XZ
?GetWizUI@WizardUI@@SAPAV1@XZ
?GetWizardPageWithIndex@PageContainer@@QAAPAVWizardPage@@H@Z
?GetWizardPageWithPageIndex@WizardUI@@QAAPAVWizardPage@@H@Z
?GetWizardRect@AppWindow@@QAAXPAUtagRECT@@@Z
?HdcBackground@WizardUI@@SAPAUHDC__@@XZ
?Hdlg@CAttachDataDlg@@QAAPAUHWND__@@XZ
?Hdlg@CGenericNavWindow@@QAAAAPAUHWND__@@XZ
?Hdlg@WizardHandler@@QAAPAUHWND__@@XZ
?Hdlg@WizardRoot@@QAAAAPAUHWND__@@XZ
?Hide@CWndObj@@UAAXXZ
?HideSplashScreen@WizardUI@@AAAXXZ
?HwndBackground@WizardUI@@SAPAUHWND__@@XZ
?HwndProgress@WizardUI@@SAPAUHWND__@@XZ
?Init@AppWindow@@QAAHIII@Z
?Init@CAnimationControl@@QAAHPAUHWND__@@IPAUHINSTANCE__@@IKHH@Z
?Init@CCtlText@@QAAHPAUHWND__@@I@Z
?Init@CCustomGraphicEx@@QAAHPAUHWND__@@I@Z
?Init@CResourceModuleFactory@@QAAXPAUHINSTANCE__@@@Z
?Init@CResourceModuleFactory@@QAAXPAUHINSTANCE__@@PBG@Z
?Init@CScreenText@@QAAHXZ
?Init@CWndObj@@UAAHPAUIWndObj@@@Z
?Init@ProtoPageDimensions@@QAAHXZ
?Init@ScrWindow@@QAAHI@Z
?Init@WizardHandler@@QAAXPAVWizardRoot@@@Z
?InitAllStandardButtons@WizardRoot@@QAAXXZ
?InitButtons@CGenericNavWindow@@MAAXXZ
?InitDialog@CAttachDataDlg@@SAXPAUHWND__@@IIJ@Z
?InitDialog@CGenericNavWindow@@AAAXPAUHWND__@@@Z
?InitFonts@WizardUI@@AAAHPAUHINSTANCE__@@@Z
?InitLangNeutralLV@LanguageNeutralSelectionDialogBase@@AAAXXZ
?InitPage@WizardHandler@@UAAXXZ
?InitStandardButton@WizardRoot@@QAAPAVCCustomButtonEx@@I@Z
?InitSurface@CGenericNavWindow@@AAAXXZ
?Initialize@CHighContrast@@QAAHXZ
?Initialize@CRichEditControl@@QAAXPAUHWND__@@PBG@Z
?Initialize@WizardPage@@QAAXKKKPAVWizardRoot@@PBG1@Z
?Initialize@WizardUI@@QAAHPAVCResourceModule@@0@Z
?InitializeWithMsftEdit@CRichEditControl@@QAAXPAUHWND__@@@Z
?Insert@?$CStringT@GV?$StrTraitATL@GV?$ChTraitsCRT@G@ATL@@@ATL@@@ATL@@QAAHHG@Z
?Insert@?$CStringT@GV?$StrTraitATL@GV?$ChTraitsCRT@G@ATL@@@ATL@@@ATL@@QAAHHPBG@Z
?InsertChar@MyString@@QAAHHG@Z
?InsertString@MyString@@QAAHHPBG@Z
?InsertString@PIDStringView@@QAAHHPBG@Z
?InstallFont@WizardUI@@AAAHPAUHINSTANCE__@@@Z
?InternalSetAtIndex@?$CSimpleArray@PAGV?$CSimpleArrayEqualHelper@PAG@ATL@@@ATL@@QAAXHABQAG@Z
?InternalSetAtIndex@?$CSimpleArray@PAUIResourceModuleEvent@@V?$CSimpleArrayEqualHelper@PAUIResourceModuleEvent@@@ATL@@@ATL@@QAAXHABQAUIResourceModuleEvent@@@Z
?InternalSetAtIndex@?$CSimpleArray@PAUKEYBOARD@@V?$CSimpleArrayEqualHelper@PAUKEYBOARD@@@ATL@@@ATL@@QAAXHABQAUKEYBOARD@@@Z
?InternalSetAtIndex@?$CSimpleArray@PAULANGUAGE@@V?$CSimpleArrayEqualHelper@PAULANGUAGE@@@ATL@@@ATL@@QAAXHABQAULANGUAGE@@@Z
?InternalSetAtIndex@?$CSimpleArray@PAULOCALE@@V?$CSimpleArrayEqualHelper@PAULOCALE@@@ATL@@@ATL@@QAAXHABQAULOCALE@@@Z
?IsAppMirrored@AppWindow@@QAAHXZ
?IsCancelRequest@WizardUI@@AAAHPAUtagMSG@@@Z
?IsControlKeys@WizardUI@@AAAHPAUHWND__@@PAUtagMSG@@@Z
?IsDialogMessageW@PageContainer@@QAAHPAUtagMSG@@@Z
?IsDlgMsg@CWndObj@@UAAHPAUtagMSG@@@Z
?IsEmpty@?$CSimpleStringT@G$0A@@ATL@@QBA_NXZ
?IsFunctionKeys@WizardUI@@AAAHPAUHWND__@@PAUtagMSG@@@Z
?IsHighContrast@CHighContrast@@QAAHXZ
?IsInitialized@CDIB@@QAAHXZ
?IsInitialized@ProtoPageDimensions@@QAAHXZ
?IsLanguageSelectionUiShown@LanguageSelectionDialogBase@@SAHXZ
?IsMinimizeRequest@WizardUI@@AAAHPAUtagMSG@@@Z
?IsStandardSizing@ProtoPageDimensions@@QAAHXZ
?IsWDS@LanguageNeutralSelectionDialogBase@@UAAHXZ
?IsWDS@LanguageSelectionDialogBase@@UAAHXZ
?KillActive@WizardHandler@@UAAXAAH@Z
?KillActive@WizardRoot@@UAAXXZ
?LangNeutralLVSubProc@LanguageNeutralSelectionDialogBase@@CAJPAUHWND__@@IIJ@Z
?Leave@CCritSec@@UAAXXZ
?LeavingTrackedWnd@CCursor@@QAAHPAUHWND__@@@Z
?Left@?$CStringT@GV?$StrTraitATL@GV?$ChTraitsCRT@G@ATL@@@ATL@@@ATL@@QBA?AV12@H@Z
?Load32FromOther@CDIB@@AAAHPAV1@@Z
?Load@CAnimation@@QAAHPAUHINSTANCE__@@IKHJJ@Z
?Load@CDIB@@QAAHPAUHINSTANCE__@@IKH@Z
?Load@CDrawBackground@@QAAHPAUHWND__@@PAUHDC__@@0@Z
?Load@CScreenDIB@@QAAHPAUHINSTANCE__@@IK@Z
?LoadBackground@AppWindow@@QAAXXZ
?LoadBitmapW@CHighContrast@@QAAPAUHBITMAP__@@PAUHINSTANCE__@@IHHI@Z
?LoadFontInfo@WizardUI@@AAAXXZ
?LoadHtmlResource@@YAPAXPAUHINSTANCE__@@PBGPAK@Z
?LoadLibraryW@CResourceModule@@AAAXXZ
?LoadScaled@CDIB@@QAAHPAUHINSTANCE__@@IJJKH@Z
?LoadScaledFromOther@CDIB@@QAAHPAV1@JJH@Z
?LoadStringResources@LanguageSelectionDialogBase@@QAAXXZ
?LoadStringW@?$CStringT@GV?$StrTraitATL@GV?$ChTraitsCRT@G@ATL@@@ATL@@@ATL@@QAAHI@Z
?LoadStringW@?$CStringT@GV?$StrTraitATL@GV?$ChTraitsCRT@G@ATL@@@ATL@@@ATL@@QAAHPAUHINSTANCE__@@I@Z
?LoadStringW@?$CStringT@GV?$StrTraitATL@GV?$ChTraitsCRT@G@ATL@@@ATL@@@ATL@@QAAHPAUHINSTANCE__@@IG@Z
?LockBuffer@?$CSimpleStringT@G$0A@@ATL@@QAAPAGXZ
?MakeFullyOpaque@CDIB@@AAAXXZ
?MakeLower@?$CStringT@GV?$StrTraitATL@GV?$ChTraitsCRT@G@ATL@@@ATL@@@ATL@@QAAAAV12@XZ
?MakeReverse@?$CStringT@GV?$StrTraitATL@GV?$ChTraitsCRT@G@ATL@@@ATL@@@ATL@@QAAAAV12@XZ
?MakeUpper@?$CStringT@GV?$StrTraitATL@GV?$ChTraitsCRT@G@ATL@@@ATL@@@ATL@@QAAAAV12@XZ
?MessageBoxFromMessage@@YAHPAUHINSTANCE__@@PAUHWND__@@III@Z
?MessageBoxFromMessage@@YAHPAUHINSTANCE__@@PAUHWND__@@PBGII@Z
?MessageBoxFromMessageWithTimeout@@YAHPAUHINSTANCE__@@PAUHWND__@@IIIIH@Z
?MessageBoxFromMessageWithTimeout@@YAHPAUHINSTANCE__@@PAUHWND__@@PBGIIIH@Z
?MessagePump@WizardUI@@AAAXXZ
?Mid@?$CStringT@GV?$StrTraitATL@GV?$ChTraitsCRT@G@ATL@@@ATL@@@ATL@@QBA?AV12@H@Z
?Mid@?$CStringT@GV?$StrTraitATL@GV?$ChTraitsCRT@G@ATL@@@ATL@@@ATL@@QBA?AV12@HH@Z
?MirrorImage@CDIB@@QAAXXZ
?Move@CWndObj@@UAAXPAUtagPOINT@@@Z
?MoveControl@@YAXPAUHWND__@@IJJ@Z
?MyDynamicSetWindowText@@YAHPAUHWND__@@IV?$CStringT@GV?$StrTraitATL@GV?$ChTraitsCRT@G@ATL@@@ATL@@@ATL@@@Z
?MyPropSheet_GetWizButtons@WizardRoot@@QAAKXZ
?MyPropSheet_SetWizButtons@WizardRoot@@QAAXK@Z
?MySetWindowText@@YAHPAUHWND__@@IV?$CStringT@GV?$StrTraitATL@GV?$ChTraitsCRT@G@ATL@@@ATL@@@ATL@@@Z
?NeedToRedrawNavWindow@WizardUI@@AAAHXZ
?Next@Navigator@@UAAPAVWizardPage@@HPAVWizardNode@@@Z
?Next@Navigator@@UAAPAVWizardPage@@PAVWizardNode@@@Z
?Next@WizardEx@@UAAPAVWizardPage@@HPAVWizardNode@@@Z
?Next@WizardEx@@UAAPAVWizardPage@@PAVWizardNode@@@Z
?NextPage@BranchWizStrategy@@UAAPAVWizardPage@@HPAVWizardNode@@@Z
?NextPage@SimpleWizStrategy@@UAAPAVWizardPage@@HPAVWizardNode@@@Z
?NextPage@SummaryWizStrategy@@UAAPAVWizardPage@@HPAVWizardNode@@@Z
?NextPage@VariationWizStrategy@@UAAPAVWizardPage@@HPAVWizardNode@@@Z
?NextPageHelper@ChoiceWizStrategy@@IAAPAVWizardPage@@HPAVWizardNode@@@Z
?NotifyWizBack@WizardHandler@@UAAHAAH@Z
?NotifyWizBack@WizardRoot@@UAAHXZ
?NotifyWizCancel@WizardHandler@@UAAHAAH@Z
?NotifyWizCancel@WizardRoot@@UAAHXZ
?NotifyWizFinish@WizardHandler@@UAAHAAH@Z
?NotifyWizFinish@WizardRoot@@UAAHXZ
?NotifyWizNext@WizardHandler@@UAAHAAH@Z
?NotifyWizNext@WizardRoot@@UAAHXZ
?OemToCharA@?$CStringT@GV?$StrTraitATL@GV?$ChTraitsCRT@G@ATL@@@ATL@@@ATL@@QAAXXZ
?OnActivate@AppWindow@@MAAJIJ@Z
?OnActivate@CWndObj@@MAAJIJ@Z
?OnActivate@ScrWindow@@MAAJIJ@Z
?OnActivateApp@CWndObj@@MAAJIJ@Z
?OnApp@CWndObj@@MAAJIIJ@Z
?OnAskCBFormatName@CWndObj@@MAAJIJ@Z
?OnBack@AppWindow@@MAAJIIJ@Z
?OnBack@CGenericNavWindow@@QAAJGGPAUHWND__@@AAH@Z
?OnCancel@AppWindow@@MAAJIIJ@Z
?OnCancel@CGenericNavWindow@@QAAJGGPAUHWND__@@AAH@Z
?OnCancelJournal@CWndObj@@MAAJIJ@Z
?OnCancelMode@CWndObj@@MAAJIJ@Z
?OnCaptureChanged@CWndObj@@MAAJIJ@Z
?OnChangeCBChain@CWndObj@@MAAJIJ@Z
?OnChar@CWndObj@@MAAJIJ@Z
?OnCharToItem@CWndObj@@MAAJIJ@Z
?OnChildActivate@CWndObj@@MAAJIJ@Z
?OnClose@AppWindow@@MAAJIJ@Z
?OnClose@CWndObj@@MAAJIJ@Z
?OnClose@ScrWindow@@MAAJIJ@Z
?OnCommand@AppWindow@@MAAJIJ@Z
?OnCommand@CWndObj@@MAAJIJ@Z
?OnCommand@ScrWindow@@MAAJIJ@Z
?OnCommandBack@WizardDialogPost@@QAAJGGPAUHWND__@@AAH@Z
?OnCommandCancel@WizardDialogPost@@QAAJGGPAUHWND__@@AAH@Z
?OnCommandContinue@LanguageSelectionDialogBase@@QAAJGGPAUHWND__@@AAH@Z
?OnCommandContinue@WizardDialogPost@@QAAJGGPAUHWND__@@AAH@Z
?OnCommandFinish@WizardDialogPost@@QAAJGGPAUHWND__@@AAH@Z
?OnCompacting@CWndObj@@MAAJIJ@Z
?OnCompareItem@CWndObj@@MAAJIJ@Z
?OnContextMenu@CWndObj@@MAAJIJ@Z
?OnCopyData@CWndObj@@MAAJIJ@Z
?OnCreate@AppWindow@@MAAJIJ@Z
?OnCreate@CWndObj@@MAAJIJ@Z
?OnCreate@ScrWindow@@MAAJIJ@Z
?OnCtlColor@CGenericNavWindow@@QAAJIIJAAH@Z
?OnCtlColorBtn@CWndObj@@MAAJIJ@Z
?OnCtlColorDlg@CWndObj@@MAAJIJ@Z
?OnCtlColorEdit@CWndObj@@MAAJIJ@Z
?OnCtlColorListbox@CWndObj@@MAAJIJ@Z
?OnCtlColorMsgbox@CWndObj@@MAAJIJ@Z
?OnCtlColorScrollbar@CWndObj@@MAAJIJ@Z
?OnCtlColorStatic@CWndObj@@MAAJIJ@Z
?OnCtlColorStatic@SimpleDialogBase@@QAAJIIJAAH@Z
?OnCtlColorStatic@WizardDialogPost@@QAAJIIJAAH@Z
?OnCustomDraw@LanguageNeutralSelectionDialogBase@@QAAJHPAUtagNMHDR@@AAH@Z
?OnDeadChar@CWndObj@@MAAJIJ@Z
?OnDeleteItem@CWndObj@@MAAJIJ@Z
?OnDestroy@AppWindow@@MAAJIJ@Z
?OnDestroy@CGenericNavWindow@@QAAJIIJAAH@Z
?OnDestroy@CWndObj@@MAAJIJ@Z
?OnDestroy@ScrWindow@@MAAJIJ@Z
?OnDestroy@WizardDialogPre@@QAAJIIJAAH@Z
?OnDestroyClipboard@CWndObj@@MAAJIJ@Z
?OnDeviceChange@AppWindow@@MAAJIJ@Z
?OnDeviceChange@CWndObj@@MAAJIJ@Z
?OnDeviceChange@ScrWindow@@MAAJIJ@Z
?OnDevmodeChange@CWndObj@@MAAJIJ@Z
?OnDisplayChange@CGenericNavWindow@@QAAJIIJAAH@Z
?OnDisplayChange@CWndObj@@MAAJIJ@Z
?OnDisplayChange@ScrWindow@@MAAJIJ@Z
?OnDrawClipboard@CWndObj@@MAAJIJ@Z
?OnDrawItem@CGenericNavWindow@@QAAJIIJAAH@Z
?OnDrawItem@CWndObj@@MAAJIJ@Z
?OnDrawItem@WizardDialogPre@@QAAJIIJAAH@Z
?OnDropFiles@CWndObj@@MAAJIJ@Z
?OnEnable@CWndObj@@MAAJIJ@Z
?OnEndSession@CWndObj@@MAAJIJ@Z
?OnEnterIdle@CWndObj@@MAAJIJ@Z
?OnEnterMenuLoop@CWndObj@@MAAJIJ@Z
?OnEnterSizeMove@CWndObj@@MAAJIJ@Z
?OnEraseBkGnd@AppWindow@@MAAJIJ@Z
?OnEraseBkGnd@CWndObj@@MAAJIJ@Z
?OnEraseBkGnd@ScrWindow@@MAAJIJ@Z
?OnEraseBkGnd@WizardDialogPre@@QAAJIIJAAH@Z
?OnExitMenuLoop@CWndObj@@MAAJIJ@Z
?OnExitSizeMove@CWndObj@@MAAJIJ@Z
?OnFontChange@CWndObj@@MAAJIJ@Z
?OnGetButtons@AppWindow@@MAAJIIJ@Z
?OnGetButtons@CGenericNavWindow@@QAAJIIJAAH@Z
?OnGetDefID@AppWindow@@MAAJIIJ@Z
?OnGetDlgCode@CWndObj@@MAAJIJ@Z
?OnGetIcon@CWndObj@@MAAJIJ@Z
?OnGetMinMaxInfo@CWndObj@@MAAJIJ@Z
?OnGetText@CWndObj@@MAAJIJ@Z
?OnGetTextLength@CWndObj@@MAAJIJ@Z
?OnHScroll@CWndObj@@MAAJIJ@Z
?OnHelp@CWndObj@@MAAJIJ@Z
?OnHotKey@CWndObj@@MAAJIJ@Z
?OnInitDialog@CGenericNavWindow@@QAAJIIJAAH@Z
?OnInitDialog@CWndObj@@MAAJIJ@Z
?OnInitDialog@LanguageNeutralSelectionDialogBase@@QAAJIIJAAH@Z
?OnInitDialog@LanguageSelectionDialogBase@@QAAJIIJAAH@Z
?OnInitDialog@WizardDialogPre@@QAAJIIJAAH@Z
?OnKeyDown@CWndObj@@MAAJIJ@Z
?OnKeyUp@CWndObj@@MAAJIJ@Z
?OnKeyUp@LanguageNeutralSelectionDialogBase@@QAAJIIJAAH@Z
?OnKillFocus@CWndObj@@MAAJIJ@Z
?OnLButtonDblClk@CWndObj@@MAAJIJ@Z
?OnLButtonDown@CWndObj@@MAAJIJ@Z
?OnLButtonUp@CWndObj@@MAAJIJ@Z
?OnLanguageChange@LanguageSelectionDialogBase@@QAAJGGPAUHWND__@@AAH@Z
?OnLanguageSelect@LanguageNeutralSelectionDialogBase@@QAAJHPAUtagNMHDR@@AAH@Z
?OnLocaleChange@LanguageSelectionDialogBase@@QAAJGGPAUHWND__@@AAH@Z
?OnMeasureItem@CWndObj@@MAAJIJ@Z
?OnMenuChar@CWndObj@@MAAJIJ@Z
?OnMenuSelect@CWndObj@@MAAJIJ@Z
?OnMouseActivate@CWndObj@@MAAJIJ@Z
?OnMouseLeave@CWndObj@@MAAJIJ@Z
?OnMouseMove@CWndObj@@MAAJIJ@Z
?OnMouseOver@LanguageNeutralSelectionDialogBase@@QAAJHPAUtagNMHDR@@AAH@Z
?OnMove@CWndObj@@MAAJIJ@Z
?OnMoving@CWndObj@@MAAJIJ@Z
?OnNCCalcSize@CWndObj@@MAAJIJ@Z
?OnNCCreate@CWndObj@@MAAJIJ@Z
?OnNCDestroy@CWndObj@@MAAJIJ@Z
?OnNCHitTest@CWndObj@@MAAJIJ@Z
?OnNCPaint@CWndObj@@MAAJIJ@Z
?OnNotify@CWndObj@@MAAJIJ@Z
?OnNull@CWndObj@@MAAJIJ@Z
?OnPaint@AppWindow@@MAAJIJ@Z
?OnPaint@CGenericNavWindow@@QAAJIIJAAH@Z
?OnPaint@CWndObj@@MAAJIJ@Z
?OnPaint@ScrWindow@@MAAJIJ@Z
?OnPaintClipboard@CWndObj@@MAAJIJ@Z
?OnParentNotify@CWndObj@@MAAJIJ@Z
?OnPower@CWndObj@@MAAJIJ@Z
?OnPowerBroadcast@CWndObj@@MAAJIJ@Z
?OnQueryEndSession@CWndObj@@MAAJIJ@Z
?OnQueryOpen@CWndObj@@MAAJIJ@Z
?OnQuit@CWndObj@@MAAJIJ@Z
?OnRButtonDblClk@CWndObj@@MAAJIJ@Z
?OnRButtonDown@CWndObj@@MAAJIJ@Z
?OnRButtonUp@CWndObj@@MAAJIJ@Z
?OnRegistered@AppWindow@@MAAJIIJ@Z
?OnRegistered@CWndObj@@MAAJIIJ@Z
?OnRegistered@ScrWindow@@MAAJIIJ@Z
?OnRenderAllFormats@CWndObj@@MAAJIJ@Z
?OnRenderFormat@CWndObj@@MAAJIJ@Z
?OnResourceChanged@LanguageSelectionDialogBase@@UAAXAAH@Z
?OnResourceChanged@WizardHandler@@UAAXAAH@Z
?OnResourceChanged@WizardRoot@@UAAXXZ
?OnSetBitmap@AppWindow@@MAAJIIJ@Z
?OnSetBitmap@CGenericNavWindow@@QAAJIIJAAH@Z
?OnSetButtons@AppWindow@@MAAJIIJ@Z
?OnSetButtons@CGenericNavWindow@@QAAJIIJAAH@Z
?OnSetCaption@AppWindow@@MAAJIIJ@Z
?OnSetCaption@CGenericNavWindow@@QAAJIIJAAH@Z
?OnSetCursor@AppWindow@@MAAJIJ@Z
?OnSetCursor@CWndObj@@MAAJIJ@Z
?OnSetCursor@ScrWindow@@MAAJIJ@Z
?OnSetFocus@CWndObj@@MAAJIJ@Z
?OnSetRedraw@CWndObj@@MAAJIJ@Z
?OnSetText@CWndObj@@MAAJIJ@Z
?OnSettingChange@CWndObj@@MAAJIJ@Z
?OnShowWindow@CWndObj@@MAAJIJ@Z
?OnSize@CWndObj@@MAAJIJ@Z
?OnSizeClipboard@CWndObj@@MAAJIJ@Z
?OnSizing@CWndObj@@MAAJIJ@Z
?OnSysChar@CWndObj@@MAAJIJ@Z
?OnSysColorChange@CWndObj@@MAAJIJ@Z
?OnSysCommand@CWndObj@@MAAJIJ@Z
?OnTimer@CWndObj@@MAAJIJ@Z
?OnUser@AppWindow@@MAAJIIJ@Z
?OnUser@CWndObj@@MAAJIIJ@Z
?OnUser@ScrWindow@@MAAJIIJ@Z
?OnVScroll@CWndObj@@MAAJIJ@Z
?OnVScrollClipboard@CWndObj@@MAAJIJ@Z
?OnWindowPosChanged@CWndObj@@MAAJIJ@Z
?OnWindowPosChanging@CWndObj@@MAAJIJ@Z
?OnWmxClose@AppWindow@@MAAJIIJ@Z
?OnWmxClose@ScrWindow@@MAAJIIJ@Z
?PageData@WizardHandler@@QAAPAVWizardPage@@XZ
?PageData@WizardRoot@@QAAAAPAVWizardPage@@XZ
?PaintWindowRegion@@YAHPAUHWND__@@@Z
?Pop@NavigationStack@@QAAPAVWizardNode@@XZ
?PopulateKeyboardList@LanguageSelectionDialogBase@@AAAIXZ
?PopulateLanguageList@LanguageSelectionDialogBase@@AAAIXZ
?PopulateLayeredDriverList@LanguageSelectionDialogBase@@AAAIXZ
?PopulateLocaleList@LanguageSelectionDialogBase@@AAAHXZ
?Post@CWndObj@@UAAHIIJ@Z
?Preallocate@?$CSimpleStringT@G$0A@@ATL@@QAAXH@Z
?PrepareWrite2@?$CSimpleStringT@G$0A@@ATL@@AAAXH@Z
?PrepareWrite@?$CSimpleStringT@G$0A@@ATL@@AAAPAGH@Z
?ProcessLanguageSelection@LanguageSelectionDialogBase@@UAAHAAH@Z
?ProcessSelectedLanguage@LanguageNeutralSelectionDialogBase@@AAAXXZ
?ProcessWindowMessage@CAttachDataDlg@@UAAHPAUHWND__@@IIJAAJK@Z
?ProcessWindowMessage@CGenericNavWindow@@UAAHPAUHWND__@@IIJAAJK@Z
?ProcessWindowMessage@LanguageNeutralSelectionDialogBase@@UAAHPAUHWND__@@IIJAAJK@Z
?ProcessWindowMessage@LanguageSelectionDialogBase@@UAAHPAUHWND__@@IIJAAJK@Z
?ProcessWindowMessage@SimpleDialogBase@@UAAHPAUHWND__@@IIJAAJK@Z
?ProcessWindowMessage@WizardDialogPost@@UAAHPAUHWND__@@IIJAAJK@Z
?ProcessWindowMessage@WizardDialogPre@@UAAHPAUHWND__@@IIJAAJK@Z
?PseudoToScreenCoordinate@ProtoPageDimensions@@QAAXAAH0@Z
?Pulse@CAnimation@@QAAXXZ
?PumpMessage@WizardUI@@AAAXUtagMSG@@@Z
?Push@NavigationStack@@QAAHPAVWizardNode@@@Z
?QueryInterface@CWndObj@@UAAJABU_GUID@@PAPAX@Z
?ReadSelectedKeyboardType@LanguageSelectionDialogBase@@AAAXXZ
?ReadSelectedLanguage@LanguageSelectionDialogBase@@AAAXXZ
?ReadSelectedLayeredDriver@LanguageSelectionDialogBase@@AAAXXZ
?ReadSelectedLocale@LanguageSelectionDialogBase@@AAAXXZ
?Reallocate@?$CSimpleStringT@G$0A@@ATL@@AAAXH@Z
?RectDest@CGenericNavWindow@@QAAAAUtagRECT@@XZ
?Refresh@CDrawItem@@QAAHXZ
?RegisterObserver@CResourceModule@@QAAHPAUIResourceModuleEvent@@@Z
?ReinstantiatePages@PageContainer@@QAAXXZ
?Release@CWndObj@@UAAKXZ
?ReleaseBuffer@?$CSimpleStringT@G$0A@@ATL@@QAAXH@Z
?ReleaseBufferSetLength@?$CSimpleStringT@G$0A@@ATL@@QAAXH@Z
?Reload@WizardRoot@@QAAXXZ
?ReloadAllStandardButtons@WizardRoot@@QAAXXZ
?ReloadCaptions@CCustomButtonEx@@QAAXPAUHINSTANCE__@@@Z
?Remove@?$CSimpleArray@PAGV?$CSimpleArrayEqualHelper@PAG@ATL@@@ATL@@QAAHABQAG@Z
?Remove@?$CSimpleArray@PAUIResourceModuleEvent@@V?$CSimpleArrayEqualHelper@PAUIResourceModuleEvent@@@ATL@@@ATL@@QAAHABQAUIResourceModuleEvent@@@Z
?Remove@?$CSimpleArray@PAUKEYBOARD@@V?$CSimpleArrayEqualHelper@PAUKEYBOARD@@@ATL@@@ATL@@QAAHABQAUKEYBOARD@@@Z
?Remove@?$CSimpleArray@PAULANGUAGE@@V?$CSimpleArrayEqualHelper@PAULANGUAGE@@@ATL@@@ATL@@QAAHABQAULANGUAGE@@@Z
?Remove@?$CSimpleArray@PAULOCALE@@V?$CSimpleArrayEqualHelper@PAULOCALE@@@ATL@@@ATL@@QAAHABQAULOCALE@@@Z
?Remove@?$CStringT@GV?$StrTraitATL@GV?$ChTraitsCRT@G@ATL@@@ATL@@@ATL@@QAAHG@Z
?RemoveAll@?$CSimpleArray@PAGV?$CSimpleArrayEqualHelper@PAG@ATL@@@ATL@@QAAXXZ
?RemoveAll@?$CSimpleArray@PAUIResourceModuleEvent@@V?$CSimpleArrayEqualHelper@PAUIResourceModuleEvent@@@ATL@@@ATL@@QAAXXZ
?RemoveAll@?$CSimpleArray@PAUKEYBOARD@@V?$CSimpleArrayEqualHelper@PAUKEYBOARD@@@ATL@@@ATL@@QAAXXZ
?RemoveAll@?$CSimpleArray@PAULANGUAGE@@V?$CSimpleArrayEqualHelper@PAULANGUAGE@@@ATL@@@ATL@@QAAXXZ
?RemoveAll@?$CSimpleArray@PAULOCALE@@V?$CSimpleArrayEqualHelper@PAULOCALE@@@ATL@@@ATL@@QAAXXZ
?RemoveAt@?$CSimpleArray@PAGV?$CSimpleArrayEqualHelper@PAG@ATL@@@ATL@@QAAHH@Z
?RemoveAt@?$CSimpleArray@PAUIResourceModuleEvent@@V?$CSimpleArrayEqualHelper@PAUIResourceModuleEvent@@@ATL@@@ATL@@QAAHH@Z
?RemoveAt@?$CSimpleArray@PAUKEYBOARD@@V?$CSimpleArrayEqualHelper@PAUKEYBOARD@@@ATL@@@ATL@@QAAHH@Z
?RemoveAt@?$CSimpleArray@PAULANGUAGE@@V?$CSimpleArrayEqualHelper@PAULANGUAGE@@@ATL@@@ATL@@QAAHH@Z
?RemoveAt@?$CSimpleArray@PAULOCALE@@V?$CSimpleArrayEqualHelper@PAULOCALE@@@ATL@@@ATL@@QAAHH@Z
?RemoveChar@MyString@@QAAHH@Z
?RemoveFonts@WizardUI@@AAAXXZ
?RemoveString@MyString@@QAAHHH@Z
?RemoveString@PIDStringView@@QAAHHHH@Z
?Replace@?$CStringT@GV?$StrTraitATL@GV?$ChTraitsCRT@G@ATL@@@ATL@@@ATL@@QAAHGG@Z
?Replace@?$CStringT@GV?$StrTraitATL@GV?$ChTraitsCRT@G@ATL@@@ATL@@@ATL@@QAAHPBG0@Z
?ReplaceString@PIDStringView@@QAAHHHPBG@Z
?RepositionAllWindows@WizardUI@@QAAXIJ@Z
?RepositionAppWindow@WizardUI@@AAAXXZ
?RepositionNavWindow@WizardUI@@AAAXIJ@Z
?RepositionProgressWindow@WizardUI@@AAAXIJ@Z
?RequestCancel@Win32Navigator@@UAAXXZ
?RequestFinish@Win32Navigator@@UAAXXZ
?RequestGoBack@Win32Navigator@@UAAXXZ
?RequestGoNext@Win32Navigator@@UAAXH@Z
?RequestGoNext@Win32Navigator@@UAAXXZ
?Reset@PageContainer@@QAAHH@Z
?Reset@WizardEx@@UAAHXZ
?Reset@WizardPage@@UAAHXZ
?ResetLanguage@AppWindow@@QAAHXZ
?ResetLanguage@CResourceModule@@QAAHXZ
?ResetLanguage@CResourceModuleFactory@@QAAHXZ
?ResetLanguage@WizardUI@@QAAHPBG@Z
?ResetWizUI@WizardUI@@CAXXZ
?Resize@CDIB@@QAAHJJ@Z
?ReverseFind@?$CStringT@GV?$StrTraitATL@GV?$ChTraitsCRT@G@ATL@@@ATL@@@ATL@@QBAHG@Z
?Right@?$CStringT@GV?$StrTraitATL@GV?$ChTraitsCRT@G@ATL@@@ATL@@@ATL@@QBA?AV12@H@Z
?SPWE_CloseCurrentMessageBox@@YAXXZ
?SPWE_MessageBox@@YAHPAUHWND__@@PAUHINSTANCE__@@PBG2IP6AH0IIJ@ZIH@Z
?ScreenToPseudoCoordinate@ProtoPageDimensions@@QAAXAAH0@Z
?Send@CWndObj@@UAAHIIJ@Z
?SetActive@SimpleDialogBase@@UAAXAAH@Z
?SetActive@WizardDialogPost@@UAAXAAH@Z
?SetActive@WizardDialogPre@@UAAXAAH@Z
?SetActive@WizardHandler@@UAAXAAH@Z
?SetActive@WizardRoot@@UAAXXZ
?SetActiveAppWnd@AppWindow@@QAAXPAUHWND__@@@Z
?SetAllowMirror@CAnimation@@QAAXH@Z
?SetAllowMirror@CAnimationControl@@QAAXH@Z
?SetAllowMirror@CDIB@@QAAXH@Z
?SetAppHWnd@WizardUI@@QAAXPAUHWND__@@@Z
?SetAppWindow@WizardUI@@QAAXPAVAppWindow@@@Z
?SetAt@?$CSimpleStringT@G$0A@@ATL@@QAAXHG@Z
?SetAtIndex@?$CSimpleArray@PAGV?$CSimpleArrayEqualHelper@PAG@ATL@@@ATL@@QAAHHABQAG@Z
?SetAtIndex@?$CSimpleArray@PAUIResourceModuleEvent@@V?$CSimpleArrayEqualHelper@PAUIResourceModuleEvent@@@ATL@@@ATL@@QAAHHABQAUIResourceModuleEvent@@@Z
?SetAtIndex@?$CSimpleArray@PAUKEYBOARD@@V?$CSimpleArrayEqualHelper@PAUKEYBOARD@@@ATL@@@ATL@@QAAHHABQAUKEYBOARD@@@Z
?SetAtIndex@?$CSimpleArray@PAULANGUAGE@@V?$CSimpleArrayEqualHelper@PAULANGUAGE@@@ATL@@@ATL@@QAAHHABQAULANGUAGE@@@Z
?SetAtIndex@?$CSimpleArray@PAULOCALE@@V?$CSimpleArrayEqualHelper@PAULOCALE@@@ATL@@@ATL@@QAAHHABQAULOCALE@@@Z
?SetBackGroundColor@CRichEditControl@@QAAXK@Z
?SetBackgroundHDC@CCustomButtonEx@@QAAXPAUHDC__@@@Z
?SetCancelNoShow@WizardUI@@QAAXH@Z
?SetCanceled@WizardUI@@QAAXH@Z
?SetColor@CScreenText@@QAAHK@Z
?SetControlFonts@@YAXPAUHWND__@@@Z
?SetCurrentPage@PageContainer@@QAAXH@Z
?SetCursorState@CCursor@@QAAXI@Z
?SetCursorStateForButton@CCursor@@QAAXI@Z
?SetCursorWait@CCursor@@QAAXXZ
?SetData@WizardPage@@QAAXPAX@Z
?SetDlgItemTextFromResID@@YAXPAUHWND__@@IPAUHINSTANCE__@@I@Z
?SetFirstPage@Win32Navigator@@UAAXPAVWizardPage@@@Z
?SetFont@CScreenText@@QAAHPAUHFONT__@@@Z
?SetFontSize@PageContainer@@QAAXH@Z
?SetFontSize@WizardUI@@QAAXI@Z
?SetGraphic@CCustomGraphicEx@@QAAHPAVCDrawItem@@@Z
?SetHWnd@WizardPage@@QAAXPAUHWND__@@@Z
?SetHdcDest@CDrawItem@@QAAXPAUHDC__@@@Z
?SetHwndDest@CDrawItem@@QAAXPAUHWND__@@@Z
?SetIndex@WizardNode@@QAAXI@Z
?SetLanguageString@WizardUI@@AAAJPAPAGPAG@Z
?SetLength@?$CSimpleStringT@G$0A@@ATL@@AAAXH@Z
?SetManager@?$CSimpleStringT@G$0A@@ATL@@QAAXPAUIAtlStringMgr@2@@Z
?SetMaxCount@WizardEx@@QAAXI@Z
?SetMdi@CWndObj@@UAAXPAUIWndObj@@@Z
?SetNavHWnd@WizardUI@@QAAXPAUHWND__@@@Z
?SetPageIndex@WizardNode@@QAAXI@Z
?SetPageList@WizardEx@@QAAXPAPAVWizardNode@@@Z
?SetPageListItem@WizardEx@@QAAXHPAVWizardNode@@@Z
?SetParent@WizardNode@@QAAXPAVWizardEx@@@Z
?SetPosition@CDrawItem@@QAAXKK@Z
?SetRichTextAnsi@CRichEditControl@@QAAXPBDPAK@Z
?SetScrWindow@WizardUI@@QAAXPAVScrWindow@@@Z
?SetStrategy@WizardEx@@QAAXPAVWizardStrategy@@@Z
?SetString@?$CSimpleStringT@G$0A@@ATL@@QAAXPBG@Z
?SetString@?$CSimpleStringT@G$0A@@ATL@@QAAXPBGH@Z
?SetSysString@?$CStringT@GV?$StrTraitATL@GV?$ChTraitsCRT@G@ATL@@@ATL@@@ATL@@QBAPAGPAPAG@Z
?SetText@CCtlText@@QAAXPAUHWND__@@PAUHFONT__@@KPBG@Z
?SetText@CRichEditControl@@QAAXPBG@Z
?SetText@CScreenText@@QAAHPAUHWND__@@PBG@Z
?SetTextColor@CRichEditControl@@QAAXK@Z
?SetTextMode@CRichEditControl@@QAAXI@Z
?SetTextNoFormat@CRichEditControl@@QAAXPBG@Z
?SetTextStyle@@YAHPAUHWND__@@HHHHH@Z
?SetTextStyle@WizardRoot@@QAAHHMHHH@Z
?SetTransparentColor@CAnimation@@QAAXK@Z
?SetTransparentColor@CAnimationControl@@QAAXK@Z
?SetTransparentColor@CDIB@@QAAXK@Z
?SetType@WizardNode@@QAAXI@Z
?SetUserSelectedHideOOBELang@WizardUI@@QAAJPAG@Z
?SetUserSelectedKeyboardType@WizardUI@@QAAJPAG@Z
?SetUserSelectedLDId@WizardUI@@QAAJPAG@Z
?SetUserSelectedLocale@WizardUI@@QAAJPAG@Z
?SetUserSelectedTargetLanguage@WizardUI@@QAAJPAG@Z
?SetUserSelectedUILanguage@WizardUI@@QAAJPAG@Z
?SetWizUI@WizardNode@@QAAXPAVWizardUI@@@Z
?SetWizUI@WizardUI@@CAXPAV1@@Z
?Show@CWndObj@@UAAXK@Z
?Show@CWndObj@@UAAXXZ
?ShowError@LanguageSelectionDialogBase@@AAAHPAUHINSTANCE__@@K@Z
?ShowLanguageNeutralSelectionUI@LanguageNeutralSelectionDialogBase@@UAAHXZ
?ShowLanguageSelectionUI@LanguageSelectionDialogBase@@UAAHXZ
?ShowMigrationReport@@YAXPAUHINSTANCE__@@PAUHWND__@@IPBGI@Z
?ShowReadMoreWnd@@YAHPAUHINSTANCE__@@PAUHWND__@@IPBGI@Z
?ShowReadMoreWnd@@YAXPAUHINSTANCE__@@PAUHWND__@@III@Z
?ShowReadMoreWndHtml@@YAXPAUHINSTANCE__@@PAUHWND__@@IPBGI@Z
?ShowReadMoreWndHtmlFromResource@@YAXPAUHINSTANCE__@@PAUHWND__@@IPBG2I@Z
?ShowScreenWindow@WizardUI@@QAAXH@Z
?ShowUI@PageContainer@@QAAXPAUHWND__@@PAVWizardPage@@@Z
?ShowWindow@PageContainer@@QAAXH@Z
?ShowWindows@WizardUI@@AAAXXZ
?Size@CWndObj@@UAAXPAUtagSIZE@@@Z
?SleepMessageSafe@WizardUI@@QAAXK@Z
?SmartSetWindowText@@YAHPAUHWND__@@IV?$CStringT@GV?$StrTraitATL@GV?$ChTraitsCRT@G@ATL@@@ATL@@@ATL@@@Z
?SpanExcluding@?$CStringT@GV?$StrTraitATL@GV?$ChTraitsCRT@G@ATL@@@ATL@@@ATL@@QBA?AV12@PBG@Z
?SpanIncluding@?$CStringT@GV?$StrTraitATL@GV?$ChTraitsCRT@G@ATL@@@ATL@@@ATL@@QBA?AV12@PBG@Z
?SpwLoadBitmap@@YAPAUHBITMAP__@@PAUHINSTANCE__@@IHHI@Z
?Stack@WizardUI@@QAAPAVNavigationStack@@XZ
?Start@CAnimation@@QAAHXZ
?StartUI@WizardUI@@QAAHPBVProtoPageList@@@Z
?Stop@CAnimation@@QAAHXZ
?StorageWidthBytes@CDIB@@ABAKXZ
?StretchControlToWindow@@YAXPAUHWND__@@II@Z
?StringLength@?$CSimpleStringT@G$0A@@ATL@@SAHPBD@Z
?StringLength@?$CSimpleStringT@G$0A@@ATL@@SAHPBG@Z
?TearDown@PageContainer@@QAAXXZ
?TestHighcontrast@CHighContrast@@QAAXH@Z
?TextFitsInWindow@@YAJPAUHWND__@@V?$CStringT@GV?$StrTraitATL@GV?$ChTraitsCRT@G@ATL@@@ATL@@@ATL@@@Z
?ThrowMemoryException@?$CSimpleStringT@G$0A@@ATL@@KAXXZ
?Tokenize@?$CStringT@GV?$StrTraitATL@GV?$ChTraitsCRT@G@ATL@@@ATL@@@ATL@@QBA?AV12@PBGAAH@Z
?Trim@?$CStringT@GV?$StrTraitATL@GV?$ChTraitsCRT@G@ATL@@@ATL@@@ATL@@QAAAAV12@G@Z
?Trim@?$CStringT@GV?$StrTraitATL@GV?$ChTraitsCRT@G@ATL@@@ATL@@@ATL@@QAAAAV12@PBG@Z
?Trim@?$CStringT@GV?$StrTraitATL@GV?$ChTraitsCRT@G@ATL@@@ATL@@@ATL@@QAAAAV12@XZ
?TrimLeft@?$CStringT@GV?$StrTraitATL@GV?$ChTraitsCRT@G@ATL@@@ATL@@@ATL@@QAAAAV12@G@Z
?TrimLeft@?$CStringT@GV?$StrTraitATL@GV?$ChTraitsCRT@G@ATL@@@ATL@@@ATL@@QAAAAV12@PBG@Z
?TrimLeft@?$CStringT@GV?$StrTraitATL@GV?$ChTraitsCRT@G@ATL@@@ATL@@@ATL@@QAAAAV12@XZ
?TrimRight@?$CStringT@GV?$StrTraitATL@GV?$ChTraitsCRT@G@ATL@@@ATL@@@ATL@@QAAAAV12@G@Z
?TrimRight@?$CStringT@GV?$StrTraitATL@GV?$ChTraitsCRT@G@ATL@@@ATL@@@ATL@@QAAAAV12@PBG@Z
?TrimRight@?$CStringT@GV?$StrTraitATL@GV?$ChTraitsCRT@G@ATL@@@ATL@@@ATL@@QAAAAV12@XZ
?Truncate@?$CSimpleStringT@G$0A@@ATL@@QAAXH@Z
?Uninit@CResourceModuleFactory@@QAAXXZ
?Unload@CDIB@@QAAXXZ
?UnlockBuffer@?$CSimpleStringT@G$0A@@ATL@@QAAXXZ
?UnregisterObserver@CResourceModule@@QAAHPAUIResourceModuleEvent@@@Z
?Update@CWndObj@@UAAXXZ
?WMFree@CWndObj@@QAAXXZ
?WMHandler@CWndObj@@QAAJIIJ@Z
?WMInit@CWndObj@@QAAXPAUHWND__@@@Z
?WaitForMultipleObjectsMessageSafe@WizardUI@@QAAKKPBQAXHK@Z
?WaitForMultipleObjectsMessageSafeEx@WizardUI@@QAAKKPBQAXHKH@Z
?WaitForSingleObjectMessageSafe@WizardUI@@QAAKPAXK@Z
?WaitForSingleObjectMessageSafeEx@WizardUI@@QAAKPAXKH@Z
?WaitForUIEnd@WizardUI@@QAAHXZ
?WindowProc@CAttachDataDlg@@SAJPAUHWND__@@IIJ@Z
?WindowProc@CGenericNavWindow@@SAJPAUHWND__@@IIJ@Z
?WizardThreadProc@WizardUI@@CAKPAX@Z
?add_WexStyle@CWndObj@@UAAXK@Z
?add_WndStyle@CWndObj@@UAAXK@Z
?bLangUiShown@LanguageSelectionDialogBase@@0HA DATA
?bWeAllocatedInstance@Navigator@@0HA DATA
?clr_WexStyle@CWndObj@@UAAXK@Z
?clr_WndStyle@CWndObj@@UAAXK@Z
?dlgProc@@YAHPAUHWND__@@IIJ@Z
?getInstance@Navigator@@SAPAUINavigator@@XZ
?getInstance@Win32Navigator@@SAPAV1@XZ
?get_Alpha@CWndObj@@UAAKXZ
?get_BackColor@CWndObj@@UAAKXZ
?get_Class@CWndObj@@UAAPBGXZ
?get_ClsStyle@CWndObj@@UAAKXZ
?get_Cursor@CWndObj@@UAAPAUHICON__@@XZ
?get_Icon@CWndObj@@UAAPAUHICON__@@XZ
?get_Instance@CWndObj@@UAAPAUHINSTANCE__@@XZ
?get_Menu@CWndObj@@UAAPAUHMENU__@@XZ
?get_Parent@CWndObj@@UAAPAUHWND__@@XZ
?get_Position@CWndObj@@UAAPAUtagPOINT@@XZ
?get_Size@CWndObj@@UAAPAUtagSIZE@@XZ
?get_TextColor@CWndObj@@UAAKXZ
?get_Title@CWndObj@@UAAPBGXZ
?get_WexStyle@CWndObj@@UAAKXZ
?get_WndID@CWndObj@@UAAKXZ
?get_WndStyle@CWndObj@@UAAKXZ
?get_hWnd@CWndObj@@UAAPAUHWND__@@XZ
?instance@Navigator@@0PAUINavigator@@A DATA
?m_CurrentVariation@VariationWizStrategy@@1HA DATA
?m_CurrentVariation@WizardVariation@@0HA DATA
?m_hcInstance@CHighContrast@@0PAV1@A DATA
?m_instance@Win32Navigator@@0PAV1@A DATA
?s_OldLangNeutralLVProc@LanguageNeutralSelectionDialogBase@@0P6AJPAUHWND__@@IIJ@ZA DATA
?s_hbmpScreenBackgroundOld@WizardUI@@0PAUHBITMAP__@@A DATA
?s_hdcScreenBackground@WizardUI@@0PAUHDC__@@A DATA
?s_lInitialized@CCursor@@0JA DATA
?s_pCursor@CCursor@@0PAV1@A DATA
?s_pWizardUI@WizardUI@@0PAV1@A DATA
?s_szUiLanguage@CResourceModule@@0PAGA DATA
?setInstance@Navigator@@SAXPAUINavigator@@@Z
?set_Alpha@CWndObj@@UAAXK@Z
?set_BackColor@CWndObj@@UAAXK@Z
?set_Class@CWndObj@@UAAXPBG@Z
?set_ClsStyle@CWndObj@@UAAXK@Z
?set_Cursor@CWndObj@@UAAXPAUHICON__@@@Z
?set_Icon@CWndObj@@UAAXPAUHICON__@@@Z
?set_Instance@CWndObj@@UAAXPAUHINSTANCE__@@@Z
?set_Menu@CWndObj@@UAAXPAUHMENU__@@@Z
?set_Parent@CWndObj@@UAAXPAUHWND__@@@Z
?set_Position@CWndObj@@UAAXPAUtagPOINT@@@Z
?set_Size@CWndObj@@UAAXPAUtagSIZE@@@Z
?set_Template@CWndObj@@UAAXK@Z
?set_TextColor@CWndObj@@UAAXK@Z
?set_Title@CWndObj@@UAAXPBG@Z
?set_Type@CWndObj@@UAAXK@Z
?set_WexStyle@CWndObj@@UAAXK@Z
?set_WndID@CWndObj@@UAAXK@Z
?set_WndStyle@CWndObj@@UAAXK@Z
?utlGetCtlRect@@YAHPAUHWND__@@0PAUtagRECT@@@Z
?v_Chk@CAnimationControl@@AAAHK@Z
?v_Chk@CCtlText@@AAAHK@Z
?v_Chk@CWndObj@@AAAHK@Z
?v_Chk@NavigationStack@@AAAHK@Z
?v_Chk@PageContainer@@AAAHK@Z
?v_ChkStack@NavigationStack@@AAAHXZ
?v_Clr@CAnimationControl@@AAAXK@Z
?v_Clr@CCtlText@@AAAXK@Z
?v_Clr@CWndObj@@AAAXK@Z
?v_Clr@NavigationStack@@AAAXK@Z
?v_Clr@PageContainer@@AAAXK@Z
?v_ClrProps@CWndObj@@AAAXXZ
?v_CreatePage@PageContainer@@AAAXHH@Z
?v_DefWndProc@CWndObj@@AAAJIIJ@Z
?v_DestroyAllCachedPages@PageContainer@@AAAXXZ
?v_DlgCreate@CWndObj@@AAAHXZ
?v_DoPageChange@Win32Navigator@@AAAXW4Direction@@PAVWizardPage@@@Z
?v_GetHCBkColor@CHighContrast@@AAAKXZ
?v_InitSurface@AppWindow@@AAAXI@Z
?v_InitSurface@ScrWindow@@AAAXXZ
?v_IsRtf@CRichEditControl@@AAAHXZ
?v_IsValid@PIDStringView@@AAAHG@Z
?v_LoadLibrary@CResourceModule@@AAAPAUHINSTANCE__@@PBG0@Z
?v_MakePidString@PIDStringView@@AAAHXZ
?v_MakeValidString@PIDStringView@@AAA?AV?$CStringT@GV?$StrTraitATL@GV?$ChTraitsCRT@G@ATL@@@ATL@@@ATL@@PBG@Z
?v_NotifyObservers@CResourceModule@@AAAXXZ
?v_Register@CWndObj@@AAAHXZ
?v_ReleaseResource@CResourceModule@@AAAXPAUHINSTANCE__@@@Z
?v_Set@CAnimationControl@@AAAXK@Z
?v_Set@CCtlText@@AAAXK@Z
?v_Set@CWndObj@@AAAXK@Z
?v_Set@NavigationStack@@AAAXK@Z
?v_Set@PageContainer@@AAAXK@Z
?v_SetCurrentPageInternal@PageContainer@@AAAXHH@Z
?v_SetWindowTitle@AppWindow@@AAAXXZ
?v_SetWindowTitle@ScrWindow@@AAAXXZ
?v_Unload@CDrawBackground@@AAAXXZ
?v_Unregister@CWndObj@@AAAHXZ
?v_WndCreate@CWndObj@@AAAHXZ
?wndProc@@YAJPAUHWND__@@IIJ@Z
