;
; Definition file of SyncEngine.DLL
; Automatic generated by gendef
; written by Kai Tietz 2008-2014
;
LIBRARY "SyncEngine.DLL"
EXPORTS
??0ScenarioQosConnectingToWns@QoS@@QAA@ABV01@@Z
??0ScenarioQosConnectingToWns@QoS@@QAA@XZ
??0ScenarioQosCreatingSubscription@QoS@@QAA@ABV01@@Z
??0ScenarioQosCreatingSubscription@QoS@@QAA@XZ
??0ScenarioQosPlatWrapper@QoS@@QAA@ABV01@@Z
??0ScenarioQosStartup@QoS@@QAA@ABV01@@Z
??0ScenarioQosStartup@QoS@@QAA@XZ
??0ScenarioQosWrapper@QoS@@QAA@ABV01@@Z
??1ScenarioQosConnectingToWns@QoS@@UAA@XZ
??1ScenarioQosCreatingSubscription@QoS@@UAA@XZ
??1ScenarioQosStartup@QoS@@UAA@XZ
??4ScenarioQosConnectingToWns@QoS@@QAAAAV01@ABV01@@Z
??4ScenarioQosCreatingSubscription@QoS@@QAAAAV01@ABV01@@Z
??4ScenarioQosPlatWrapper@QoS@@QAAAAV01@ABV01@@Z
??4ScenarioQosStartup@QoS@@QAAAAV01@ABV01@@Z
??4ScenarioQosWrapper@QoS@@QAAAAV01@ABV01@@Z
??_7ScenarioQosConnectingToWns@QoS@@6B@ DATA
??_7ScenarioQosCreatingSubscription@QoS@@6B@ DATA
??_7ScenarioQosPlatWrapper@QoS@@6B@ DATA
??_7ScenarioQosStartup@QoS@@6B@ DATA
??_7ScenarioQosWrapper@QoS@@6B@ DATA
?CreateSyncEngine@SyncEngineClientWrapper@@YAJPAPAUISyncEngine@@@Z
?DefaultOrMostSevereErrorTypeRecorded@ScenarioQosWrapper@QoS@@QAA?AW4_ErrorType@Bici@@W434@@Z
?GetApiId@ScenarioQosWrapper@QoS@@IAA?AW4_ApiId@Bici@@XZ
?GetEventProviderGuid@SyncEngineClientWrapper@@YAPBU_GUID@@XZ
?GetMostSevereErrorTypeRecorded@ScenarioQosWrapper@QoS@@QAA?AW4_ErrorType@Bici@@XZ
?GetRecordInfoForSetSelectiveSyncStatusEntry@SyncEngineClientWrapper@@YAJPAPAUIRecordInfo@@@Z
?InstallSyncEnginePerformanceCounters@SyncEngineClientWrapper@@YAJXZ
?RegisterAppShutdownCallback@SyncEngineClientWrapper@@YAXP6AXPAX@Z0@Z
?RegisterSyncEngineCOMServer@SyncEngineClientWrapper@@YAJXZ
?ReportAssertInfo@SyncEngineClientWrapper@@YAXPBG0I00@Z
?UninstallSyncEnginePerformanceCounters@SyncEngineClientWrapper@@YAJXZ
?UnregisterSyncEngineCOMServer@SyncEngineClientWrapper@@YAJXZ
