;
; Definition file of ulib.dll
; Automatic generated by gendef
; written by Kai Tietz 2008-2014
;
LIBRARY "ulib.dll"
EXPORTS
??0ADMINFILEPRIVS@@QAA@XZ
??0ARGUMENT_LEXEMIZER@@QAA@XZ
??0ARRAY@@QAA@XZ
??0BDSTRING@@QAA@ABV0@@Z
??0BDSTRING@@QAA@XZ
??0BITVECTOR@@QAA@XZ
??0BSTRING@@IAA@XZ
??0BSTRING@@QAA@ABV0@@Z
??0BYTE_STREAM@@QAA@XZ
??0CHKDSK_MESSAGE@@QAA@XZ
??0CLASS_DESCRIPTOR@@QAA@XZ
??0COMM_DEVICE@@QAA@XZ
??0CONT_MEM@@QAA@XZ
??0DSTRING@@QAA@ABV0@@Z
??0DSTRING@@QAA@XZ
??0FLAG_ARGUMENT@@QAA@XZ
??0FSN_FILTER@@QAA@XZ
??0FSTRING@@QAA@ABV0@@Z
??0FSTRING@@QAA@XZ
??0HMEM@@QAA@XZ
??0ITERATOR@@IAA@XZ
??0ITERATOR@@QAA@ABV0@@Z
??0KEYBOARD@@QAA@XZ
??0LIST@@QAA@XZ
??0LONG_ARGUMENT@@QAA@XZ
??0MEM_ALLOCATOR@@QAA@XZ
??0MEM_BLOCK_MGR@@QAA@XZ
??0MESSAGE@@QAA@XZ
??0MESSAGE_ID_COUNT@@QAA@XZ
??0MULTIPLE_PATH_ARGUMENT@@QAA@XZ
??0OBJECT@@IAA@XZ
??0OBJECT@@QAA@ABV0@@Z
??0PATH@@QAA@XZ
??0PATH_ARGUMENT@@QAA@XZ
??0PRINT_STREAM@@QAA@XZ
??0PROGRAM@@IAA@XZ
??0REST_OF_LINE_ARGUMENT@@QAA@XZ
??0SCREEN@@QAA@XZ
??0SORTED_LIST@@QAA@XZ
??0STREAM_MESSAGE@@QAA@XZ
??0STRING_ARGUMENT@@QAA@XZ
??0STRING_ARRAY@@QAA@XZ
??0TIMEINFO@@QAA@XZ
??0TIMEINFO_ARGUMENT@@QAA@XZ
??0WSTRING@@IAA@XZ
??0WSTRING@@QAA@ABV0@@Z
??1ADMINFILEPRIVS@@QAA@XZ
??1ARGUMENT_LEXEMIZER@@UAA@XZ
??1ARRAY@@UAA@XZ
??1BDSTRING@@UAA@XZ
??1BITVECTOR@@UAA@XZ
??1BSTRING@@UAA@XZ
??1BYTE_STREAM@@UAA@XZ
??1CHKDSK_MESSAGE@@UAA@XZ
??1COMM_DEVICE@@UAA@XZ
??1DSTRING@@UAA@XZ
??1FSN_FILTER@@UAA@XZ
??1FSTRING@@UAA@XZ
??1HMEM@@UAA@XZ
??1ITERATOR@@UAA@XZ
??1LIST@@UAA@XZ
??1MEM_ALLOCATOR@@UAA@XZ
??1MEM_BLOCK_MGR@@UAA@XZ
??1MESSAGE@@UAA@XZ
??1MESSAGE_ID_COUNT@@UAA@XZ
??1MULTIPLE_PATH_ARGUMENT@@UAA@XZ
??1OBJECT@@UAA@XZ
??1PATH@@UAA@XZ
??1PATH_ARGUMENT@@UAA@XZ
??1PRINT_STREAM@@UAA@XZ
??1PROGRAM@@UAA@XZ
??1SCREEN@@UAA@XZ
??1SORTED_LIST@@UAA@XZ
??1STREAM_MESSAGE@@UAA@XZ
??1STRING_ARGUMENT@@UAA@XZ
??1TIMEINFO_ARGUMENT@@UAA@XZ
??1WSTRING@@UAA@XZ
??4BDSTRING@@QAAAAV0@ABV0@@Z
??4BSTRING@@QAAAAV0@ABV0@@Z
??4DSTRING@@QAAAAV0@ABV0@@Z
??4FSTRING@@QAAAAV0@ABV0@@Z
??4ITERATOR@@QAAAAV0@ABV0@@Z
??4OBJECT@@QAAAAV0@ABV0@@Z
??4WSTRING@@QAAAAV0@ABV0@@Z
??8WSTRING@@QBAEABV0@@Z
??9WSTRING@@QBAEABV0@@Z
??MTIMEINFO@@QBAEV0@@Z
??MWSTRING@@QBAEABV0@@Z
??NWSTRING@@QBAEABV0@@Z
??OTIMEINFO@@QBAEV0@@Z
??OWSTRING@@QBAEABV0@@Z
??PWSTRING@@QBAEABV0@@Z
??_7BDSTRING@@6B@ DATA
??_7BSTRING@@6B@ DATA
??_7DSTRING@@6B@ DATA
??_7FSTRING@@6B@ DATA
??_7ITERATOR@@6B@ DATA
??_7OBJECT@@6B@ DATA
??_7WSTRING@@6B@ DATA
?Acquire@CONT_MEM@@UAAPAXKK@Z
?Acquire@HMEM@@UAAPAXKK@Z
?Alloc@MEM_BLOCK_MGR@@QAAPAXXZ
?Allocate@MEM_ALLOCATOR@@QAAPAXK@Z
?AnalyzePath@PATH@@QAA?AW4PATH_ANALYZE_CODE@@PAVWSTRING@@PAV1@0@Z
?AppendBase@PATH@@QAAEPBVWSTRING@@E@Z
?AppendDelimiter@PATH@@QAAEXZ
?AppendString@PATH@@QAAEPBVWSTRING@@@Z
?Cast@FILE_STREAM@@SAPAV1@PBVOBJECT@@@Z
?Cast@KEYBOARD@@SAPAV1@PBVOBJECT@@@Z
?Cast@SCREEN@@SAPAV1@PBVOBJECT@@@Z
?ChangeScreenSize@SCREEN@@QAAEGGPAE@Z
?CharNextW@MBSTR@@SAPADPAD@Z
?CheckSpace@WSTRING@@CAHPAG@Z
?CommitState@COMM_DEVICE@@QAAEXZ
?Compare@OBJECT@@UBAJPBV1@@Z
?ComputeCountSet@BITVECTOR@@ABAKXZ
?Construct@BDSTRING@@AAAXXZ
?Construct@BSTRING@@IAAXXZ
?Construct@DSTRING@@AAAXXZ
?Construct@OBJECT@@IAAXXZ
?Construct@WSTRING@@IAAXXZ
?ConvertOemToUnicodeN@WSTRING@@CAEPAGKPAKPADK@Z
?ConvertToLocal@TIMEINFO@@QAAEXZ
?ConvertToUTC@TIMEINFO@@QAAEXZ
?ConvertUnicodeToOemN@WSTRING@@CAEPADKPAKPAGK@Z
?Copy@FSN_FILE@@QBAEPAVPATH@@PAW4_COPY_ERROR@@KP6AKT_LARGE_INTEGER@@222KKPAX33@Z3PAH@Z
?CreateDirectoryPath@FSN_DIRECTORY@@QBAPAV1@PBVPATH@@@Z
?DeleteAllMembers@ARRAY@@UAAEXZ
?DeleteAllMembers@SEQUENTIAL_CONTAINER@@UAAEXZ
?DeleteAllMembers@SORTED_LIST@@UAAEXZ
?DeleteChAt@BSTRING@@QAAXKK@Z
?DeleteChAt@WSTRING@@QAAXKK@Z
?DeleteDirectory@FSN_DIRECTORY@@QAAEXZ
?DeleteOldest@SVILOGFILES@@QAAEXZ
?DisableBreakHandling@KEYBOARD@@SAEXZ
?DisableLineMode@KEYBOARD@@QAAEXZ
?Display@MESSAGE@@QAAEPBDZZ
?DisplayMessage@PROGRAM@@UBAEKW4MESSAGE_TYPE@@@Z
?DisplayMessage@PROGRAM@@UBAEKW4MESSAGE_TYPE@@PADZZ
?DisplayMsg@MESSAGE@@QAAEK@Z
?DisplayMsg@MESSAGE@@QAAEKPBDZZ
?DisplayMsg@MESSAGE@@QAAEKW4MESSAGE_TYPE@@K@Z
?DisplayMsg@MESSAGE@@QAAEKW4MESSAGE_TYPE@@KPBDZZ
?DisplaySystemError@SYSTEM@@SAXKH@Z
?DoNotRestoreConsoleMode@KEYBOARD@@UAAXXZ
?DoParsing@ARGUMENT_LEXEMIZER@@QAAEPAVARRAY@@@Z
?DoesNodeMatch@FSN_FILTER@@QAAEPAVFSNODE@@@Z
?DumpDataToLog@MESSAGE@@QAAEPAXK@Z
?EnableBreakHandling@KEYBOARD@@SAEXZ
?EnableLineMode@KEYBOARD@@QAAEXZ
?EnablePrivileges@ADMINFILEPRIVS@@QAAJXZ
?EndsWithDelimiter@PATH@@QBAEXZ
?EraseScreen@SCREEN@@QAAEXZ
?EraseScreenAndResetAttribute@SCREEN@@QAAEXZ
?ExitProgram@PROGRAM@@SAXK@Z
?Export@@YAEPAVARRAY@@P6AEPAXKEPADZZ1@Z
?Fatal@PROGRAM@@UBAXKKPADZZ
?Fatal@PROGRAM@@UBAXXZ
?FileExport@SQMEXPORT@@SAEPAXKEPADZZ
?FillAndReadByte@BYTE_STREAM@@AAAEPAE@Z
?FindFirstFileW@@YAPAXPBVPATH@@PAU_WIN32_FIND_DATAW@@@Z
?FindNext@ITERATOR@@UAAPAVOBJECT@@PBV2@@Z
?Flush@KEYBOARD@@QAAEXZ
?Free@MEM_BLOCK_MGR@@QAAEPAX@Z
?FreeLibraryHandle@SYSTEM@@SAXPAX@Z
?GetAt@ARRAY@@UBAPAVOBJECT@@K@Z
?GetClassDescriptor@OBJECT@@QBAPBVCLASS_DESCRIPTOR@@XZ
?GetCompareArgument@ARRAY@@SAPAVOBJECT@@PAX@Z
?GetFileSecurityBackup@SYSTEM@@SAEPBVPATH@@KPAU_SECURITY_ATTRIBUTES@@PAK@Z
?GetHandleNewLogFile@SVILOGFILES@@QAAEPAPAX@Z
?GetLexeme@ARGUMENT@@QAAPAVWSTRING@@XZ
?GetLexemeAt@ARGUMENT_LEXEMIZER@@QAAPAVWSTRING@@K@Z
?GetNext@FSN_DIRECTORY@@QAAPAVFSNODE@@PAPAXPAK@Z
?GetPFlagBreak@KEYBOARD@@QBAQAHXZ
?GetPattern@ARGUMENT@@QAAPAVWSTRING@@XZ
?GetStandardError@PROGRAM@@UAAPAVSTREAM@@XZ
?GetStandardInput@PROGRAM@@UAAPAVSTREAM@@XZ
?GetStandardOutput@PROGRAM@@UAAPAVSTREAM@@XZ
?GetWSTR@WSTRING@@QBAPBGXZ
?Get_Standard_Error_Stream@@YAPAVSTREAM@@XZ
?Get_Standard_Input_Stream@@YAPAVSTREAM@@XZ
?Get_Standard_Output_Stream@@YAPAVSTREAM@@XZ
?GotABreak@KEYBOARD@@SAEXZ
?HasWildCard@PATH@@QBAEXZ
?Initialize@ARGUMENT_LEXEMIZER@@QAAEPAVARRAY@@@Z
?Initialize@ARRAY@@QAAEKK@Z
?Initialize@BITVECTOR@@QAAEKW4BIT@@PAK@Z
?Initialize@BITVECTOR@@QAAXPAKK@Z
?Initialize@BSTRING@@QAAEPBDK@Z
?Initialize@BSTRING@@QAAEXZ
?Initialize@BYTE_STREAM@@QAAEPAVSTREAM@@K@Z
?Initialize@CHKDSK_MESSAGE@@QAAEPAVSTREAM@@00@Z
?Initialize@CLASS_DESCRIPTOR@@QAAEXZ
?Initialize@COMM_DEVICE@@QAAEPBVPATH@@PAE@Z
?Initialize@CONT_MEM@@QAAEPAXK@Z
?Initialize@FLAG_ARGUMENT@@QAAEPAD@Z
?Initialize@FLAG_ARGUMENT@@QAAEPAVWSTRING@@@Z
?Initialize@FSN_FILTER@@QAAEXZ
?Initialize@FSTRING@@QAAPAVWSTRING@@PAGK@Z
?Initialize@HMEM@@QAAEXZ
?Initialize@KEYBOARD@@QAAEEE@Z
?Initialize@LIST@@QAAEXZ
?Initialize@LONG_ARGUMENT@@QAAEPAD@Z
?Initialize@MEM_ALLOCATOR@@QAAE_KK@Z
?Initialize@MEM_BLOCK_MGR@@QAAEKK@Z
?Initialize@MESSAGE@@QAAEXZ
?Initialize@MULTIPLE_PATH_ARGUMENT@@QAAEPADEE@Z
?Initialize@PATH@@QAAEPBGE@Z
?Initialize@PATH@@QAAEPBV1@E@Z
?Initialize@PATH@@QAAEPBVWSTRING@@E@Z
?Initialize@PATH_ARGUMENT@@QAAEPADE@Z
?Initialize@PRINT_STREAM@@QAAEPBVPATH@@@Z
?Initialize@PROGRAM@@QAAEKKK@Z
?Initialize@REST_OF_LINE_ARGUMENT@@QAAEXZ
?Initialize@SCREEN@@QAAEXZ
?Initialize@SORTED_LIST@@QAAEE@Z
?Initialize@STREAM_MESSAGE@@QAAEPAVSTREAM@@00@Z
?Initialize@STRING_ARGUMENT@@QAAEPAD@Z
?Initialize@STRING_ARRAY@@QAAEKKK@Z
?Initialize@SVILOGFILES@@QAAEPBG00K@Z
?Initialize@TIMEINFO@@QAAEPAU_FILETIME@@@Z
?Initialize@TIMEINFO@@QAAEXZ
?Initialize@TIMEINFO@@QAAXPBV1@@Z
?Initialize@TIMEINFO_ARGUMENT@@QAAEPAD@Z
?Initialize@WSTRING@@QAAEJ@Z
?Initialize@WSTRING@@QAAEPBDK@Z
?Initialize@WSTRING@@QAAEPBGK@Z
?Initialize@WSTRING@@QAAEPBV1@KK@Z
?Initialize@WSTRING@@QAAEXZ
?Insert@ARRAY@@QAAEPAVOBJECT@@K@Z
?Insert@LIST@@QAAEPAVOBJECT@@PAVITERATOR@@@Z
?InsertString@WSTRING@@QAAEKPBV1@KK@Z
?IsCorrectVersion@SYSTEM@@SAEXZ
?IsDrive@PATH@@QBAEXZ
?IsEmpty@FSN_DIRECTORY@@QBAEXZ
?IsGuidVolName@PATH@@QAAEXZ
?IsInAutoChk@MESSAGE@@UAAEXZ
?IsInSetup@MESSAGE@@UAAEXZ
?IsKeyAvailable@KEYBOARD@@QBAEPAE@Z
?IsKeyPressed@MESSAGE@@UAAEKK@Z
?IsLoggingEnabled@MESSAGE@@QAAEXZ
?IsSameClass@OBJECT@@QBAEPBV1@@Z
?IsSameObject@OBJECT@@QBAEPBV1@@Z
?IsSuppressedMessage@MESSAGE@@UAAEE@Z
?IsValueSet@ARGUMENT@@QAAEXZ
?IsYesResponse@CHKDSK_MESSAGE@@UAAEE@Z
?IsYesResponse@MESSAGE@@UAAEE@Z
?IsYesResponse@STREAM_MESSAGE@@UAAEE@Z
?Lock@MESSAGE@@QAAXXZ
?Log@MESSAGE@@QAAEPBDZZ
?LogMessage@MESSAGE@@QAAEPBVWSTRING@@@Z
?LogMsg@MESSAGE@@QAAEK@Z
?LogMsg@MESSAGE@@QAAEKPBDZZ
?LogOnly@MESSAGE@@QAAEXZ
?MakeDirectory@SYSTEM@@SAPAVFSN_DIRECTORY@@PBVPATH@@0PAW4_COPY_ERROR@@P6AKT_LARGE_INTEGER@@222KKPAX33@Z3PAHK@Z
?MakeFile@SYSTEM@@SAPAVFSN_FILE@@PBVPATH@@@Z
?MakeFileToken@MESSAGE@@SA_KPBD@Z
?MakeTemporaryFile@SYSTEM@@SAPAVFSN_FILE@@PBVWSTRING@@PBVPATH@@@Z
?ModifyName@PATH@@QAAEPBVWSTRING@@@Z
?MoveCursorTo@SCREEN@@QAAEGG@Z
?NewBuf@BDSTRING@@UAAEK@Z
?NewBuf@DSTRING@@UAAEK@Z
?NewBuf@FSTRING@@UAAEK@Z
?NewLogFileName@SVILOGFILES@@QAAEPAVWSTRING@@@Z
?NextChar@BSTRING@@QAAKK@Z
?OrderedInsert@ARRAY@@QAAEPAVOBJECT@@PAPAX@Z
?OrderedSearch@ARRAY@@QAAPAVOBJECT@@PAV2@PAPAX@Z
?PathWasTooBig@PATH@@QAAEXZ
?PrepareToParse@ARGUMENT_LEXEMIZER@@QAAEPAVWSTRING@@@Z
?Put@ARRAY@@UAAEPAVOBJECT@@@Z
?Put@LIST@@UAAEPAVOBJECT@@@Z
?Put@SORTED_LIST@@UAAEPAVOBJECT@@@Z
?PutMultipleSwitch@ARGUMENT_LEXEMIZER@@QAAXPBD@Z
?PutMultipleSwitch@ARGUMENT_LEXEMIZER@@QAAXPBVWSTRING@@@Z
?PutSeparators@ARGUMENT_LEXEMIZER@@QAAXPBD@Z
?PutString@BSTRING@@IAAXPADK@Z
?PutString@WSTRING@@IAAXPAG@Z
?PutString@WSTRING@@IAAXPAGK@Z
?PutSwitches@ARGUMENT_LEXEMIZER@@QAAXPBD@Z
?PutSwitches@ARGUMENT_LEXEMIZER@@QAAXPBVWSTRING@@@Z
?QueryByteCount@WSTRING@@QBAKXZ
?QueryChAt@WSTRING@@QBAGK@Z
?QueryChCount@BSTRING@@QBAKXZ
?QueryChCount@WSTRING@@QBAKXZ
?QueryClassId@OBJECT@@QBAKXZ
?QueryCodePage@SCREEN@@QAAKXZ
?QueryComponentArray@PATH@@QBAPAVARRAY@@PAV2@@Z
?QueryCurrentDosDriveName@SYSTEM@@SAEPAVWSTRING@@@Z
?QueryDate@TIMEINFO@@QBAEPAVWSTRING@@@Z
?QueryDirectory@SYSTEM@@SAPAVFSN_DIRECTORY@@PBVPATH@@E@Z
?QueryDriveType@SYSTEM@@SA?AW4DRIVE_TYPE@@PBVWSTRING@@@Z
?QueryEnvironmentVariable@SYSTEM@@SAPAVWSTRING@@PBV2@@Z
?QueryFile@SYSTEM@@SAPAVFSN_FILE@@PBVPATH@@EPAE@Z
?QueryFileType@SYSTEM@@SA?AW4FILE_TYPE@@PBVWSTRING@@@Z
?QueryFsnodeArray@FSN_DIRECTORY@@QBAPAVARRAY@@PAVFSN_FILTER@@@Z
?QueryFullPath@PATH@@QBAPAV1@XZ
?QueryFullPathString@PATH@@QBAPAVWSTRING@@XZ
?QueryGuidString@PATH@@QAAPAVWSTRING@@PAV2@PAE0@Z
?QueryInvalidArgument@ARGUMENT_LEXEMIZER@@QAAPAVWSTRING@@XZ
?QueryIterator@ARRAY@@UBAPAVITERATOR@@XZ
?QueryIterator@LIST@@UBAPAVITERATOR@@XZ
?QueryIterator@SORTED_LIST@@UBAPAVITERATOR@@XZ
?QueryLibraryEntryPoint@SYSTEM@@SAP6AHXZPBVWSTRING@@0PAPAX@Z
?QueryLocalTimeFromUTime@SYSTEM@@SAEPBVTIMEINFO@@PAV2@@Z
?QueryMemberCount@ARRAY@@UBAKXZ
?QueryMemberCount@LIST@@UBAKXZ
?QueryMemberCount@SORTED_LIST@@UBAKXZ
?QueryMountPointPath@PATH@@QAAPAV1@XZ
?QueryNextLibraryEntryPoint@SYSTEM@@SAP6AHXZPAXPBVWSTRING@@@Z
?QueryNextLoggedMessage@MESSAGE@@QAAEPAVFSTRING@@@Z
?QueryNumber@WSTRING@@QBAEPAJKK@Z
?QueryPackedLog@MESSAGE@@QAAEPAVHMEM@@PAK@Z
?QueryPath@PATH@@QBAPAV1@XZ
?QueryResetBit@BITVECTOR@@QBAEKK@Z
?QueryResourceString@BASE_SYSTEM@@SAEPAVWSTRING@@KPBDZZ
?QueryResourceStringV@BASE_SYSTEM@@SAEPAVWSTRING@@KPBDPAD@Z
?QueryRoot@PATH@@QAAPAVWSTRING@@XZ
?QuerySTR@BSTRING@@QBAPADKKPADKE@Z
?QuerySTR@WSTRING@@QBAPADKKPADKE@Z
?QueryScreenSize@SCREEN@@QBAXPAG000@Z
?QuerySetBit@BITVECTOR@@QBAEKK@Z
?QueryStream@FSN_FILE@@QAAPAVFILE_STREAM@@W4STREAMACCESS@@K@Z
?QueryString@WSTRING@@QBAPAV1@KK@Z
?QueryStringInput@MESSAGE@@UAAEPAVWSTRING@@@Z
?QuerySystemDirectory@SYSTEM@@SAPAVPATH@@XZ
?QueryTime@TIMEINFO@@QBAEPAVWSTRING@@@Z
?QueryTimeOut@COMM_DEVICE@@QBAEXZ
?QueryVolumeLabel@SYSTEM@@SAPAVWSTRING@@PAVPATH@@PAU_VOL_SERIAL_NUMBER@@@Z
?QueryWCExpansion@PATH@@QAAPAV1@PAV1@@Z
?QueryWSTR@WSTRING@@QBAPAGKKPAGKE@Z
?QueryWindowsErrorMessage@SYSTEM@@SAEKPAVWSTRING@@@Z
?ReadAt@FILE_STREAM@@QAAEPAEK_JW4SEEKORIGIN@@PAK@Z
?ReadLine@STREAM@@QAAEPAVWSTRING@@E@Z
?ReadMbLine@STREAM@@QAAEPADKPAKEK@Z
?ReadWLine@STREAM@@QAAEPAGKPAKEK@Z
?Remove@ARRAY@@UAAPAVOBJECT@@PAVITERATOR@@@Z
?RemoveAt@ARRAY@@UAAPAVOBJECT@@K@Z
?RemoveNode@SYSTEM@@SAEPAPAVFSNODE@@E@Z
?Replace@WSTRING@@QAAEKKPBV1@KK@Z
?ReplaceWithChars@BSTRING@@QAAEKKDK@Z
?ReplaceWithChars@WSTRING@@QAAEKKGK@Z
?ResetBit@BITVECTOR@@QAAXKK@Z
?ResetConversions@WSTRING@@SAXXZ
?ResetLoggingIterator@MESSAGE@@QAAXXZ
?Resize@BDSTRING@@UAAEK@Z
?Resize@DSTRING@@UAAEK@Z
?Resize@FSTRING@@UAAEK@Z
?Resize@HMEM@@QAAEKK@Z
?RestorePrivileges@ADMINFILEPRIVS@@QAAJXZ
?SPrintf@DSTRING@@UAAEPBGZZ
?SPrintf@FSTRING@@UAAEPBGZZ
?SPrintfAppend@DSTRING@@UAAEPBGZZ
?SPrintfAppend@FSTRING@@UAAEPBGZZ
?SPrintfWorker@DSTRING@@AAAEPBGPAD@Z
?SearchPathW@SYSTEM@@SAPAVPATH@@PAVWSTRING@@0@Z
?SelectResponse@MESSAGE@@UAAKKZZ
?Set@CHKDSK_MESSAGE@@UAAEKW4MESSAGE_TYPE@@K@Z
?Set@STREAM_MESSAGE@@UAAEKW4MESSAGE_TYPE@@K@Z
?SetAllowSwitchGlomming@ARGUMENT_LEXEMIZER@@QAAXE@Z
?SetAnsiConversions@WSTRING@@SAXXZ
?SetAttributes@FSNODE@@QAAEKPAK@Z
?SetAttributes@FSN_FILTER@@QAAEKKK@Z
?SetBaudRate@COMM_DEVICE@@QAAEK@Z
?SetBit@BITVECTOR@@QAAXKK@Z
?SetCaseSensitive@ARGUMENT_LEXEMIZER@@QAAXE@Z
?SetChAt@WSTRING@@QAAGGK@Z
?SetClassDescriptor@OBJECT@@IAAXPBVCLASS_DESCRIPTOR@@@Z
?SetCodePage@SCREEN@@QAAEK@Z
?SetConsoleConversions@WSTRING@@SAXXZ
?SetDataBits@COMM_DEVICE@@QAAEK@Z
?SetDevice@PATH@@QAAEPBVWSTRING@@@Z
?SetDotsOnly@MESSAGE@@UAAEE@Z
?SetDtrControl@COMM_DEVICE@@QAAEW4DTR_CONTROL@@@Z
?SetFileName@FSN_FILTER@@QAAEPBD@Z
?SetFileName@FSN_FILTER@@QAAEPBVWSTRING@@@Z
?SetIdsr@COMM_DEVICE@@QAAEE@Z
?SetLogOnly@MESSAGE@@QAAEE@Z
?SetLoggingEnabled@MESSAGE@@QAAXE@Z
?SetName@PATH@@QAAEPBVWSTRING@@@Z
?SetNoSpcBetweenDstAndSwitch@ARGUMENT_LEXEMIZER@@QAAXE@Z
?SetOcts@COMM_DEVICE@@QAAEE@Z
?SetOdsr@COMM_DEVICE@@QAAEE@Z
?SetOemConversions@WSTRING@@SAXXZ
?SetOutputCodePage@SCREEN@@QAAEK@Z
?SetParity@COMM_DEVICE@@QAAEW4PARITY@@@Z
?SetRtsControl@COMM_DEVICE@@QAAEW4RTS_CONTROL@@@Z
?SetSize@BITVECTOR@@QAAKKW4BIT@@@Z
?SetStopBits@COMM_DEVICE@@QAAEW4STOPBITS@@@Z
?SetTimeInfo@FSN_FILTER@@QAAEPBVTIMEINFO@@W4FSN_TIME@@G@Z
?SetTimeOut@COMM_DEVICE@@QAAEE@Z
?SetXon@COMM_DEVICE@@QAAEE@Z
?ShiftLogs@SVILOGFILES@@QAAEPBG@Z
?SkipWhite@WSTRING@@SAPAGPAG@Z
?Sort@ARRAY@@UAAEE@Z
?Sort@ARRAY@@UAAEP6AHPAX0@Z@Z
?Sort@STRING_ARRAY@@UAAEE@Z
?Split@WSTRING@@QBAEPAVARRAY@@PBV1@E@Z
?SqmExport@CHKDSK_MESSAGE@@UAAEP6AEPAXKEPADZZ0@Z
?SqmExport@SQMEXPORT@@SAEPAXKEPADZZ
?SqmExportOnError@SQMEXPORT@@SAXKKEE_KU_GUID@@@Z
?Strcat@WSTRING@@QAAEPBG@Z
?Strcat@WSTRING@@QAAEPBV1@@Z
?Strchr@BSTRING@@QBAKDK@Z
?Strchr@WSTRING@@QBAKGK@Z
?Strcmp@WSTRING@@QBAJPBV1@@Z
?Strcmp@WSTRING@@QBAJPBV1@K@Z
?Strcmp@WSTRING@@QBAJPBV1@KKKK@Z
?Strcmp@WSTRING@@SAHPAG0@Z
?Strcmpis@MBSTR@@SAHPAD0@Z
?Strcmpis@WSTRING@@SAHPAG0@Z
?Strcmps@MBSTR@@SAHPAD0@Z
?Strcmps@WSTRING@@SAHPAG0@Z
?Strcspn@WSTRING@@QBAKPBV1@K@Z
?Stricmp@MBSTR@@SAHPAD0@Z
?Stricmp@WSTRING@@QBAJPBV1@@Z
?Stricmp@WSTRING@@QBAJPBV1@K@Z
?Stricmp@WSTRING@@QBAJPBV1@KKKK@Z
?Stricmp@WSTRING@@SAHPAG0@Z
?Strlwr@WSTRING@@QAAPAV1@KK@Z
?Strlwr@WSTRING@@QAAPAV1@XZ
?Strrchr@WSTRING@@QBAKGK@Z
?Strspn@WSTRING@@QBAKPBV1@K@Z
?Strstr@MBSTR@@SAPADPAD0@Z
?Strstr@WSTRING@@QBAKPBV1@@Z
?Strupr@WSTRING@@QAAPAV1@KK@Z
?Strupr@WSTRING@@QAAPAV1@XZ
?SyncLength@WSTRING@@QAAKXZ
?TrackMsgId@@YAXPAVARRAY@@K@Z
?Traverse@FSN_DIRECTORY@@QBAEPAXPAVFSN_FILTER@@PAVPATH@@P6AE0PAVFSNODE@@2@Z@Z
?Truncate@WSTRING@@QAAKK@Z
?TruncateBase@PATH@@QAAEXZ
?TruncateDelimiter@PATH@@QAAXXZ
?TruncateNameAtColon@PATH@@QAAXXZ
?UlibRealloc@@YAPAXPAXK@Z
?Unlock@MESSAGE@@QAAXXZ
?UploadSqmFromFile@SQMEXPORT@@SAEPAX@Z
?Usage@PROGRAM@@UBAXXZ
?UseAlternateName@FSNODE@@QAAEXZ
?ValidateVersion@PROGRAM@@UBAXKK@Z
?WaitForUserSignal@MESSAGE@@UAAEXZ
?WorkOnReparsePoint@FSNODE@@QAAEE@Z
?WriteByte@STREAM@@QAAEE@Z
?_UseAnsiConversions@WSTRING@@0EA DATA
?_UseAnsiConversionsPrev@WSTRING@@0EA DATA
?_UseConsoleConversions@WSTRING@@0EA DATA
?_UseConsoleConversionsPrev@WSTRING@@0EA DATA
