;
; Definition file of UXLIB.DLL
; Automatic generated by gendef
; written by Kai Tietz 2008-2014
;
LIBRARY "UXLIB.DLL"
EXPORTS
??0?$CSimpleArray@PAU_BLOCKED_REASON@@V?$CSimpleArrayEqualHelper@PAU_BLOCKED_REASON@@@ATL@@@ATL@@QAA@ABV01@@Z
??0?$CSimpleArray@PAU_BLOCKED_REASON@@V?$CSimpleArrayEqualHelper@PAU_BLOCKED_REASON@@@ATL@@@ATL@@QAA@XZ
??0?$CSimpleArray@PAVCLocale@@V?$CSimpleArrayEqualHelper@PAVCLocale@@@ATL@@@ATL@@QAA@ABV01@@Z
??0?$CSimpleArray@PAVCLocale@@V?$CSimpleArrayEqualHelper@PAVCLocale@@@ATL@@@ATL@@QAA@XZ
??0?$CSimpleArray@VCDriverItem@@V?$CSimpleArrayEqualHelper@VCDriverItem@@@ATL@@@ATL@@QAA@ABV01@@Z
??0?$CSimpleArray@VCDriverItem@@V?$CSimpleArrayEqualHelper@VCDriverItem@@@ATL@@@ATL@@QAA@XZ
??0?$CSimpleArray@VCLanguageItem@@V?$CSimpleArrayEqualHelper@VCLanguageItem@@@ATL@@@ATL@@QAA@ABV01@@Z
??0?$CSimpleArray@VCLanguageItem@@V?$CSimpleArrayEqualHelper@VCLanguageItem@@@ATL@@@ATL@@QAA@XZ
??0?$CSimpleStringT@G$0A@@ATL@@QAA@ABV01@@Z
??0?$CSimpleStringT@G$0A@@ATL@@QAA@ABV?$CSimpleStringT@G$00@1@@Z
??0?$CSimpleStringT@G$0A@@ATL@@QAA@PAUIAtlStringMgr@1@@Z
??0?$CSimpleStringT@G$0A@@ATL@@QAA@PBGHPAUIAtlStringMgr@1@@Z
??0?$CSimpleStringT@G$0A@@ATL@@QAA@PBGPAUIAtlStringMgr@1@@Z
??0?$CStringT@GV?$StrTraitATL@GV?$ChTraitsCRT@G@ATL@@@ATL@@@ATL@@QAA@ABUtagVARIANT@@@Z
??0?$CStringT@GV?$StrTraitATL@GV?$ChTraitsCRT@G@ATL@@@ATL@@@ATL@@QAA@ABUtagVARIANT@@PAUIAtlStringMgr@1@@Z
??0?$CStringT@GV?$StrTraitATL@GV?$ChTraitsCRT@G@ATL@@@ATL@@@ATL@@QAA@ABV01@@Z
??0?$CStringT@GV?$StrTraitATL@GV?$ChTraitsCRT@G@ATL@@@ATL@@@ATL@@QAA@DH@Z
??0?$CStringT@GV?$StrTraitATL@GV?$ChTraitsCRT@G@ATL@@@ATL@@@ATL@@QAA@GH@Z
??0?$CStringT@GV?$StrTraitATL@GV?$ChTraitsCRT@G@ATL@@@ATL@@@ATL@@QAA@PAUIAtlStringMgr@1@@Z
??0?$CStringT@GV?$StrTraitATL@GV?$ChTraitsCRT@G@ATL@@@ATL@@@ATL@@QAA@PBD@Z
??0?$CStringT@GV?$StrTraitATL@GV?$ChTraitsCRT@G@ATL@@@ATL@@@ATL@@QAA@PBDH@Z
??0?$CStringT@GV?$StrTraitATL@GV?$ChTraitsCRT@G@ATL@@@ATL@@@ATL@@QAA@PBDHPAUIAtlStringMgr@1@@Z
??0?$CStringT@GV?$StrTraitATL@GV?$ChTraitsCRT@G@ATL@@@ATL@@@ATL@@QAA@PBDPAUIAtlStringMgr@1@@Z
??0?$CStringT@GV?$StrTraitATL@GV?$ChTraitsCRT@G@ATL@@@ATL@@@ATL@@QAA@PBE@Z
??0?$CStringT@GV?$StrTraitATL@GV?$ChTraitsCRT@G@ATL@@@ATL@@@ATL@@QAA@PBEPAUIAtlStringMgr@1@@Z
??0?$CStringT@GV?$StrTraitATL@GV?$ChTraitsCRT@G@ATL@@@ATL@@@ATL@@QAA@PBG@Z
??0?$CStringT@GV?$StrTraitATL@GV?$ChTraitsCRT@G@ATL@@@ATL@@@ATL@@QAA@PBGH@Z
??0?$CStringT@GV?$StrTraitATL@GV?$ChTraitsCRT@G@ATL@@@ATL@@@ATL@@QAA@PBGHPAUIAtlStringMgr@1@@Z
??0?$CStringT@GV?$StrTraitATL@GV?$ChTraitsCRT@G@ATL@@@ATL@@@ATL@@QAA@PBGPAUIAtlStringMgr@1@@Z
??0?$CStringT@GV?$StrTraitATL@GV?$ChTraitsCRT@G@ATL@@@ATL@@@ATL@@QAA@XZ
??0CImageData@@AAA@XZ
??0CImageData@@QAA@ABV0@@Z
??0CInternationalUtils@@QAA@XZ
??0CKeyboardLayout@@QAA@ABV0@@Z
??0CKeyboardLayout@@QAA@V?$CStringT@GV?$StrTraitATL@GV?$ChTraitsCRT@G@ATL@@@ATL@@@ATL@@0@Z
??0CKeyboardLayouts@@QAA@ABV0@@Z
??0CKeyboardLayouts@@QAA@XZ
??0CLanguage@@QAA@ABV0@@Z
??0CLanguage@@QAA@V?$CStringT@GV?$StrTraitATL@GV?$ChTraitsCRT@G@ATL@@@ATL@@@ATL@@000@Z
??0CLanguages@@QAA@ABV0@@Z
??0CLanguages@@QAA@XZ
??0CLayeredDriver@@QAA@ABV0@@Z
??0CLayeredDriver@@QAA@V?$CStringT@GV?$StrTraitATL@GV?$ChTraitsCRT@G@ATL@@@ATL@@@ATL@@0@Z
??0CLayeredDrivers@@QAA@ABV0@@Z
??0CLayeredDrivers@@QAA@XZ
??0CLoadDriver@@AAA@XZ
??0CLoadDriver@@QAA@ABV0@@Z
??0CLocale@@QAA@ABV0@@Z
??0CLocale@@QAA@V?$CStringT@GV?$StrTraitATL@GV?$ChTraitsCRT@G@ATL@@@ATL@@@ATL@@0@Z
??0CLocales@@QAA@ABV0@@Z
??0CLocales@@QAA@XZ
??0COSK@@QAA@XZ
??0CProductKeyModule@@QAA@ABV0@@Z
??0CProductKeyModule@@QAA@XZ
??0IImageData@@QAA@ABV0@@Z
??0IImageData@@QAA@XZ
??0IProductKeyModule@@QAA@ABV0@@Z
??0IProductKeyModule@@QAA@XZ
??0MyUtilString@@QAA@XZ
??0PIDUtilStringView@@QAA@ABV0@@Z
??0PIDUtilStringView@@QAA@XZ
??1?$CSimpleArray@PAU_BLOCKED_REASON@@V?$CSimpleArrayEqualHelper@PAU_BLOCKED_REASON@@@ATL@@@ATL@@QAA@XZ
??1?$CSimpleArray@PAVCLocale@@V?$CSimpleArrayEqualHelper@PAVCLocale@@@ATL@@@ATL@@QAA@XZ
??1?$CSimpleArray@VCDriverItem@@V?$CSimpleArrayEqualHelper@VCDriverItem@@@ATL@@@ATL@@QAA@XZ
??1?$CSimpleArray@VCLanguageItem@@V?$CSimpleArrayEqualHelper@VCLanguageItem@@@ATL@@@ATL@@QAA@XZ
??1?$CSimpleStringT@G$0A@@ATL@@QAA@XZ
??1?$CStringT@GV?$StrTraitATL@GV?$ChTraitsCRT@G@ATL@@@ATL@@@ATL@@QAA@XZ
??1CImageData@@EAA@XZ
??1CInternationalUtils@@QAA@XZ
??1CKeyboardLayout@@QAA@XZ
??1CKeyboardLayouts@@QAA@XZ
??1CLanguage@@QAA@XZ
??1CLanguages@@QAA@XZ
??1CLayeredDriver@@QAA@XZ
??1CLayeredDrivers@@QAA@XZ
??1CLoadDriver@@EAA@XZ
??1CLocale@@QAA@XZ
??1CLocales@@QAA@XZ
??1COSK@@QAA@XZ
??1PIDUtilStringView@@UAA@XZ
??4?$CSimpleArray@PAU_BLOCKED_REASON@@V?$CSimpleArrayEqualHelper@PAU_BLOCKED_REASON@@@ATL@@@ATL@@QAAAAV01@ABV01@@Z
??4?$CSimpleArray@PAVCLocale@@V?$CSimpleArrayEqualHelper@PAVCLocale@@@ATL@@@ATL@@QAAAAV01@ABV01@@Z
??4?$CSimpleArray@VCDriverItem@@V?$CSimpleArrayEqualHelper@VCDriverItem@@@ATL@@@ATL@@QAAAAV01@ABV01@@Z
??4?$CSimpleArray@VCLanguageItem@@V?$CSimpleArrayEqualHelper@VCLanguageItem@@@ATL@@@ATL@@QAAAAV01@ABV01@@Z
??4?$CSimpleStringT@G$0A@@ATL@@QAAAAV01@ABV01@@Z
??4?$CSimpleStringT@G$0A@@ATL@@QAAAAV01@ABV?$CSimpleStringT@G$00@1@@Z
??4?$CSimpleStringT@G$0A@@ATL@@QAAAAV01@PBG@Z
??4?$CStringT@GV?$StrTraitATL@GV?$ChTraitsCRT@G@ATL@@@ATL@@@ATL@@QAAAAV01@ABUtagVARIANT@@@Z
??4?$CStringT@GV?$StrTraitATL@GV?$ChTraitsCRT@G@ATL@@@ATL@@@ATL@@QAAAAV01@ABV01@@Z
??4?$CStringT@GV?$StrTraitATL@GV?$ChTraitsCRT@G@ATL@@@ATL@@@ATL@@QAAAAV01@D@Z
??4?$CStringT@GV?$StrTraitATL@GV?$ChTraitsCRT@G@ATL@@@ATL@@@ATL@@QAAAAV01@G@Z
??4?$CStringT@GV?$StrTraitATL@GV?$ChTraitsCRT@G@ATL@@@ATL@@@ATL@@QAAAAV01@PBD@Z
??4?$CStringT@GV?$StrTraitATL@GV?$ChTraitsCRT@G@ATL@@@ATL@@@ATL@@QAAAAV01@PBE@Z
??4?$CStringT@GV?$StrTraitATL@GV?$ChTraitsCRT@G@ATL@@@ATL@@@ATL@@QAAAAV01@PBG@Z
??4CImageData@@QAAAAV0@ABV0@@Z
??4CInternationalUtils@@QAAAAV0@ABV0@@Z
??4CKeyboardLayout@@QAAAAV0@ABV0@@Z
??4CKeyboardLayouts@@QAAAAV0@ABV0@@Z
??4CLanguage@@QAAAAV0@ABV0@@Z
??4CLanguages@@QAAAAV0@ABV0@@Z
??4CLayeredDriver@@QAAAAV0@ABV0@@Z
??4CLayeredDrivers@@QAAAAV0@ABV0@@Z
??4CLoadDriver@@QAAAAV0@ABV0@@Z
??4CLocale@@QAAAAV0@ABV0@@Z
??4CLocales@@QAAAAV0@ABV0@@Z
??4COSK@@QAAAAV0@ABV0@@Z
??4CProductKeyModule@@QAAAAV0@ABV0@@Z
??4IImageData@@QAAAAV0@ABV0@@Z
??4IProductKeyModule@@QAAAAV0@ABV0@@Z
??4MyUtilString@@QAAAAV0@ABV0@@Z
??4PIDUtilStringView@@QAAAAV0@ABV0@@Z
??A?$CSimpleArray@PAU_BLOCKED_REASON@@V?$CSimpleArrayEqualHelper@PAU_BLOCKED_REASON@@@ATL@@@ATL@@QAAAAPAU_BLOCKED_REASON@@H@Z
??A?$CSimpleArray@PAU_BLOCKED_REASON@@V?$CSimpleArrayEqualHelper@PAU_BLOCKED_REASON@@@ATL@@@ATL@@QBAABQAU_BLOCKED_REASON@@H@Z
??A?$CSimpleArray@PAVCLocale@@V?$CSimpleArrayEqualHelper@PAVCLocale@@@ATL@@@ATL@@QAAAAPAVCLocale@@H@Z
??A?$CSimpleArray@PAVCLocale@@V?$CSimpleArrayEqualHelper@PAVCLocale@@@ATL@@@ATL@@QBAABQAVCLocale@@H@Z
??A?$CSimpleArray@VCDriverItem@@V?$CSimpleArrayEqualHelper@VCDriverItem@@@ATL@@@ATL@@QAAAAVCDriverItem@@H@Z
??A?$CSimpleArray@VCDriverItem@@V?$CSimpleArrayEqualHelper@VCDriverItem@@@ATL@@@ATL@@QBAABVCDriverItem@@H@Z
??A?$CSimpleArray@VCLanguageItem@@V?$CSimpleArrayEqualHelper@VCLanguageItem@@@ATL@@@ATL@@QAAAAVCLanguageItem@@H@Z
??A?$CSimpleArray@VCLanguageItem@@V?$CSimpleArrayEqualHelper@VCLanguageItem@@@ATL@@@ATL@@QBAABVCLanguageItem@@H@Z
??A?$CSimpleStringT@G$0A@@ATL@@QBAGH@Z
??ACImageData@@UAAAAVCLanguageItem@@I@Z
??ACKeyboardLayouts@@UAA?AVCKeyboardLayout@@H@Z
??ACLanguages@@UAA?AVCLanguage@@H@Z
??ACLayeredDrivers@@UAA?AVCLayeredDriver@@H@Z
??ACLoadDriver@@UAAAAVCDriverItem@@I@Z
??ACLocales@@UAA?AVCLocale@@H@Z
??B?$CSimpleStringT@G$0A@@ATL@@QAAAAV?$CSimpleStringT@G$00@1@XZ
??B?$CSimpleStringT@G$0A@@ATL@@QBAPBGXZ
??B?$CStringT@GV?$StrTraitATL@GV?$ChTraitsCRT@G@ATL@@@ATL@@@ATL@@QAAAAV?$CSimpleStringT@G$00@1@XZ
??Y?$CSimpleStringT@G$0A@@ATL@@QAAAAV01@ABV01@@Z
??Y?$CSimpleStringT@G$0A@@ATL@@QAAAAV01@D@Z
??Y?$CSimpleStringT@G$0A@@ATL@@QAAAAV01@E@Z
??Y?$CSimpleStringT@G$0A@@ATL@@QAAAAV01@G@Z
??Y?$CSimpleStringT@G$0A@@ATL@@QAAAAV01@PBG@Z
??Y?$CStringT@GV?$StrTraitATL@GV?$ChTraitsCRT@G@ATL@@@ATL@@@ATL@@QAAAAV01@ABUtagVARIANT@@@Z
??Y?$CStringT@GV?$StrTraitATL@GV?$ChTraitsCRT@G@ATL@@@ATL@@@ATL@@QAAAAV01@ABV?$CSimpleStringT@G$0A@@1@@Z
??Y?$CStringT@GV?$StrTraitATL@GV?$ChTraitsCRT@G@ATL@@@ATL@@@ATL@@QAAAAV01@D@Z
??Y?$CStringT@GV?$StrTraitATL@GV?$ChTraitsCRT@G@ATL@@@ATL@@@ATL@@QAAAAV01@E@Z
??Y?$CStringT@GV?$StrTraitATL@GV?$ChTraitsCRT@G@ATL@@@ATL@@@ATL@@QAAAAV01@G@Z
??Y?$CStringT@GV?$StrTraitATL@GV?$ChTraitsCRT@G@ATL@@@ATL@@@ATL@@QAAAAV01@PBD@Z
??Y?$CStringT@GV?$StrTraitATL@GV?$ChTraitsCRT@G@ATL@@@ATL@@@ATL@@QAAAAV01@PBG@Z
??_7CImageData@@6B@ DATA
??_7CKeyboardLayouts@@6B@ DATA
??_7CLanguages@@6B@ DATA
??_7CLayeredDrivers@@6B@ DATA
??_7CLoadDriver@@6B@ DATA
??_7CLocales@@6B@ DATA
??_7CProductKeyModule@@6B@ DATA
??_7IImageData@@6B@ DATA
??_7IProductKeyModule@@6B@ DATA
??_7PIDUtilStringView@@6B@ DATA
?Add@?$CSimpleArray@PAU_BLOCKED_REASON@@V?$CSimpleArrayEqualHelper@PAU_BLOCKED_REASON@@@ATL@@@ATL@@QAAHABQAU_BLOCKED_REASON@@@Z
?Add@?$CSimpleArray@PAVCLocale@@V?$CSimpleArrayEqualHelper@PAVCLocale@@@ATL@@@ATL@@QAAHABQAVCLocale@@@Z
?Add@?$CSimpleArray@VCDriverItem@@V?$CSimpleArrayEqualHelper@VCDriverItem@@@ATL@@@ATL@@QAAHABVCDriverItem@@@Z
?Add@?$CSimpleArray@VCLanguageItem@@V?$CSimpleArrayEqualHelper@VCLanguageItem@@@ATL@@@ATL@@QAAHABVCLanguageItem@@@Z
?AllocSysString@?$CStringT@GV?$StrTraitATL@GV?$ChTraitsCRT@G@ATL@@@ATL@@@ATL@@QBAPAGXZ
?Append@?$CSimpleStringT@G$0A@@ATL@@QAAXABV12@@Z
?Append@?$CSimpleStringT@G$0A@@ATL@@QAAXPBG@Z
?Append@?$CSimpleStringT@G$0A@@ATL@@QAAXPBGH@Z
?AppendChar@?$CSimpleStringT@G$0A@@ATL@@QAAXG@Z
?AppendFormat@?$CStringT@GV?$StrTraitATL@GV?$ChTraitsCRT@G@ATL@@@ATL@@@ATL@@QAAXIZZ
?AppendFormat@?$CStringT@GV?$StrTraitATL@GV?$ChTraitsCRT@G@ATL@@@ATL@@@ATL@@QAAXPBGZZ
?AppendFormatV@?$CStringT@GV?$StrTraitATL@GV?$ChTraitsCRT@G@ATL@@@ATL@@@ATL@@QAAXPBGPAD@Z
?Attach@?$CSimpleStringT@G$0A@@ATL@@AAAXPAUCStringData@2@@Z
?CanReadMedia@CLoadDriver@@UAAHXZ
?CharToOemA@?$CStringT@GV?$StrTraitATL@GV?$ChTraitsCRT@G@ATL@@@ATL@@@ATL@@QAAXXZ
?CheckImplicitLoad@?$CStringT@GV?$StrTraitATL@GV?$ChTraitsCRT@G@ATL@@@ATL@@@ATL@@AAA_NPBX@Z
?ClearDriverList@CLoadDriver@@UAAXXZ
?ClearString@MyUtilString@@QAAXXZ
?ClearString@PIDUtilStringView@@QAAXXZ
?CloneData@?$CSimpleStringT@G$0A@@ATL@@CAPAUCStringData@2@PAU32@@Z
?CloseOSK@COSK@@QAAHPAX@Z
?Collate@?$CStringT@GV?$StrTraitATL@GV?$ChTraitsCRT@G@ATL@@@ATL@@@ATL@@QBAHPBG@Z
?CollateNoCase@?$CStringT@GV?$StrTraitATL@GV?$ChTraitsCRT@G@ATL@@@ATL@@@ATL@@QBAHPBG@Z
?Compare@?$CStringT@GV?$StrTraitATL@GV?$ChTraitsCRT@G@ATL@@@ATL@@@ATL@@QBAHPBG@Z
?CompareNoCase@?$CStringT@GV?$StrTraitATL@GV?$ChTraitsCRT@G@ATL@@@ATL@@@ATL@@QBAHPBG@Z
?Concatenate@?$CSimpleStringT@G$0A@@ATL@@KAXAAV12@PBGH1H@Z
?Construct@?$CStringT@GV?$StrTraitATL@GV?$ChTraitsCRT@G@ATL@@@ATL@@@ATL@@SAXPAV12@@Z
?CopyChars@?$CSimpleStringT@G$0A@@ATL@@SAXPAGIPBGH@Z
?CopyChars@?$CSimpleStringT@G$0A@@ATL@@SAXPAGPBGH@Z
?CopyCharsOverlapped@?$CSimpleStringT@G$0A@@ATL@@SAXPAGIPBGH@Z
?CopyCharsOverlapped@?$CSimpleStringT@G$0A@@ATL@@SAXPAGPBGH@Z
?Delete@?$CStringT@GV?$StrTraitATL@GV?$ChTraitsCRT@G@ATL@@@ATL@@@ATL@@QAAHHH@Z
?Empty@?$CSimpleStringT@G$0A@@ATL@@QAAXXZ
?Find@?$CSimpleArray@PAU_BLOCKED_REASON@@V?$CSimpleArrayEqualHelper@PAU_BLOCKED_REASON@@@ATL@@@ATL@@QBAHABQAU_BLOCKED_REASON@@@Z
?Find@?$CSimpleArray@PAVCLocale@@V?$CSimpleArrayEqualHelper@PAVCLocale@@@ATL@@@ATL@@QBAHABQAVCLocale@@@Z
?Find@?$CSimpleArray@VCDriverItem@@V?$CSimpleArrayEqualHelper@VCDriverItem@@@ATL@@@ATL@@QBAHABVCDriverItem@@@Z
?Find@?$CSimpleArray@VCLanguageItem@@V?$CSimpleArrayEqualHelper@VCLanguageItem@@@ATL@@@ATL@@QBAHABVCLanguageItem@@@Z
?Find@?$CStringT@GV?$StrTraitATL@GV?$ChTraitsCRT@G@ATL@@@ATL@@@ATL@@QBAHGH@Z
?Find@?$CStringT@GV?$StrTraitATL@GV?$ChTraitsCRT@G@ATL@@@ATL@@@ATL@@QBAHPBGH@Z
?FindOneOf@?$CStringT@GV?$StrTraitATL@GV?$ChTraitsCRT@G@ATL@@@ATL@@@ATL@@QBAHPBG@Z
?Fork@?$CSimpleStringT@G$0A@@ATL@@AAAXH@Z
?Format@?$CStringT@GV?$StrTraitATL@GV?$ChTraitsCRT@G@ATL@@@ATL@@@ATL@@QAAXIZZ
?Format@?$CStringT@GV?$StrTraitATL@GV?$ChTraitsCRT@G@ATL@@@ATL@@@ATL@@QAAXPBGZZ
?FormatMessageV@?$CStringT@GV?$StrTraitATL@GV?$ChTraitsCRT@G@ATL@@@ATL@@@ATL@@QAAXPBGPAPAD@Z
?FormatMessageW@?$CStringT@GV?$StrTraitATL@GV?$ChTraitsCRT@G@ATL@@@ATL@@@ATL@@QAAXIZZ
?FormatMessageW@?$CStringT@GV?$StrTraitATL@GV?$ChTraitsCRT@G@ATL@@@ATL@@@ATL@@QAAXPBGZZ
?FormatV@?$CStringT@GV?$StrTraitATL@GV?$ChTraitsCRT@G@ATL@@@ATL@@@ATL@@QAAXPBGPAD@Z
?FreeExtra@?$CSimpleStringT@G$0A@@ATL@@QAAXXZ
?FreeInstance@CImageData@@UAAXXZ
?GetAbbrevName@CLanguage@@QAA?AV?$CStringT@GV?$StrTraitATL@GV?$ChTraitsCRT@G@ATL@@@ATL@@@ATL@@XZ
?GetAbbrevName@CLocale@@QAA?AV?$CStringT@GV?$StrTraitATL@GV?$ChTraitsCRT@G@ATL@@@ATL@@@ATL@@XZ
?GetAllocLength@?$CSimpleStringT@G$0A@@ATL@@QBAHXZ
?GetAt@?$CSimpleStringT@G$0A@@ATL@@QBAGH@Z
?GetBuffer@?$CSimpleStringT@G$0A@@ATL@@QAAPAGH@Z
?GetBuffer@?$CSimpleStringT@G$0A@@ATL@@QAAPAGXZ
?GetBufferSetLength@?$CSimpleStringT@G$0A@@ATL@@QAAPAGH@Z
?GetColumnDataAtIndex@CImageData@@UAAPAGI@Z
?GetCount@CImageData@@UAAIXZ
?GetCount@CLoadDriver@@UAAIXZ
?GetData@?$CSimpleArray@PAU_BLOCKED_REASON@@V?$CSimpleArrayEqualHelper@PAU_BLOCKED_REASON@@@ATL@@@ATL@@QBAPAPAU_BLOCKED_REASON@@XZ
?GetData@?$CSimpleArray@PAVCLocale@@V?$CSimpleArrayEqualHelper@PAVCLocale@@@ATL@@@ATL@@QBAPAPAVCLocale@@XZ
?GetData@?$CSimpleArray@VCDriverItem@@V?$CSimpleArrayEqualHelper@VCDriverItem@@@ATL@@@ATL@@QBAPAVCDriverItem@@XZ
?GetData@?$CSimpleArray@VCLanguageItem@@V?$CSimpleArrayEqualHelper@VCLanguageItem@@@ATL@@@ATL@@QBAPAVCLanguageItem@@XZ
?GetData@?$CSimpleStringT@G$0A@@ATL@@ABAPAUCStringData@2@XZ
?GetDefault@CLoadDriver@@UAAHXZ
?GetDefaultFallbackLanguage@CLanguages@@UAA?AVCLanguage@@XZ
?GetDefaultLanguage@CImageData@@UAAPAGXZ
?GetDefaultLayout@CKeyboardLayouts@@QAA?AVCKeyboardLayout@@XZ
?GetDescription@CImageData@@UAAPAGXZ
?GetDriverListAsync@CLoadDriver@@UAAHV?$CStringT@GV?$StrTraitATL@GV?$ChTraitsCRT@G@ATL@@@ATL@@@ATL@@HP6AXPAXH@Z1@Z
?GetEditionName@CImageData@@UAAPAGXZ
?GetEnvironmentVariableW@?$CStringT@GV?$StrTraitATL@GV?$ChTraitsCRT@G@ATL@@@ATL@@@ATL@@QAAHPBG@Z
?GetFoundationFlag@CImageData@@UAAHXZ
?GetHardwareFilter@CLoadDriver@@UAAHXZ
?GetID@CLayeredDriver@@QAA?AV?$CStringT@GV?$StrTraitATL@GV?$ChTraitsCRT@G@ATL@@@ATL@@@ATL@@XZ
?GetImageIdentifier@CImageData@@UAAPAGXZ
?GetInstance@CImageData@@SAPAVIImageData@@XZ
?GetInstance@CLoadDriver@@SAPAVILoadDriver@@XZ
?GetKeyboard@CInternationalUtils@@SA?AV?$CStringT@GV?$StrTraitATL@GV?$ChTraitsCRT@G@ATL@@@ATL@@@ATL@@XZ
?GetLanguage@CInternationalUtils@@SA?AV?$CStringT@GV?$StrTraitATL@GV?$ChTraitsCRT@G@ATL@@@ATL@@@ATL@@XZ
?GetLanguage@CLanguages@@UAA?AVCLanguage@@H@Z
?GetLanguageCount@CLanguages@@UAAHXZ
?GetLanguageFromLocalizedName@CLanguages@@UAA?AVCLanguage@@V?$CStringT@GV?$StrTraitATL@GV?$ChTraitsCRT@G@ATL@@@ATL@@@ATL@@@Z
?GetLanguageFromNativeDisplayName@CLanguages@@UAA?AVCLanguage@@V?$CStringT@GV?$StrTraitATL@GV?$ChTraitsCRT@G@ATL@@@ATL@@@ATL@@@Z
?GetLanguageFromNativeName@CLanguages@@UAA?AVCLanguage@@V?$CStringT@GV?$StrTraitATL@GV?$ChTraitsCRT@G@ATL@@@ATL@@@ATL@@@Z
?GetLanguageNativeDisplayNameCount@CLanguages@@QAAHXZ
?GetLayeredDriver@CLayeredDrivers@@UAA?AVCLayeredDriver@@H@Z
?GetLayeredDriver@CLayeredDrivers@@UAA?AVCLayeredDriver@@V?$CStringT@GV?$StrTraitATL@GV?$ChTraitsCRT@G@ATL@@@ATL@@@ATL@@@Z
?GetLayeredDriverCount@CLayeredDrivers@@UAAHXZ
?GetLayout@CKeyboardLayouts@@UAA?AVCKeyboardLayout@@H@Z
?GetLayout@CKeyboardLayouts@@UAA?AVCKeyboardLayout@@V?$CStringT@GV?$StrTraitATL@GV?$ChTraitsCRT@G@ATL@@@ATL@@@ATL@@@Z
?GetLayoutCount@CKeyboardLayouts@@UAAHXZ
?GetLayoutID@CKeyboardLayout@@QAA?AV?$CStringT@GV?$StrTraitATL@GV?$ChTraitsCRT@G@ATL@@@ATL@@@ATL@@XZ
?GetLayoutName@CKeyboardLayout@@QAA?AV?$CStringT@GV?$StrTraitATL@GV?$ChTraitsCRT@G@ATL@@@ATL@@@ATL@@XZ
?GetLength@?$CSimpleStringT@G$0A@@ATL@@QBAHXZ
?GetLocale@CInternationalUtils@@SA?AV?$CStringT@GV?$StrTraitATL@GV?$ChTraitsCRT@G@ATL@@@ATL@@@ATL@@XZ
?GetLocale@CLocales@@UAA?AVCLocale@@H@Z
?GetLocale@CLocales@@UAA?AVCLocale@@V?$CStringT@GV?$StrTraitATL@GV?$ChTraitsCRT@G@ATL@@@ATL@@@ATL@@@Z
?GetLocaleCount@CLocales@@UAAHXZ
?GetLocaleName@CLocale@@QAA?AV?$CStringT@GV?$StrTraitATL@GV?$ChTraitsCRT@G@ATL@@@ATL@@@ATL@@XZ
?GetLocalizedName@CLanguage@@QAA?AV?$CStringT@GV?$StrTraitATL@GV?$ChTraitsCRT@G@ATL@@@ATL@@@ATL@@XZ
?GetManager@?$CSimpleStringT@G$0A@@ATL@@QBAPAUIAtlStringMgr@2@XZ
?GetManager@?$CStringT@GV?$StrTraitATL@GV?$ChTraitsCRT@G@ATL@@@ATL@@@ATL@@QBAPAUIAtlStringMgr@2@XZ
?GetName@CLayeredDriver@@QAA?AV?$CStringT@GV?$StrTraitATL@GV?$ChTraitsCRT@G@ATL@@@ATL@@@ATL@@XZ
?GetNativeDisplayName@CLanguage@@QAA?AV?$CStringT@GV?$StrTraitATL@GV?$ChTraitsCRT@G@ATL@@@ATL@@@ATL@@XZ
?GetNativeName@CLanguage@@QAA?AV?$CStringT@GV?$StrTraitATL@GV?$ChTraitsCRT@G@ATL@@@ATL@@@ATL@@XZ
?GetPidStr@PIDUtilStringView@@QAAPBGXZ
?GetShowFlag@CProductKeyModule@@UAAHXZ
?GetShowFlagEarlyF6@CLoadDriver@@UAAHXZ
?GetShowLangKeyboard@CInternationalUtils@@SAHXZ
?GetShowLangNeutral@CInternationalUtils@@SAHXZ
?GetSize@?$CSimpleArray@PAU_BLOCKED_REASON@@V?$CSimpleArrayEqualHelper@PAU_BLOCKED_REASON@@@ATL@@@ATL@@QBAHXZ
?GetSize@?$CSimpleArray@PAVCLocale@@V?$CSimpleArrayEqualHelper@PAVCLocale@@@ATL@@@ATL@@QBAHXZ
?GetSize@?$CSimpleArray@VCDriverItem@@V?$CSimpleArrayEqualHelper@VCDriverItem@@@ATL@@@ATL@@QBAHXZ
?GetSize@?$CSimpleArray@VCLanguageItem@@V?$CSimpleArrayEqualHelper@VCLanguageItem@@@ATL@@@ATL@@QBAHXZ
?GetString@?$CSimpleStringT@G$0A@@ATL@@QBAPBGXZ
?GetString@MyUtilString@@QAAPBGXZ
?Initialize@CImageData@@UAAHPAX@Z
?Initialize@CKeyboardLayouts@@UAAHV?$CStringT@GV?$StrTraitATL@GV?$ChTraitsCRT@G@ATL@@@ATL@@@ATL@@0@Z
?Initialize@CLanguages@@UAAHXZ
?Initialize@CLayeredDrivers@@UAAHV?$CStringT@GV?$StrTraitATL@GV?$ChTraitsCRT@G@ATL@@@ATL@@@ATL@@0@Z
?Initialize@CLoadDriver@@UAAHPAX@Z
?Initialize@CLocales@@UAAHV?$CStringT@GV?$StrTraitATL@GV?$ChTraitsCRT@G@ATL@@@ATL@@@ATL@@@Z
?Initialize@CProductKeyModule@@UAAHPAX@Z
?Insert@?$CStringT@GV?$StrTraitATL@GV?$ChTraitsCRT@G@ATL@@@ATL@@@ATL@@QAAHHG@Z
?Insert@?$CStringT@GV?$StrTraitATL@GV?$ChTraitsCRT@G@ATL@@@ATL@@@ATL@@QAAHHPBG@Z
?InsertChar@MyUtilString@@QAAHHG@Z
?InsertString@MyUtilString@@QAAHHPBG@Z
?InsertString@PIDUtilStringView@@QAAHHPBG@Z
?InstallDriver@CLoadDriver@@UAAHJP6AXPAXH@Z0@Z
?InternalSetAtIndex@?$CSimpleArray@PAU_BLOCKED_REASON@@V?$CSimpleArrayEqualHelper@PAU_BLOCKED_REASON@@@ATL@@@ATL@@QAAXHABQAU_BLOCKED_REASON@@@Z
?InternalSetAtIndex@?$CSimpleArray@PAVCLocale@@V?$CSimpleArrayEqualHelper@PAVCLocale@@@ATL@@@ATL@@QAAXHABQAVCLocale@@@Z
?InternalSetAtIndex@?$CSimpleArray@VCDriverItem@@V?$CSimpleArrayEqualHelper@VCDriverItem@@@ATL@@@ATL@@QAAXHABVCDriverItem@@@Z
?InternalSetAtIndex@?$CSimpleArray@VCLanguageItem@@V?$CSimpleArrayEqualHelper@VCLanguageItem@@@ATL@@@ATL@@QAAXHABVCLanguageItem@@@Z
?IsDigitalMarkerKeyValid@CProductKeyModule@@AAAHXZ
?IsEmpty@?$CSimpleStringT@G$0A@@ATL@@QBA_NXZ
?IsLanguageEnabled@CInternationalUtils@@SAHV?$CStringT@GV?$StrTraitATL@GV?$ChTraitsCRT@G@ATL@@@ATL@@@ATL@@0@Z
?IsVolumeLicensingKeyValid@CProductKeyModule@@AAAHXZ
?Left@?$CStringT@GV?$StrTraitATL@GV?$ChTraitsCRT@G@ATL@@@ATL@@@ATL@@QBA?AV12@H@Z
?LoadStringW@?$CStringT@GV?$StrTraitATL@GV?$ChTraitsCRT@G@ATL@@@ATL@@@ATL@@QAAHI@Z
?LoadStringW@?$CStringT@GV?$StrTraitATL@GV?$ChTraitsCRT@G@ATL@@@ATL@@@ATL@@QAAHPAUHINSTANCE__@@I@Z
?LoadStringW@?$CStringT@GV?$StrTraitATL@GV?$ChTraitsCRT@G@ATL@@@ATL@@@ATL@@QAAHPAUHINSTANCE__@@IG@Z
?LockBuffer@?$CSimpleStringT@G$0A@@ATL@@QAAPAGXZ
?MakeLower@?$CStringT@GV?$StrTraitATL@GV?$ChTraitsCRT@G@ATL@@@ATL@@@ATL@@QAAAAV12@XZ
?MakeReverse@?$CStringT@GV?$StrTraitATL@GV?$ChTraitsCRT@G@ATL@@@ATL@@@ATL@@QAAAAV12@XZ
?MakeUpper@?$CStringT@GV?$StrTraitATL@GV?$ChTraitsCRT@G@ATL@@@ATL@@@ATL@@QAAAAV12@XZ
?Mid@?$CStringT@GV?$StrTraitATL@GV?$ChTraitsCRT@G@ATL@@@ATL@@@ATL@@QBA?AV12@H@Z
?Mid@?$CStringT@GV?$StrTraitATL@GV?$ChTraitsCRT@G@ATL@@@ATL@@@ATL@@QBA?AV12@HH@Z
?OemToCharA@?$CStringT@GV?$StrTraitATL@GV?$ChTraitsCRT@G@ATL@@@ATL@@@ATL@@QAAXXZ
?OnCallback@CProductKeyModule@@UAAIPBUWDS_DATA@@@Z
?PopulateDriverList@CLoadDriver@@AAAHXZ
?PopulateImageData@CImageData@@UAAHPBGPAGHPAUHINSTANCE__@@@Z
?Preallocate@?$CSimpleStringT@G$0A@@ATL@@QAAXH@Z
?PrepareWrite2@?$CSimpleStringT@G$0A@@ATL@@AAAXH@Z
?PrepareWrite@?$CSimpleStringT@G$0A@@ATL@@AAAPAGH@Z
?PublishLanguageGatherEvent@CInternationalUtils@@SAJPAX@Z
?Reallocate@?$CSimpleStringT@G$0A@@ATL@@AAAXH@Z
?ReleaseBuffer@?$CSimpleStringT@G$0A@@ATL@@QAAXH@Z
?ReleaseBufferSetLength@?$CSimpleStringT@G$0A@@ATL@@QAAXH@Z
?Remove@?$CSimpleArray@PAU_BLOCKED_REASON@@V?$CSimpleArrayEqualHelper@PAU_BLOCKED_REASON@@@ATL@@@ATL@@QAAHABQAU_BLOCKED_REASON@@@Z
?Remove@?$CSimpleArray@PAVCLocale@@V?$CSimpleArrayEqualHelper@PAVCLocale@@@ATL@@@ATL@@QAAHABQAVCLocale@@@Z
?Remove@?$CSimpleArray@VCDriverItem@@V?$CSimpleArrayEqualHelper@VCDriverItem@@@ATL@@@ATL@@QAAHABVCDriverItem@@@Z
?Remove@?$CSimpleArray@VCLanguageItem@@V?$CSimpleArrayEqualHelper@VCLanguageItem@@@ATL@@@ATL@@QAAHABVCLanguageItem@@@Z
?Remove@?$CStringT@GV?$StrTraitATL@GV?$ChTraitsCRT@G@ATL@@@ATL@@@ATL@@QAAHG@Z
?RemoveAll@?$CSimpleArray@PAU_BLOCKED_REASON@@V?$CSimpleArrayEqualHelper@PAU_BLOCKED_REASON@@@ATL@@@ATL@@QAAXXZ
?RemoveAll@?$CSimpleArray@PAVCLocale@@V?$CSimpleArrayEqualHelper@PAVCLocale@@@ATL@@@ATL@@QAAXXZ
?RemoveAll@?$CSimpleArray@VCDriverItem@@V?$CSimpleArrayEqualHelper@VCDriverItem@@@ATL@@@ATL@@QAAXXZ
?RemoveAll@?$CSimpleArray@VCLanguageItem@@V?$CSimpleArrayEqualHelper@VCLanguageItem@@@ATL@@@ATL@@QAAXXZ
?RemoveAt@?$CSimpleArray@PAU_BLOCKED_REASON@@V?$CSimpleArrayEqualHelper@PAU_BLOCKED_REASON@@@ATL@@@ATL@@QAAHH@Z
?RemoveAt@?$CSimpleArray@PAVCLocale@@V?$CSimpleArrayEqualHelper@PAVCLocale@@@ATL@@@ATL@@QAAHH@Z
?RemoveAt@?$CSimpleArray@VCDriverItem@@V?$CSimpleArrayEqualHelper@VCDriverItem@@@ATL@@@ATL@@QAAHH@Z
?RemoveAt@?$CSimpleArray@VCLanguageItem@@V?$CSimpleArrayEqualHelper@VCLanguageItem@@@ATL@@@ATL@@QAAHH@Z
?RemoveChar@MyUtilString@@QAAHH@Z
?RemoveString@MyUtilString@@QAAHHH@Z
?RemoveString@PIDUtilStringView@@QAAHHHH@Z
?Replace@?$CStringT@GV?$StrTraitATL@GV?$ChTraitsCRT@G@ATL@@@ATL@@@ATL@@QAAHGG@Z
?Replace@?$CStringT@GV?$StrTraitATL@GV?$ChTraitsCRT@G@ATL@@@ATL@@@ATL@@QAAHPBG0@Z
?ReplaceString@PIDUtilStringView@@QAAHHHPBG@Z
?ReverseFind@?$CStringT@GV?$StrTraitATL@GV?$ChTraitsCRT@G@ATL@@@ATL@@@ATL@@QBAHG@Z
?Right@?$CStringT@GV?$StrTraitATL@GV?$ChTraitsCRT@G@ATL@@@ATL@@@ATL@@QBA?AV12@H@Z
?SetActivation@CProductKeyModule@@UAAHK@Z
?SetAt@?$CSimpleStringT@G$0A@@ATL@@QAAXHG@Z
?SetAtIndex@?$CSimpleArray@PAU_BLOCKED_REASON@@V?$CSimpleArrayEqualHelper@PAU_BLOCKED_REASON@@@ATL@@@ATL@@QAAHHABQAU_BLOCKED_REASON@@@Z
?SetAtIndex@?$CSimpleArray@PAVCLocale@@V?$CSimpleArrayEqualHelper@PAVCLocale@@@ATL@@@ATL@@QAAHHABQAVCLocale@@@Z
?SetAtIndex@?$CSimpleArray@VCDriverItem@@V?$CSimpleArrayEqualHelper@VCDriverItem@@@ATL@@@ATL@@QAAHHABVCDriverItem@@@Z
?SetAtIndex@?$CSimpleArray@VCLanguageItem@@V?$CSimpleArrayEqualHelper@VCLanguageItem@@@ATL@@@ATL@@QAAHHABVCLanguageItem@@@Z
?SetEditionName@CImageData@@UAAXPAG@Z
?SetFoundationFlag@CImageData@@UAAXH@Z
?SetHardwareFilter@CLoadDriver@@UAAHH@Z
?SetHideOOBELang@CInternationalUtils@@SAHV?$CStringT@GV?$StrTraitATL@GV?$ChTraitsCRT@G@ATL@@@ATL@@@ATL@@@Z
?SetInstance@CImageData@@SAXPAVIImageData@@@Z
?SetInstance@CLoadDriver@@SAXPAVILoadDriver@@@Z
?SetLength@?$CSimpleStringT@G$0A@@ATL@@AAAXH@Z
?SetLocale@CLayeredDrivers@@UAAHV?$CStringT@GV?$StrTraitATL@GV?$ChTraitsCRT@G@ATL@@@ATL@@@ATL@@@Z
?SetManager@?$CSimpleStringT@G$0A@@ATL@@QAAXPAUIAtlStringMgr@2@@Z
?SetProductKey@CProductKeyModule@@AAAXV?$CStringT@GV?$StrTraitATL@GV?$ChTraitsCRT@G@ATL@@@ATL@@@ATL@@@Z
?SetString@?$CSimpleStringT@G$0A@@ATL@@QAAXPBG@Z
?SetString@?$CSimpleStringT@G$0A@@ATL@@QAAXPBGH@Z
?SetSysString@?$CStringT@GV?$StrTraitATL@GV?$ChTraitsCRT@G@ATL@@@ATL@@@ATL@@QBAPAGPAPAG@Z
?SetTargetKeyboard@CInternationalUtils@@SAHV?$CStringT@GV?$StrTraitATL@GV?$ChTraitsCRT@G@ATL@@@ATL@@@ATL@@@Z
?SetTargetLanguage@CInternationalUtils@@SAHV?$CStringT@GV?$StrTraitATL@GV?$ChTraitsCRT@G@ATL@@@ATL@@@ATL@@@Z
?SetTargetLayeredDriver@CInternationalUtils@@SAHV?$CStringT@GV?$StrTraitATL@GV?$ChTraitsCRT@G@ATL@@@ATL@@@ATL@@@Z
?SetTargetLocale@CInternationalUtils@@SAHV?$CStringT@GV?$StrTraitATL@GV?$ChTraitsCRT@G@ATL@@@ATL@@@ATL@@@Z
?SetUILanguage@CInternationalUtils@@SAHV?$CStringT@GV?$StrTraitATL@GV?$ChTraitsCRT@G@ATL@@@ATL@@@ATL@@@Z
?SetUILanguage@CKeyboardLayouts@@UAAHV?$CStringT@GV?$StrTraitATL@GV?$ChTraitsCRT@G@ATL@@@ATL@@@ATL@@@Z
?SetUILanguage@CLanguages@@UAAHV?$CStringT@GV?$StrTraitATL@GV?$ChTraitsCRT@G@ATL@@@ATL@@@ATL@@@Z
?SetUILanguage@CLayeredDrivers@@UAAHV?$CStringT@GV?$StrTraitATL@GV?$ChTraitsCRT@G@ATL@@@ATL@@@ATL@@@Z
?SetUILanguage@CLocales@@UAAHV?$CStringT@GV?$StrTraitATL@GV?$ChTraitsCRT@G@ATL@@@ATL@@@ATL@@@Z
?ShowOSK@COSK@@QAAPAXHPAG0@Z
?SpanExcluding@?$CStringT@GV?$StrTraitATL@GV?$ChTraitsCRT@G@ATL@@@ATL@@@ATL@@QBA?AV12@PBG@Z
?SpanIncluding@?$CStringT@GV?$StrTraitATL@GV?$ChTraitsCRT@G@ATL@@@ATL@@@ATL@@QBA?AV12@PBG@Z
?StaticInstallCallback@CLoadDriver@@CAXW4WDS_EVENT_RESULT@@PBUWDS_DATA@@PAX@Z
?StaticScanCallback@CLoadDriver@@CAXW4WDS_EVENT_RESULT@@PBUWDS_DATA@@PAX@Z
?StringLength@?$CSimpleStringT@G$0A@@ATL@@SAHPBD@Z
?StringLength@?$CSimpleStringT@G$0A@@ATL@@SAHPBG@Z
?ThrowMemoryException@?$CSimpleStringT@G$0A@@ATL@@KAXXZ
?Tokenize@?$CStringT@GV?$StrTraitATL@GV?$ChTraitsCRT@G@ATL@@@ATL@@@ATL@@QBA?AV12@PBGAAH@Z
?Trim@?$CStringT@GV?$StrTraitATL@GV?$ChTraitsCRT@G@ATL@@@ATL@@@ATL@@QAAAAV12@G@Z
?Trim@?$CStringT@GV?$StrTraitATL@GV?$ChTraitsCRT@G@ATL@@@ATL@@@ATL@@QAAAAV12@PBG@Z
?Trim@?$CStringT@GV?$StrTraitATL@GV?$ChTraitsCRT@G@ATL@@@ATL@@@ATL@@QAAAAV12@XZ
?TrimLeft@?$CStringT@GV?$StrTraitATL@GV?$ChTraitsCRT@G@ATL@@@ATL@@@ATL@@QAAAAV12@G@Z
?TrimLeft@?$CStringT@GV?$StrTraitATL@GV?$ChTraitsCRT@G@ATL@@@ATL@@@ATL@@QAAAAV12@PBG@Z
?TrimLeft@?$CStringT@GV?$StrTraitATL@GV?$ChTraitsCRT@G@ATL@@@ATL@@@ATL@@QAAAAV12@XZ
?TrimRight@?$CStringT@GV?$StrTraitATL@GV?$ChTraitsCRT@G@ATL@@@ATL@@@ATL@@QAAAAV12@G@Z
?TrimRight@?$CStringT@GV?$StrTraitATL@GV?$ChTraitsCRT@G@ATL@@@ATL@@@ATL@@QAAAAV12@PBG@Z
?TrimRight@?$CStringT@GV?$StrTraitATL@GV?$ChTraitsCRT@G@ATL@@@ATL@@@ATL@@QAAAAV12@XZ
?Truncate@?$CSimpleStringT@G$0A@@ATL@@QAAXH@Z
?UnlockBuffer@?$CSimpleStringT@G$0A@@ATL@@QAAXXZ
?ValidatePid@CProductKeyModule@@AAAJXZ
?ValidateProductKey@CProductKeyModule@@UAAHPAXPAGP6AX0I@Z@Z
?s_Instance@CImageData@@0PAVIImageData@@A DATA
?s_Instance@CLoadDriver@@0PAVILoadDriver@@A DATA
?v_AddBlockedReason@CImageData@@AAAXPBG0@Z
?v_AddLanguage@CImageData@@AAAXPBG0H@Z
?v_BuildKey@CImageData@@AAAPAGPBG0@Z
?v_CopyStr@CImageData@@AAAPAGPBG@Z
?v_DeleteKeyboardLayouts@CKeyboardLayouts@@AAAXXZ
?v_DeleteLanguages@CLanguages@@AAAXXZ
?v_DeleteLayeredDrivers@CLayeredDrivers@@AAAXXZ
?v_EnumLocalesProc@CLocales@@CAHPAGKJ@Z
?v_FreeLanguages@CImageData@@AAAXXZ
?v_FreeReasons@CImageData@@AAAXXZ
?v_GetArchitectureName@CImageData@@AAAPAGPAUHINSTANCE__@@K@Z
?v_GetAvailableLanguages@CImageData@@AAAXPBG@Z
?v_GetBBStr@CImageData@@AAAPAGPBG0@Z
?v_GetBBVal@CImageData@@AAAKPBG0K@Z
?v_GetBlockedReasons@CImageData@@AAAXPBG@Z
?v_GetLangIniPath@CLanguages@@AAA?AV?$CStringT@GV?$StrTraitATL@GV?$ChTraitsCRT@G@ATL@@@ATL@@@ATL@@XZ
?v_InitInputProcs@CKeyboardLayouts@@AAAHXZ
?v_InitLanguage@CLanguages@@AAAPAVCLanguage@@V?$CStringT@GV?$StrTraitATL@GV?$ChTraitsCRT@G@ATL@@@ATL@@@ATL@@@Z
?v_IsValid@PIDUtilStringView@@AAAHG@Z
?v_LoadInputProcs@CKeyboardLayouts@@AAAHXZ
?v_MakePidString@PIDUtilStringView@@AAAHXZ
?v_MakeValidString@PIDUtilStringView@@AAA?AV?$CStringT@GV?$StrTraitATL@GV?$ChTraitsCRT@G@ATL@@@ATL@@@ATL@@PBG@Z
?v_PopulateKeyboardLayouts@CKeyboardLayouts@@AAAHXZ
?v_PopulateLanguages@CLanguages@@AAAHXZ
?v_PopulateLayeredDrivers@CLayeredDrivers@@AAAHXZ
?v_PopulateLocales@CLocales@@AAAHXZ
