;
; Definition file of bprovider.DLL
; Automatic generated by gendef
; written by Kai Tietz 2008-2014
;
LIBRARY "bprovider.DLL"
EXPORTS
??0?$CVdsHandleImpl@$0A@@@QAA@XZ
??0?$CVdsHandleImpl@$0PPPPPPPP@@@QAA@XZ
??0?$CVdsHeapPtr@E@@QAA@XZ
??0?$CVdsHeapPtr@G@@QAA@XZ
??0?$CVdsHeapPtr@U_AUCTION_THREAD_PARAMETER@@@@QAA@XZ
??0?$CVdsHeapPtr@U_DRIVE_LAYOUT_INFORMATION_EX@@@@QAA@XZ
??0?$CVdsHeapPtr@U_VDS_DRIVE_LAYOUT_INFORMATION_EX@@@@QAA@XZ
??0?$CVdsPtr@E@@QAA@XZ
??0?$CVdsPtr@G@@QAA@XZ
??0?$CVdsPtr@U_AUCTION_THREAD_PARAMETER@@@@QAA@XZ
??0?$CVdsPtr@U_DRIVE_LAYOUT_INFORMATION_EX@@@@QAA@XZ
??0?$CVdsPtr@U_VDS_DRIVE_LAYOUT_INFORMATION_EX@@@@QAA@XZ
??0CPrvEnumObject@@QAA@XZ
??0CRtlSharedLock@@QAA@XZ
??0CVdsCriticalSection@@QAA@PAU_RTL_CRITICAL_SECTION@@@Z
??0CVdsPnPNotificationBase@@QAA@XZ
??0CVdsUnlockIt@@QAA@AAJ@Z
??1?$CVdsHandleImpl@$0A@@@QAA@XZ
??1?$CVdsHandleImpl@$0PPPPPPPP@@@QAA@XZ
??1?$CVdsHeapPtr@E@@QAA@XZ
??1?$CVdsHeapPtr@G@@QAA@XZ
??1?$CVdsHeapPtr@U_AUCTION_THREAD_PARAMETER@@@@QAA@XZ
??1?$CVdsHeapPtr@U_DRIVE_LAYOUT_INFORMATION_EX@@@@QAA@XZ
??1?$CVdsHeapPtr@U_VDS_DRIVE_LAYOUT_INFORMATION_EX@@@@QAA@XZ
??1?$CVdsPtr@E@@QAA@XZ
??1?$CVdsPtr@G@@QAA@XZ
??1?$CVdsPtr@U_AUCTION_THREAD_PARAMETER@@@@QAA@XZ
??1?$CVdsPtr@U_DRIVE_LAYOUT_INFORMATION_EX@@@@QAA@XZ
??1?$CVdsPtr@U_VDS_DRIVE_LAYOUT_INFORMATION_EX@@@@QAA@XZ
??1CPrvEnumObject@@QAA@XZ
??1CRtlSharedLock@@QAA@XZ
??1CVdsCriticalSection@@QAA@XZ
??1CVdsPnPNotificationBase@@QAA@XZ
??1CVdsUnlockIt@@QAA@XZ
??4?$CVdsHandleImpl@$0A@@@QAAPAXPAX@Z
??4?$CVdsHeapPtr@E@@QAAPAEPAE@Z
??4?$CVdsHeapPtr@G@@QAAPAGPAG@Z
??4?$CVdsHeapPtr@U_AUCTION_THREAD_PARAMETER@@@@QAAPAU_AUCTION_THREAD_PARAMETER@@PAU1@@Z
??4?$CVdsHeapPtr@U_VDS_DRIVE_LAYOUT_INFORMATION_EX@@@@QAAPAU_VDS_DRIVE_LAYOUT_INFORMATION_EX@@PAU1@@Z
??8?$CVdsHandleImpl@$0A@@@QBA_NPAX@Z
??8?$CVdsPtr@E@@QBA_NPAE@Z
??8?$CVdsPtr@G@@QBA_NPAG@Z
??8?$CVdsPtr@U_AUCTION_THREAD_PARAMETER@@@@QBA_NPAU_AUCTION_THREAD_PARAMETER@@@Z
??9?$CVdsPtr@E@@QBA_NPAE@Z
??B?$CVdsHandleImpl@$0PPPPPPPP@@@QAAPAXXZ
??B?$CVdsPtr@E@@QBAPAEXZ
??B?$CVdsPtr@G@@QBAPAGXZ
??B?$CVdsPtr@U_AUCTION_THREAD_PARAMETER@@@@QBAPAU_AUCTION_THREAD_PARAMETER@@XZ
??B?$CVdsPtr@U_DRIVE_LAYOUT_INFORMATION_EX@@@@QBAPAU_DRIVE_LAYOUT_INFORMATION_EX@@XZ
??B?$CVdsPtr@U_VDS_DRIVE_LAYOUT_INFORMATION_EX@@@@QBAPAU_VDS_DRIVE_LAYOUT_INFORMATION_EX@@XZ
??C?$CVdsPtr@U_AUCTION_THREAD_PARAMETER@@@@QBAPAU_AUCTION_THREAD_PARAMETER@@XZ
??C?$CVdsPtr@U_DRIVE_LAYOUT_INFORMATION_EX@@@@QBAPAU_DRIVE_LAYOUT_INFORMATION_EX@@XZ
??C?$CVdsPtr@U_VDS_DRIVE_LAYOUT_INFORMATION_EX@@@@QBAPAU_VDS_DRIVE_LAYOUT_INFORMATION_EX@@XZ
??I?$CVdsHandleImpl@$0PPPPPPPP@@@QAAPAPAXXZ
??I?$CVdsPtr@U_DRIVE_LAYOUT_INFORMATION_EX@@@@QAAPAPAU_DRIVE_LAYOUT_INFORMATION_EX@@XZ
??I?$CVdsPtr@U_VDS_DRIVE_LAYOUT_INFORMATION_EX@@@@QAAPAPAU_VDS_DRIVE_LAYOUT_INFORMATION_EX@@XZ
??_FCRtlList@@QAAXXZ
??_FCRtlMap@@QAAXXZ
?AcquireRead@CRtlSharedLock@@AAAXXZ
?AcquireWrite@CRtlSharedLock@@AAAXXZ
?AllowCancel@CVdsAsyncObjectBase@@QAAXXZ
?Attach@?$CVdsPtr@G@@QAAXPAG@Z
?Attach@?$CVdsPtr@U_DRIVE_LAYOUT_INFORMATION_EX@@@@QAAXPAU_DRIVE_LAYOUT_INFORMATION_EX@@@Z
?Attach@?$CVdsPtr@U_VDS_DRIVE_LAYOUT_INFORMATION_EX@@@@QAAXPAU_VDS_DRIVE_LAYOUT_INFORMATION_EX@@@Z
?Close@?$CVdsHandleImpl@$0PPPPPPPP@@@QAAXXZ
?CurrentThreadIsWriter@CRtlSharedLock@@QAAHXZ
?Detach@?$CVdsHandleImpl@$0PPPPPPPP@@@QAAPAXXZ
?Detach@?$CVdsPtr@G@@QAAPAGXZ
?Detach@?$CVdsPtr@U_AUCTION_THREAD_PARAMETER@@@@QAAPAU_AUCTION_THREAD_PARAMETER@@XZ
?Detach@?$CVdsPtr@U_DRIVE_LAYOUT_INFORMATION_EX@@@@QAAPAU_DRIVE_LAYOUT_INFORMATION_EX@@XZ
?Detach@?$CVdsPtr@U_VDS_DRIVE_LAYOUT_INFORMATION_EX@@@@QAAPAU_VDS_DRIVE_LAYOUT_INFORMATION_EX@@XZ
?DisallowCancel@CVdsAsyncObjectBase@@QAAXXZ
?Downgrade@CRtlSharedLock@@AAAXXZ
?GetOutputType@CVdsAsyncObjectBase@@QAA?AW4_VDS_ASYNC_OUTPUT_TYPE@@XZ
?IsCancelRequested@CVdsAsyncObjectBase@@QAAHXZ
?Release@CRtlSharedLock@@AAAXXZ
?SetOutput@CVdsAsyncObjectBase@@QAAXU_VDS_ASYNC_OUTPUT@@@Z
?SetOutputType@CVdsAsyncObjectBase@@QAAXW4_VDS_ASYNC_OUTPUT_TYPE@@@Z
?SetPositionToLast@CPrvEnumObject@@QAAXXZ
?StartReferenceHistory@@YAKXZ
?StopReferenceHistory@@YAXXZ
?Upgrade@CRtlSharedLock@@AAAXXZ
?ZeroAsyncOut@CVdsAsyncObjectBase@@QAAXXZ
?m_ExtraLogging@CVdsTraceSettings@@QAAHXZ
?m_NoDebuggerLogging@CVdsTraceSettings@@QAAHXZ
