;
; Definition file of vdsdyn.DLL
; Automatic generated by gendef
; written by Kai Tietz 2008-2014
;
LIBRARY "vdsdyn.DLL"
EXPORTS
??0CPrvEnumObject@@QAA@XZ
??0CRtlSharedLock@@QAA@XZ
??0CVdsCriticalSection@@QAA@PAU_RTL_CRITICAL_SECTION@@@Z
??0CVdsPnPNotificationBase@@QAA@XZ
??0CVdsUnlockIt@@QAA@AAJ@Z
??1CPrvEnumObject@@QAA@XZ
??1CRtlSharedLock@@QAA@XZ
??1CVdsCriticalSection@@QAA@XZ
??1CVdsPnPNotificationBase@@QAA@XZ
??1CVdsUnlockIt@@QAA@XZ
??_FCRtlList@@QAAXXZ
??_FCRtlMap@@QAAXXZ
?AcquireRead@CRtlSharedLock@@AAAXXZ
?AcquireWrite@CRtlSharedLock@@AAAXXZ
?AllowCancel@CVdsAsyncObjectBase@@QAAXXZ
?CurrentThreadIsWriter@CRtlSharedLock@@QAAHXZ
?DisallowCancel@CVdsAsyncObjectBase@@QAAXXZ
?Downgrade@CRtlSharedLock@@AAAXXZ
?GetOutputType@CVdsAsyncObjectBase@@QAA?AW4_VDS_ASYNC_OUTPUT_TYPE@@XZ
?IsCancelRequested@CVdsAsyncObjectBase@@QAAHXZ
?Release@CRtlSharedLock@@AAAXXZ
?SetOutput@CVdsAsyncObjectBase@@QAAXU_VDS_ASYNC_OUTPUT@@@Z
?SetOutputType@CVdsAsyncObjectBase@@QAAXW4_VDS_ASYNC_OUTPUT_TYPE@@@Z
?SetPositionToLast@CPrvEnumObject@@QAAXXZ
?StartReferenceHistory@@YAKXZ
?StopReferenceHistory@@YAXXZ
?Upgrade@CRtlSharedLock@@AAAXXZ
?ZeroAsyncOut@CVdsAsyncObjectBase@@QAAXXZ
?m_ExtraLogging@CVdsTraceSettings@@QAAHXZ
?m_NoDebuggerLogging@CVdsTraceSettings@@QAAHXZ
