;
; Definition file of wbemcomn.dll
; Automatic generated by gendef
; written by Kai Tietz 2008-2014
;
LIBRARY "wbemcomn.dll"
EXPORTS
??0?$CLockableFlexArray@VCStaticCritSec@@@@QAA@AAV0@@Z
??0?$CLockableFlexArray@VCStaticCritSec@@@@QAA@XZ
??0?$SZLess@PBG@@QAA@ABU0@@Z
??0?$SZLess@PBG@@QAA@XZ
??0C9XAce@@QAA@ABV0@@Z
??0C9XAce@@QAA@KKKPAG@Z
??0C9XAce@@QAA@XZ
??0CAbstractQl1Parser@@QAA@ABV0@@Z
??0CAbstractQl1Parser@@QAA@PAVCGenLexSource@@@Z
??0CArena@@QAA@ABV0@@Z
??0CArena@@QAA@XZ
??0CBaseAce@@QAA@ABV0@@Z
??0CBaseAce@@QAA@XZ
??0CBasicUnloadInstruction@@IAA@XZ
??0CBasicUnloadInstruction@@QAA@ABV0@@Z
??0CBasicUnloadInstruction@@QAA@VCWbemInterval@@@Z
??0CBuffer@@QAA@ABV0@@Z
??0CBuffer@@QAA@PAEKH@Z
??0CCheckedInCritSec@@QAA@PAVCCritSec@@@Z
??0CCircularQueue@@QAA@XZ
??0CClientOpsNode@@QAA@XZ
??0CContainerControl@@QAA@ABV0@@Z
??0CContainerControl@@QAA@PAUIUnknown@@@Z
??0CCritSec@@QAA@XZ
??0CDMTFParser@@QAA@PBG@Z
??0CDatePart@@QAA@XZ
??0CDateTimeParser@@IAA@XZ
??0CDateTimeParser@@QAA@PBG@Z
??0CEnterWbemCriticalSection@@QAA@PAVCWbemCriticalSection@@K@Z
??0CEventLog@@QAA@ABV0@@Z
??0CEventLog@@QAA@PBGABU_GUID@@K@Z
??0CEventLogRecord@@QAA@AAV0@@Z
??0CEventLogRecord@@QAA@GABU_EVENT_DESCRIPTOR@@VCInsertionString@@111111111@Z
??0CExecQueue@@QAA@AAV0@@Z
??0CExecQueue@@QAA@XZ
??0CExecRequest@@QAA@ABV0@@Z
??0CExecRequest@@QAA@XZ
??0CFlexArray@@QAA@AAV0@@Z
??0CFlexArray@@QAA@HH@Z
??0CFlexQueue@@QAA@H@Z
??0CHaltable@@QAA@ABV0@@Z
??0CHaltable@@QAA@XZ
??0CHex@@QAA@J@Z
??0CIdentitySecurity@@QAA@ABV0@@Z
??0CIdentitySecurity@@QAA@_N@Z
??0CIdentityTest@@QAA@ABV0@@Z
??0CIdentityTest@@QAA@PAVCTimerInstruction@@@Z
??0CInCritSec@@QAA@PAU_RTL_CRITICAL_SECTION@@@Z
??0CInsertionString@@QAA@ABV0@@Z
??0CInsertionString@@QAA@J@Z
??0CInsertionString@@QAA@PBD@Z
??0CInsertionString@@QAA@PBG@Z
??0CInsertionString@@QAA@VCHex@@@Z
??0CInsertionString@@QAA@XZ
??0CInstructionQueue@@QAA@XZ
??0CInstructionTest@@QAA@ABV0@@Z
??0CInstructionTest@@QAA@XZ
??0CLifeControl@@QAA@ABV0@@Z
??0CLifeControl@@QAA@XZ
??0CLike@@QAA@ABV0@@Z
??0CLike@@QAA@PBGG@Z
??0CLike@@QAA@XZ
??0CLimitControl@@QAA@ABV0@@Z
??0CLimitControl@@QAA@XZ
??0CMRCICompression@@QAA@XZ
??0CMRCIControl@@QAA@XZ
??0CMUILocaleList@@QAA@XZ
??0CMemoryLog@@QAA@XZ
??0CMinMaxLimitControl@@QAA@ABV0@@Z
??0CMinMaxLimitControl@@QAA@HPBG@Z
??0CNtAce@@QAA@ABV0@@Z
??0CNtAce@@QAA@KKKAAVCNtSid@@@Z
??0CNtAce@@QAA@KKKPAG@Z
??0CNtAce@@QAA@PAU_ACCESS_ALLOWED_ACE@@@Z
??0CNtAce@@QAA@XZ
??0CNtAcl@@QAA@ABV0@@Z
??0CNtAcl@@QAA@K@Z
??0CNtAcl@@QAA@PAU_ACL@@@Z
??0CNtSecurityDescriptor@@QAA@AAV0@@Z
??0CNtSecurityDescriptor@@QAA@PAX@Z
??0CNtSecurityDescriptor@@QAA@XZ
??0CNtSid@@QAA@ABV0@@Z
??0CNtSid@@QAA@PAG@Z
??0CNtSid@@QAA@PAX@Z
??0CNtSid@@QAA@W4SidType@0@@Z
??0CNtSid@@QAA@XZ
??0CPropertyName@@QAA@ABV0@@Z
??0CPropertyName@@QAA@XZ
??0CQl1ParseSink@@QAA@ABV0@@Z
??0CQl1ParseSink@@QAA@XZ
??0CRegistryMinMaxLimitControl@@QAA@ABV0@@Z
??0CRegistryMinMaxLimitControl@@QAA@HPBG0000@Z
??0CSafeArray@@QAA@AAV0@@Z
??0CSafeArray@@QAA@HHHH@Z
??0CSafeArray@@QAA@PAUtagSAFEARRAY@@HHH@Z
??0CStaticCritSec@@QAA@XZ
??0CTextTemplate@@QAA@ABV0@@Z
??0CTextTemplate@@QAA@PBG@Z
??0CTimerGenerator@@QAA@ABV0@@Z
??0CTimerGenerator@@QAA@XZ
??0CTimerInstruction@@QAA@ABV0@@Z
??0CTimerInstruction@@QAA@XZ
??0CTraceSessionControl@@QAA@XZ
??0CUnk@@QAA@ABV0@@Z
??0CUnk@@QAA@PAVCLifeControl@@PAUIUnknown@@@Z
??0CUnkInternal@@QAA@ABV0@@Z
??0CUnkInternal@@QAA@PAVCLifeControl@@@Z
??0CVar@@QAA@ABV0@@Z
??0CVar@@QAA@D@Z
??0CVar@@QAA@E@Z
??0CVar@@QAA@F@Z
??0CVar@@QAA@FH@Z
??0CVar@@QAA@G@Z
??0CVar@@QAA@HPAG@Z
??0CVar@@QAA@HPAUtagSAFEARRAY@@@Z
??0CVar@@QAA@HVauto_bstr@@@Z
??0CVar@@QAA@J@Z
??0CVar@@QAA@K@Z
??0CVar@@QAA@M@Z
??0CVar@@QAA@N@Z
??0CVar@@QAA@PADH@Z
??0CVar@@QAA@PAGH@Z
??0CVar@@QAA@PAU_FILETIME@@@Z
??0CVar@@QAA@PAU_GUID@@H@Z
??0CVar@@QAA@PAUtagBLOB@@H@Z
??0CVar@@QAA@PAUtagVARIANT@@@Z
??0CVar@@QAA@PAVCVarVector@@H@Z
??0CVar@@QAA@XZ
??0CVarVector@@QAA@AAV0@@Z
??0CVarVector@@QAA@HHH@Z
??0CVarVector@@QAA@HPAUtagSAFEARRAY@@H@Z
??0CVarVector@@QAA@XZ
??0CWMITraceSettings@@QAA@XZ
??0CWQLScanner@@QAA@AAV0@@Z
??0CWQLScanner@@QAA@PAVCGenLexSource@@@Z
??0CWStringArray@@QAA@AAV0@@Z
??0CWStringArray@@QAA@HH@Z
??0CWbemCallSecurity@@AAA@ABV0@@Z
??0CWbemCallSecurity@@AAA@XZ
??0CWbemCriticalSection@@QAA@XZ
??0CWbemInstallObject@@QAA@XZ
??0CWbemInterval@@IAA@K@Z
??0CWbemInterval@@QAA@XZ
??0CWbemTime@@IAA@_J@Z
??0CWbemTime@@QAA@ABV0@@Z
??0CWbemTime@@QAA@XZ
??0CWbemTimeSpan@@QAA@HHHHHHH@Z
??0CWin32DefaultArena@@QAA@ABV0@@Z
??0CWin32DefaultArena@@QAA@XZ
??0QL1_Parser@@QAA@ABV0@@Z
??0QL1_Parser@@QAA@PAVCGenLexSource@@@Z
??0QL_LEVEL_1_RPN_EXPRESSION@@QAA@ABU0@@Z
??0QL_LEVEL_1_RPN_EXPRESSION@@QAA@XZ
??0QL_LEVEL_1_TOKEN@@QAA@ABU0@@Z
??0QL_LEVEL_1_TOKEN@@QAA@XZ
??0Registry@@QAA@PAUHKEY__@@KKPBG@Z
??0Registry@@QAA@PAUHKEY__@@KPBG@Z
??0Registry@@QAA@PBGK@Z
??0Registry@@QAA@XZ
??0WString2@@QAA@ABV0@@Z
??0WString2@@QAA@I@Z
??0WString2@@QAA@KPAUHINSTANCE__@@@Z
??0WString2@@QAA@PAGH@Z
??0WString2@@QAA@PBD@Z
??0WString2@@QAA@PBG@Z
??0WString2@@QAA@XZ
??0WString@@QAA@ABV0@@Z
??0WString@@QAA@KPAUHINSTANCE__@@@Z
??0WString@@QAA@PAGH@Z
??0WString@@QAA@PBD@Z
??0WString@@QAA@PBG@Z
??0WString@@QAA@XZ
??1?$CLockableFlexArray@VCStaticCritSec@@@@QAA@XZ
??1?$SZLess@PBG@@UAA@XZ
??1C9XAce@@UAA@XZ
??1CAbstractQl1Parser@@UAA@XZ
??1CBaseAce@@UAA@XZ
??1CBasicUnloadInstruction@@UAA@XZ
??1CBuffer@@QAA@XZ
??1CCheckedInCritSec@@QAA@XZ
??1CClientOpsNode@@QAA@XZ
??1CCritSec@@QAA@XZ
??1CDMTFParser@@QAA@XZ
??1CDatePart@@QAA@XZ
??1CDateTimeParser@@QAA@XZ
??1CEnterWbemCriticalSection@@QAA@XZ
??1CEventLog@@QAA@XZ
??1CEventLogRecord@@QAA@XZ
??1CExecQueue@@QAA@XZ
??1CExecRequest@@UAA@XZ
??1CFlexArray@@QAA@XZ
??1CFlexQueue@@QAA@XZ
??1CHaltable@@UAA@XZ
??1CIdentitySecurity@@QAA@XZ
??1CIdentityTest@@QAA@XZ
??1CInCritSec@@QAA@XZ
??1CInsertionString@@QAA@XZ
??1CInstructionQueue@@QAA@XZ
??1CLike@@QAA@XZ
??1CLimitControl@@UAA@XZ
??1CMRCICompression@@QAA@XZ
??1CMUILocaleList@@QAA@XZ
??1CMinMaxLimitControl@@UAA@XZ
??1CNtAce@@UAA@XZ
??1CNtAcl@@QAA@XZ
??1CNtSecurityDescriptor@@QAA@XZ
??1CNtSid@@QAA@XZ
??1CPropertyName@@QAA@XZ
??1CPublishWMIOperationEvent@@QAA@XZ
??1CRegistryMinMaxLimitControl@@UAA@XZ
??1CSafeArray@@QAA@XZ
??1CStaticCritSec@@QAA@XZ
??1CTextTemplate@@QAA@XZ
??1CTimerGenerator@@UAA@XZ
??1CTimerInstruction@@UAA@XZ
??1CUnk@@UAA@XZ
??1CUnkInternal@@UAA@XZ
??1CVar@@QAA@XZ
??1CVarVector@@QAA@XZ
??1CWQLScanner@@QAA@XZ
??1CWStringArray@@QAA@XZ
??1CWbemCallSecurity@@AAA@XZ
??1CWbemCriticalSection@@QAA@XZ
??1CWbemInstallObject@@QAA@XZ
??1CWin32DefaultArena@@QAA@XZ
??1QL1_Parser@@UAA@XZ
??1QL_LEVEL_1_RPN_EXPRESSION@@QAA@XZ
??1QL_LEVEL_1_TOKEN@@QAA@XZ
??1Registry@@QAA@XZ
??1WString2@@QAA@XZ
??1WString@@QAA@XZ
??4?$CLockableFlexArray@VCStaticCritSec@@@@QAAAAV0@AAV0@@Z
??4?$SZLess@PBG@@QAAAAU0@ABU0@@Z
??4C9XAce@@QAAAAV0@ABV0@@Z
??4CAbstractQl1Parser@@QAAAAV0@ABV0@@Z
??4CArena@@QAAAAV0@ABV0@@Z
??4CBaseAce@@QAAAAV0@ABV0@@Z
??4CBaseMrciCompression@@QAAAAV0@ABV0@@Z
??4CBasicUnloadInstruction@@QAAAAV0@ABV0@@Z
??4CBuffer@@QAAAAV0@ABV0@@Z
??4CCheckedInCritSec@@QAAAAV0@ABV0@@Z
??4CCircularQueue@@QAAAAV0@ABV0@@Z
??4CClientOpsNode@@QAAAAV0@ABV0@@Z
??4CContainerControl@@QAAAAV0@ABV0@@Z
??4CCritSec@@QAAAAV0@ABV0@@Z
??4CDMTFParser@@QAAAAV0@ABV0@@Z
??4CDatePart@@QAAAAV0@ABV0@@Z
??4CDateTimeParser@@QAAAAV0@ABV0@@Z
??4CEnterWbemCriticalSection@@QAAAAV0@ABV0@@Z
??4CExecQueue@@QAAAAV0@AAV0@@Z
??4CExecRequest@@QAAAAV0@ABV0@@Z
??4CFlexArray@@QAAAAV0@AAV0@@Z
??4CFlexQueue@@QAAAAV0@ABV0@@Z
??4CHaltable@@QAAAAV0@ABV0@@Z
??4CHex@@QAAAAV0@ABV0@@Z
??4CIdentitySecurity@@QAAAAV0@ABV0@@Z
??4CIdentityTest@@QAAAAV0@ABV0@@Z
??4CInCritSec@@QAAAAV0@ABV0@@Z
??4CInsertionString@@QAAAAV0@ABV0@@Z
??4CInstructionQueue@@QAAAAV0@ABV0@@Z
??4CInstructionTest@@QAAAAV0@ABV0@@Z
??4CLifeControl@@QAAAAV0@ABV0@@Z
??4CLike@@QAAAAV0@ABV0@@Z
??4CLimitControl@@QAAAAV0@ABV0@@Z
??4CMRCICompression@@QAAAAV0@ABV0@@Z
??4CMRCIControl@@QAAAAV0@ABV0@@Z
??4CMUILocale@@QAAAAV0@ABV0@@Z
??4CMUILocaleList@@QAAAAV0@ABV0@@Z
??4CMemoryLog@@QAAAAV0@ABV0@@Z
??4CMinMaxLimitControl@@QAAAAV0@ABV0@@Z
??4CNtAce@@QAAAAV0@ABV0@@Z
??4CNtAcl@@QAAAAV0@ABV0@@Z
??4CNtSecurity@@QAAAAV0@ABV0@@Z
??4CNtSecurityDescriptor@@QAAAAV0@AAV0@@Z
??4CNtSid@@QAAAAV0@ABV0@@Z
??4CPersistentConfig@@QAAAAV0@ABV0@@Z
??4CPropertyName@@QAAXABU_tag_WbemPropertyName@@@Z
??4CPropertyName@@QAAXABV0@@Z
??4CPublishWMIOperationEvent@@QAAAAV0@ABV0@@Z
??4CQl1ParseSink@@QAAAAV0@ABV0@@Z
??4CRegistryMinMaxLimitControl@@QAAAAV0@ABV0@@Z
??4CSafeArray@@QAAAAV0@AAV0@@Z
??4CSmallArrayBlob@@QAAAAV0@ABV0@@Z
??4CStaticCritSec@@QAAAAV0@ABV0@@Z
??4CTextTemplate@@QAAAAV0@ABV0@@Z
??4CTimerGenerator@@QAAAAV0@ABV0@@Z
??4CTimerInstruction@@QAAAAV0@ABV0@@Z
??4CTraceSessionControl@@QAAAAV0@ABV0@@Z
??4CUnk@@QAAAAV0@ABV0@@Z
??4CUnkInternal@@QAAAAV0@ABV0@@Z
??4CVar@@QAAAAV0@ABV0@@Z
??4CVarVector@@QAAAAV0@AAV0@@Z
??4CWMITraceSettings@@QAAAAV0@ABV0@@Z
??4CWQLScanner@@QAAAAV0@AAV0@@Z
??4CWStringArray@@QAAAAV0@AAV0@@Z
??4CWbemCallSecurity@@AAAAAV0@ABV0@@Z
??4CWbemCriticalSection@@QAAAAV0@ABV0@@Z
??4CWbemInstallObject@@QAAAAV0@ABV0@@Z
??4CWbemInterval@@QAAAAV0@ABV0@@Z
??4CWbemTime@@QAAXABV0@@Z
??4CWbemTimeSpan@@QAAAAV0@ABV0@@Z
??4CWin32DefaultArena@@QAAAAV0@ABV0@@Z
??4MD5@@QAAAAV0@ABV0@@Z
??4QL1_Parser@@QAAAAV0@ABV0@@Z
??4QL_LEVEL_1_RPN_EXPRESSION@@QAAAAU0@ABU0@@Z
??4QL_LEVEL_1_TOKEN@@QAAAAU0@ABU0@@Z
??4QL_LEVEL_1_TOKEN@@QAAAAU0@ABU_tag_WbemQl1Token@@@Z
??4Registry@@QAAAAV0@ABV0@@Z
??4SHA256@@QAAAAV0@ABV0@@Z
??4WString2@@QAAAAV0@ABV0@@Z
??4WString2@@QAAAAV0@PBG@Z
??4WString@@QAAAAV0@ABV0@@Z
??4WString@@QAAAAV0@PBG@Z
??8CEventLogRecord@@QAAHABV0@@Z
??8CNtSid@@QAAHAAV0@@Z
??8CPropertyName@@QAAHABU_tag_WbemPropertyName@@@Z
??8CVar@@QAAHAAV0@@Z
??8CVarVector@@QAAHAAV0@@Z
??ACFlexArray@@QAAAAPAXH@Z
??ACFlexArray@@QBAPAXH@Z
??ACSmallArrayBlob@@QBAPAXH@Z
??ACVarVector@@QAAAAVCVar@@H@Z
??ACWStringArray@@QBAPAGH@Z
??AWString2@@QBAGH@Z
??AWString@@QBAGH@Z
??BCHex@@QAAJXZ
??BCVar@@QAA?AU_FILETIME@@XZ
??BCVar@@QAADXZ
??BCVar@@QAAEXZ
??BCVar@@QAAFXZ
??BCVar@@QAAGXZ
??BCVar@@QAAJXZ
??BCVar@@QAAKXZ
??BCVar@@QAAMXZ
??BCVar@@QAANXZ
??BCVar@@QAAPADXZ
??BCVar@@QAAPAGXZ
??BCVar@@QAAPAU_GUID@@XZ
??BCVar@@QAAPAUtagBLOB@@XZ
??BCVar@@QAAPAVCVarVector@@XZ
??BWString2@@QAAPAGXZ
??BWString2@@QBAPBGXZ
??BWString@@QAAPAGXZ
??BWString@@QBAPBGXZ
??DCWbemInterval@@QBA?AV0@N@Z
??GCWbemTime@@QBA?AV0@ABVCWbemTimeSpan@@@Z
??GCWbemTime@@QBA?AVCWbemInterval@@ABV0@@Z
??HCWbemInterval@@QBA?AV0@V0@@Z
??HCWbemTime@@QBA?AV0@ABVCWbemInterval@@@Z
??HCWbemTime@@QBA?AV0@ABVCWbemTimeSpan@@@Z
??MCWbemInterval@@QAAHV0@@Z
??MCWbemTime@@QBAHABV0@@Z
??MWString2@@QBAHPBG@Z
??MWString@@QBAHPBG@Z
??NCWbemTime@@QBAHABV0@@Z
??NWString2@@QBAHPBG@Z
??NWString@@QBAHPBG@Z
??OCWbemInterval@@QAAHV0@@Z
??OCWbemTime@@QBAHABV0@@Z
??OWString2@@QBAHPBG@Z
??OWString@@QBAHPBG@Z
??PCWbemTime@@QBAHABV0@@Z
??PWString2@@QBAHPBG@Z
??PWString@@QBAHPBG@Z
??R?$SZLess@PBG@@QBA_NABQBG0@Z
??RCIdentityTest@@UAAHPAVCTimerInstruction@@@Z
??RWString2@@QBA?AV0@HH@Z
??RWString@@QBA?AV0@HH@Z
??YCWbemInterval@@QAAXV0@@Z
??YWString2@@QAAAAV0@ABV0@@Z
??YWString2@@QAAAAV0@G@Z
??YWString2@@QAAAAV0@PBG@Z
??YWString@@QAAAAV0@ABV0@@Z
??YWString@@QAAAAV0@G@Z
??YWString@@QAAAAV0@PBG@Z
??_7?$SZLess@PBG@@6B@ DATA
??_7C9XAce@@6B@ DATA
??_7CAbstractQl1Parser@@6B@ DATA
??_7CArena@@6B@ DATA
??_7CBaseAce@@6B@ DATA
??_7CBasicUnloadInstruction@@6B@ DATA
??_7CBuffer@@6B@ DATA
??_7CContainerControl@@6B@ DATA
??_7CExecQueue@@6B@ DATA
??_7CExecRequest@@6B@ DATA
??_7CHaltable@@6B@ DATA
??_7CIdentityTest@@6B@ DATA
??_7CInstructionTest@@6B@ DATA
??_7CLifeControl@@6B@ DATA
??_7CLimitControl@@6B@ DATA
??_7CMinMaxLimitControl@@6B@ DATA
??_7CNtAce@@6B@ DATA
??_7CQl1ParseSink@@6B@ DATA
??_7CRegistryMinMaxLimitControl@@6B@ DATA
??_7CTimerGenerator@@6B@ DATA
??_7CTimerInstruction@@6B@ DATA
??_7CUnk@@6B@ DATA
??_7CUnkInternal@@6B@ DATA
??_7CWbemCallSecurity@@6B@ DATA
??_7CWin32DefaultArena@@6B@ DATA
??_7QL1_Parser@@6B@ DATA
??_7QL_LEVEL_1_RPN_EXPRESSION@@6B@ DATA
??_FCBuffer@@QAAXXZ
??_FCEventLog@@QAAXXZ
??_FCFlexArray@@QAAXXZ
??_FCFlexQueue@@QAAXXZ
??_FCNtAcl@@QAAXXZ
??_FCTextTemplate@@QAAXXZ
??_FCUnk@@QAAXXZ
??_FCWStringArray@@QAAXXZ
?AbortCompression@CMRCIControl@@QAAXXZ
?AbortRequested@CMRCIControl@@QAAHXZ
?Access@CSafeArray@@QAAJPAPAX@Z
?AccessCheck@CIdentitySecurity@@QAAHXZ
?AccessRawArray@CVarVector@@QAAJPAPAX@Z
?Add@CFlexArray@@QAAHPAX@Z
?Add@CMinMaxLimitControl@@UAAJKKPAK@Z
?Add@CVarVector@@QAAHAAVCVar@@@Z
?Add@CVarVector@@QAAHPAVCVar@@@Z
?Add@CWStringArray@@QAAHPBG@Z
?AddAce@CNtAcl@@QAAHPAVCNtAce@@@Z
?AddAggregationProperty@QL_LEVEL_1_RPN_EXPRESSION@@UAAXABVCPropertyName@@@Z
?AddAllAggregationProperties@QL_LEVEL_1_RPN_EXPRESSION@@UAAXXZ
?AddAllProperties@QL_LEVEL_1_RPN_EXPRESSION@@UAAXXZ
?AddAppropriateToken@CAbstractQl1Parser@@IAAXABU_tag_WbemQl1Token@@@Z
?AddBSTR@CSafeArray@@QAAHPAG@Z
?AddBool@CSafeArray@@QAAHF@Z
?AddByte@CSafeArray@@QAAHE@Z
?AddChild@CClientOpsNode@@QAAXPAV1@@Z
?AddCulture@CMUILocaleList@@AAAJPBGW4LocaleType@CMUILocale@@K@Z
?AddDispatch@CSafeArray@@QAAHPAUIDispatch@@@Z
?AddDouble@CSafeArray@@QAAHN@Z
?AddElement@CPropertyName@@QAAXPBG@Z
?AddEnvironmentValue@CWbemInstallObject@@SAJPBG0@Z
?AddFloat@CSafeArray@@QAAHM@Z
?AddHavingToken@QL_LEVEL_1_RPN_EXPRESSION@@UAAXABU_tag_WbemQl1Token@@@Z
?AddInsertionString@CEventLogRecord@@IAAXAAVCInsertionString@@@Z
?AddLocale@CMUILocaleList@@AAAJPBGW4LocaleType@CMUILocale@@K@Z
?AddLong@CSafeArray@@QAAHJ@Z
?AddMember@CLimitControl@@UAAJXZ
?AddProperty@QL_LEVEL_1_RPN_EXPRESSION@@UAAXABVCPropertyName@@@Z
?AddRecord@CEventLog@@IAAHPAVCEventLogRecord@@@Z
?AddRef@CBasicUnloadInstruction@@UAAXXZ
?AddRef@CBuffer@@UAAKXZ
?AddRef@CContainerControl@@UAAXPAUIUnknown@@@Z
?AddRef@CExecQueue@@QAAXXZ
?AddRef@CUnk@@UAAKXZ
?AddRef@CUnkInternal@@UAAKXZ
?AddRef@CWbemCallSecurity@@UAAKXZ
?AddRef@QL_LEVEL_1_RPN_EXPRESSION@@QAAXXZ
?AddScalar@CSafeArray@@AAAHTSA_ArrayScalar@@@Z
?AddShort@CSafeArray@@QAAHF@Z
?AddToken@QL_LEVEL_1_RPN_EXPRESSION@@QAAXABUQL_LEVEL_1_TOKEN@@@Z
?AddToken@QL_LEVEL_1_RPN_EXPRESSION@@UAAXABU_tag_WbemQl1Token@@@Z
?AddUnknown@CSafeArray@@QAAHPAUIUnknown@@@Z
?AddVariant@CSafeArray@@QAAHPAUtagVARIANT@@@Z
?AdjustInitialPriority@CExecQueue@@MAAXPAVCExecRequest@@@Z
?AdjustPriorityForPassing@CExecQueue@@MAAXPAVCExecRequest@@@Z
?AdjustPrivIfLocalSystem@@YAXPAX@Z
?Advance@CBuffer@@QAAJK@Z
?AliasToTable@CWQLScanner@@QAAQAGPAG@Z
?Alloc@CWin32DefaultArena@@UAAPAXK@Z
?AllocAmPm@CDateTimeParser@@IAAPAGXZ
?AppendBuffer@WString2@@AAAXPBGI@Z
?AppendCulture@CMUILocaleList@@AAAJPBG@Z
?AppendLocale@CMUILocaleList@@AAAJPBG@Z
?Apply@CTextTemplate@@QAAPAGPAUIWbemClassObject@@@Z
?Bind@CFlexArray@@QAAXAAV1@@Z
?BindPtr@WString2@@QAAXPAG@Z
?BindPtr@WString@@QAAXPAG@Z
?BlobAssign@@YAXPAUtagBLOB@@PAXKH@Z
?BlobClear@@YAXPAUtagBLOB@@@Z
?BlobCopy@@YA?AUtagBLOB@@PBU1@@Z
?BreakOnDbgAndRenterLoop@@YAKXZ
?BreakWait@CInstructionQueue@@QAAXXZ
?BuildOperationInfo@@YAJPBG000PAPAG@Z
?BuildSWQLColRef@CWQLScanner@@AAAHAAVCFlexArray@@AAUSWQLColRef@@@Z
?BuildSecurityDescriptorParameter@@YAJPAUIWbemServices@@PAUIWbemContext@@PAVCNtSecurityDescriptor@@PAUIWbemClassObject@@@Z
?CalcSitOutPenalty@CExecQueue@@MAAKJ@Z
?CanDelete@CVar@@QAAHXZ
?CaptureStackTrace@CMemoryLog@@AAAXQAPAX@Z
?Change@CInstructionQueue@@QAAJPAVCTimerInstruction@@VCWbemTime@@@Z
?ChangeTypeTo@CVar@@QAAHG@Z
?ChangeTypeToEx@CVar@@QAAHGK@Z
?ChangeVariantToCIMTYPE@@YAJPAUtagVARIANT@@0J@Z
?CheckDMTFDateTimeFormat@CDateTimeParser@@SAHPBGHH@Z
?CheckDMTFDateTimeFormatInternal@CDateTimeParser@@IAAHPBG@Z
?CheckDMTFDateTimeInterval@CDateTimeParser@@SAHPBG@Z
?CheckDateFormat@CDateTimeParser@@IAAHPBGH@Z
?CheckLangNeutral@CMUILocale@@SAJPBGPA_N@Z
?CheckTimeFormat@CDateTimeParser@@IAAHPBGH@Z
?CheckType@CSafeArray@@AAAXH@Z
?CleanUp@CWbemInstallObject@@SAXXZ
?ClearPropRefs@CWQLScanner@@AAAXXZ
?ClearTableRefs@CWQLScanner@@AAAXXZ
?ClearTokens@CWQLScanner@@AAAXXZ
?Clone@CBuffer@@UAAJPAPAUIStream@@@Z
?CloneData@CSmallArrayBlob@@QAAPAPAXXZ
?CloneThreadContext@CWbemCallSecurity@@UAAJH@Z
?CloneThreadToken@CWbemCallSecurity@@AAAJK@Z
?Close@CEventLog@@QAAHXZ
?CoCreateInstance@CWbemInstallObject@@SAJABU_GUID@@PAUIUnknown@@K0PAPAX@Z
?CoGetClassObject@CWbemInstallObject@@SAJABU_GUID@@KPAU_COSERVERINFO@@0PAPAX@Z
?Commit@CBuffer@@UAAJK@Z
?CompareEls@CFlexArray@@KAHPBX0@Z
?CompareEls@CSmallArrayBlob@@KAHPBX0@Z
?CompareTo@CVar@@QAAHAAV1@H@Z
?CompareTo@CVarVector@@QAAHAAV1@H@Z
?ComposeName@@YAJPAGPAPAG@Z
?Compress@CFlexArray@@QAAXXZ
?Compress@CWStringArray@@QAAXXZ
?CompressBuffer@CMRCICompression@@QAAIPAEK0KW4CompressionLevel@1@@Z
?CompressFile@CMRCICompression@@QAAHPBG0KW4CompressionLevel@1@PAVCMRCIControl@@@Z
?CompressFileV1@CMRCICompression@@IAAHHHKW4CompressionLevel@1@PAVCMRCIControl@@@Z
?ComputePenalty@CMinMaxLimitControl@@IAAJKKPAKPAH@Z
?ConcatWithoutQuotes@CTextTemplate@@AAAXAAVWString2@@AAPAG@Z
?ContainsSid@CNtAcl@@QAAHAAVCNtSid@@AAE@Z
?ContinueTransform@MD5@@SAXPAXIQAE@Z
?CopyBuffer@WString2@@AAAXPBGI@Z
?CopyData@CSmallArrayBlob@@IAAXPAV1@@Z
?CopyDataFrom@CFlexArray@@QAAHABV1@@Z
?CopyFileToAutorecover@@YAJPAG0H@Z
?CopyTo@CBuffer@@UAAJPAUIStream@@T_ULARGE_INTEGER@@PAT3@2@Z
?CopyTo@CNtSid@@QAAHPAX@Z
?CountQuery@CWQLScanner@@QAAHXZ
?CreateBlob@CSmallArrayBlob@@SAPAV1@H@Z
?CreateInst@CWbemCallSecurity@@SAPAVIWbemCallSecurity@@XZ
?CreateNewThread@CExecQueue@@MAAHXZ
?CriticalFailADAPTrace@@YAHPBD@Z
?CurrentLine@CAbstractQl1Parser@@QAAHXZ
?CurrentToken@CAbstractQl1Parser@@QAAPAGXZ
?DateFormat10@CDateTimeParser@@IAAHPBG0H@Z
?DateFormat11@CDateTimeParser@@IAAHPBG0H@Z
?DateFormat12@CDateTimeParser@@IAAHPBG0H@Z
?DateFormat13@CDateTimeParser@@IAAHPBG0H@Z
?DateFormat14@CDateTimeParser@@IAAHPBG0H@Z
?DateFormat15@CDateTimeParser@@IAAHPBGH@Z
?DateFormat1@CDateTimeParser@@IAAHPBGH@Z
?DateFormat2@CDateTimeParser@@IAAHPBGH@Z
?DateFormat3@CDateTimeParser@@IAAHPBGH@Z
?DateFormat4@CDateTimeParser@@IAAHPBGH@Z
?DateFormat5@CDateTimeParser@@IAAHPBGH@Z
?DateFormat6@CDateTimeParser@@IAAHPBGH@Z
?DateFormat7@CDateTimeParser@@IAAHPBGH@Z
?DateFormat8@CDateTimeParser@@IAAHPBGH@Z
?DateFormat9@CDateTimeParser@@IAAHPBG0H@Z
?DebugDump@CFlexArray@@QAAXXZ
?DebugTrace@@YAHDPBDZZ
?DecrementIndex@CFlexQueue@@IAAXAAH@Z
?DeleteAce@CNtAcl@@QAAHH@Z
?DeletePropertyName@CAbstractQl1Parser@@IAAXXZ
?DeleteSacl@CNtSecurityDescriptor@@QAAJXZ
?DeleteStr@CWStringArray@@QAAHH@Z
?DeleteString@WString2@@AAAX_N@Z
?DeleteString@WString@@AAAXPAG@Z
?DeleteValue@Registry@@QAAHPBG@Z
?Dequeue@CFlexQueue@@QAAPAXXZ
?Dequeue@CInstructionQueue@@QAAJAAPAVCTimerInstruction@@AAVCWbemTime@@@Z
?Deserialize@C9XAce@@UAA_NPAE@Z
?Deserialize@CNtAce@@UAA_NPAE@Z
?Difference@CWStringArray@@SAXAAV1@00@Z
?Disable@CTraceSessionControl@@QAAKXZ
?DoLike@CLike@@IAA_NPBG0G@Z
?DoesNeedNewThread@CExecQueue@@MAAHPAVCExecRequest@@@Z
?DoesVectorTypeMatchArrayType@CVarVector@@QAAHXZ
?Dump@CWQLScanner@@QAAXXZ
?Dump@QL_LEVEL_1_RPN_EXPRESSION@@QAAXPBD@Z
?Dump@QL_LEVEL_1_TOKEN@@QAAXPAU_iobuf@@@Z
?DumpClientOps@@YAXPAVCClientOpsNode@@@Z
?DumpError@CExecRequest@@UAAXXZ
?DumpText@CVar@@QAAHPAU_iobuf@@@Z
?ElementSize@CSafeArray@@QAAHXZ
?Empty@CFlexArray@@QAAXXZ
?Empty@CPropertyName@@QAAXXZ
?Empty@CSafeArray@@QAAXXZ
?Empty@CVar@@QAAXXZ
?Empty@CVarVector@@QAAXXZ
?Empty@CWStringArray@@QAAXXZ
?Empty@WString2@@QAAXXZ
?Empty@WString@@QAAXXZ
?Enable@CTraceSessionControl@@QAAKXZ
?EnableAllPrivileges@@YAJK@Z
?EnablePrivilege@@YAHKJ@Z
?EncryptedCall@CIdentitySecurity@@AAA_NXZ
?Enqueue@CExecQueue@@UAAJPAVCExecRequest@@PAPAX@Z
?Enqueue@CFlexQueue@@QAA_NPAX@Z
?Enqueue@CInstructionQueue@@QAAJVCWbemTime@@PAVCTimerInstruction@@@Z
?EnqueueAndWait@CExecQueue@@QAAJPAVCExecRequest@@@Z
?EnqueueWithoutSleep@CExecQueue@@QAAJPAVCExecRequest@@PAPAX@Z
?EnsureAllocated@CPropertyName@@IAAXJ@Z
?EnsureExtent@CFlexArray@@QAAHH@Z
?EnsureExtent@CSmallArrayBlob@@IAAPAV1@H@Z
?EnsureMatchState@CLike@@AAAXI@Z
?EnsureRunning@CTimerGenerator@@AAAXXZ
?EnsureSize@CBuffer@@AAAXK@Z
?Enter@CCheckedInCritSec@@QAAXXZ
?Enter@CCritSec@@QAAXXZ
?Enter@CExecQueue@@QAAXXZ
?Enter@CStaticCritSec@@QAAXXZ
?Enter@CWbemCriticalSection@@QAAHK@Z
?Equal@WString2@@QBAHPBG@Z
?Equal@WString@@QBAHPBG@Z
?EqualNoCase@WString2@@QBAHPBG@Z
?EqualNoCase@WString@@QBAHPBG@Z
?ErrorTrace@@YAHDPBDZZ
?EscapeQuotes@WString2@@QBA?AV1@XZ
?EscapeQuotes@WString@@QBA?AV1@XZ
?Execute@CExecQueue@@MAAHPAVCThreadRecord@1@@Z
?ExpandEnvironmentStringsW@CWbemInstallObject@@SAKPBGPAGK@Z
?ExpandVariableValue@CWbemInstallObject@@CAJPBGPAGIPAI@Z
?ExtractMachineName@@YAPAGPAG@Z
?ExtractNext@CWQLScanner@@AAAPAUWSLexToken@@H@Z
?ExtractSelectType@CWQLScanner@@AAAHXZ
?ExtractToken@WString2@@QAAHGAAV1@@Z
?ExtractToken@WString2@@QAAHPBGAAV1@@Z
?ExtractToken@WString@@QAAHGAAV1@@Z
?ExtractToken@WString@@QAAHPBGAAV1@@Z
?Fatal@CSafeArray@@AAAXPBD@Z
?FillCVarAt@CVarVector@@QAAXHAAVCVar@@@Z
?FillDMTF@CDateTimeParser@@QAAHPAGI@Z
?FillVariant@CVar@@QAAXPAUtagVARIANT@@H@Z
?FinalizeMatchState@CLike@@AAAXXZ
?FindStr@CWStringArray@@QAAHPBGH@Z
?FlipOperator@CAbstractQl1Parser@@IAAHH@Z
?FlushRepository@CWbemInstallObject@@SAJXZ
?Free@CWin32DefaultArena@@UAAHPAX@Z
?FreeMap@CWbemInstallObject@@SAXXZ
?Get100nss@CWbemTime@@QBA_JXZ
?GetAbsoluteCopy@CNtSecurityDescriptor@@QAAPAUSNtAbsoluteSD@@XZ
?GetAccessMask@C9XAce@@UAAKXZ
?GetAccessMask@CNtAce@@UAAKXZ
?GetAccessToken@@YAJAAPAX@Z
?GetAce@CNtAcl@@QAAHHAAVCNtAce@@@Z
?GetAce@CNtAcl@@QAAPAVCNtAce@@H@Z
?GetAclSizeInfo@CNtAcl@@QAAHPAK0@Z
?GetActiveImpersonation@CWbemCallSecurity@@UAAJXZ
?GetActualVarType@CSafeArray@@QAAHPAG@Z
?GetAreaFlags@CWMITraceSettings@@QAAKXZ
?GetArenaHeap@CWin32DefaultArena@@SAPAXXZ
?GetArray@CSafeArray@@QAAPAUtagSAFEARRAY@@XZ
?GetArrayCopy@CSafeArray@@QAAPAUtagSAFEARRAY@@XZ
?GetArrayPtr@CFlexArray@@QAAPAPAXXZ
?GetArrayPtr@CFlexArray@@QBAPBQAXXZ
?GetArrayPtr@CSmallArrayBlob@@QAAPAPAXXZ
?GetArrayPtr@CSmallArrayBlob@@QBAPBQAXXZ
?GetArrayPtr@CWStringArray@@QAAPAPBGXZ
?GetAt@CFlexArray@@QBAPAXH@Z
?GetAt@CSmallArrayBlob@@QBAPAXH@Z
?GetAt@CVarVector@@QAAAAVCVar@@H@Z
?GetAt@CWStringArray@@QBAPAGH@Z
?GetAuthenticationId@CWbemCallSecurity@@UAAKAAU_LUID@@@Z
?GetAutoRecoverFolder@CWbemInstallObject@@SAPBGXZ
?GetBSTR@CVar@@QAAPAGXZ
?GetBSTRAt@CSafeArray@@QAAPAGH@Z
?GetBSTRAtThrow@CSafeArray@@QAAPAGH@Z
?GetBinary@Registry@@QAAHPBGPAPAEPAK@Z
?GetBinaryPath@CWbemInstallObject@@SAPBGXZ
?GetBlob@CVar@@QAAPAUtagBLOB@@XZ
?GetBool@CVar@@QAAFXZ
?GetBoolAt@CSafeArray@@QAAFH@Z
?GetByte@CVar@@QAAEXZ
?GetByteAt@CSafeArray@@QAAEH@Z
?GetCallerIdentity@CWbemCallSecurity@@QAAPBGXZ
?GetChar@CVar@@QAADXZ
?GetChildren@CClientOpsNode@@QAAPAV1@XZ
?GetClsId@CVar@@QAAPAU_GUID@@XZ
?GetCompressedFileInfo@CMRCICompression@@SAHPBGAAW4CompressionLevel@1@AAKAAU_FILETIME@@AA_J@Z
?GetCreationTime@CEventLogRecord@@QAA?AVCWbemTime@@XZ
?GetCultures@CMUILocaleList@@QAAPBGXZ
?GetDMTF@CWbemTime@@AAAHHKPAG@Z
?GetDWORD@CVar@@QAAKXZ
?GetDWORD@Registry@@QAAHPBGPAK@Z
?GetDWORDStr@Registry@@QAAHPBGPAK@Z
?GetDacl@CNtSecurityDescriptor@@QAAHAAVCNtAcl@@@Z
?GetDacl@CNtSecurityDescriptor@@QAAJPAPAVCNtAcl@@@Z
?GetDacl@CNtSecurityDescriptor@@QAAPAVCNtAcl@@XZ
?GetDay@CDateTimeParser@@QAAEXZ
?GetDispatch@CVar@@QAAPAUIDispatch@@XZ
?GetDispatchAt@CSafeArray@@QAAPAUIDispatch@@H@Z
?GetDouble@CVar@@QAANXZ
?GetDoubleAt@CSafeArray@@QAANH@Z
?GetElementSize@CVarVector@@QAAHXZ
?GetEmbeddedObject@CVar@@QAAPAUIUnknown@@XZ
?GetEnvironmentValue@CWbemInstallObject@@CAJPBGPAPBG@Z
?GetEventTraceProperties@CWMITraceSettings@@QAAPAU_EVENT_TRACE_PROPERTIES@@XZ
?GetExpression@CLike@@QAAPBGXZ
?GetFILETIME@CWbemTime@@QBAHPAU_FILETIME@@@Z
?GetFQDN_Ipv4@@YAPAUhostent@@PAG@Z
?GetFileTime@CVar@@QAA?AU_FILETIME@@XZ
?GetFirstFiringTime@CBasicUnloadInstruction@@UBA?AVCWbemTime@@XZ
?GetFirst_ms_XXX_Locale@CMUILocaleList@@QAAJPAPAG@Z
?GetFlags@C9XAce@@UAAHXZ
?GetFlags@CNtAce@@UAAHXZ
?GetFloat@CVar@@QAAMXZ
?GetFloatAt@CSafeArray@@QAAMH@Z
?GetFunctionPointers@CMUILocale@@CAJXZ
?GetFunctionPointers@CPublishWMIOperationEvent@@SAJXZ
?GetGlobalClientOps@@YAPAVCClientOpsNode@@XZ
?GetGroup@CNtSecurityDescriptor@@QAAPAVCNtSid@@XZ
?GetHandle@CPropertyName@@QAAPAXXZ
?GetHours@CDateTimeParser@@QAAEXZ
?GetIdleTimeout@CExecQueue@@MAAKPAVCThreadRecord@1@@Z
?GetIndex@CBuffer@@QAAKXZ
?GetInfinity@CWbemInterval@@SA?AV1@XZ
?GetInfinity@CWbemTime@@SA?AV1@XZ
?GetInfo@CClientOpsNode@@QAAPAXXZ
?GetInfo@CNtSid@@QAAHPAPAG0PAK@Z
?GetInnerUnknown@CUnk@@QAAPAUIUnknown@@XZ
?GetInstructionType@CBasicUnloadInstruction@@UAAHXZ
?GetLPSTR@CVar@@QAAPADXZ
?GetLPSTR@WString2@@QBAPADXZ
?GetLPSTR@WString@@QBAPADXZ
?GetLPWSTR@CVar@@QAAPAGXZ
?GetLToken@WString2@@QBAPAGG@Z
?GetLToken@WString@@QBAPAGG@Z
?GetLastError@Registry@@QAAJXZ
?GetLocalInfoAndAlloc@CDateTimeParser@@IAAXKAAPAG@Z
?GetLocalOffsetForDate@CWbemTime@@SAJPBU_SYSTEMTIME@@@Z
?GetLocales@CMUILocaleList@@QAAPBGXZ
?GetLockCount@CWbemCriticalSection@@QAAJXZ
?GetLoggingLevelEnabled@@YAKXZ
?GetLong@CVar@@QAAJXZ
?GetLongAt@CSafeArray@@QAAJH@Z
?GetMemLogObject@@YAPAVCMemoryLog@@XZ
?GetMicroseconds@CDateTimeParser@@QAAIXZ
?GetMilliseconds@CWbemInterval@@QBAKXZ
?GetMinutes@CDateTimeParser@@QAAEXZ
?GetMonth@CDateTimeParser@@QAAEXZ
?GetMultiStr@Registry@@QAAPAGPBGAAK@Z
?GetNewSafeArray@CVar@@QAAPAUtagSAFEARRAY@@XZ
?GetNewSafeArray@CVarVector@@QAAPAUtagSAFEARRAY@@XZ
?GetNewVariant@CVar@@QAAPAUtagVARIANT@@XZ
?GetNext@CClientOpsNode@@QAAPAV1@XZ
?GetNext@CExecRequest@@QAAPAV1@XZ
?GetNextElement@CCircularQueue@@QAAKPAPAULOG_ELEMENT@@@Z
?GetNextFiringTime@CBasicUnloadInstruction@@UBA?AVCWbemTime@@V2@PAJ@Z
?GetNumAces@CNtAcl@@QAAHXZ
?GetNumElements@CPropertyName@@QBAJXZ
?GetNumInstructions@CInstructionQueue@@QAAJXZ
?GetNumStrings@CEventLogRecord@@QAAGXZ
?GetOleType@CVar@@QAAHXZ
?GetOwner@CNtSecurityDescriptor@@QAAPAVCNtSid@@XZ
?GetOwningThreadId@CWbemCriticalSection@@QAAKXZ
?GetPart@CDatePart@@QAAJHPAH@Z
?GetPersistentCfgValue@CPersistentConfig@@QAAHKAAK@Z
?GetPotentialImpersonation@CWbemCallSecurity@@UAAJXZ
?GetPreferedDateFormat@CDateTimeParser@@IAAXXZ
?GetPreferredLanguages@CMUILocale@@SAJKPAPAGPAK@Z
?GetPreferredLanguages@CMUILocale@@SAJPAPAGPAK@Z
?GetPrevious@CClientOpsNode@@QAAPAV1@XZ
?GetPriority@CExecRequest@@QAAJXZ
?GetPropertyFromIUnknown@CTextTemplate@@AAAPAGPAGPAUIUnknown@@@Z
?GetPtr@CNtAce@@QAAPAU_ACCESS_ALLOWED_ACE@@XZ
?GetPtr@CNtAcl@@QAAPAU_ACL@@XZ
?GetPtr@CNtSecurityDescriptor@@QAAPAXXZ
?GetPtr@CNtSid@@QAAPAXXZ
?GetQFDN_Ipv6@@YAKPAG0HH@Z
?GetQWORD@Registry@@QAAHPBGPA_K@Z
?GetQueryClass@QL1_Parser@@QAAHPAGH@Z
?GetQueueSize@CFlexQueue@@QBAHXZ
?GetRawArrayData@CVarVector@@QAAJPAXH@Z
?GetRawData@CBuffer@@QAAPAEXZ
?GetRawData@CSafeArray@@QAAHPAXH@Z
?GetRawData@CVar@@QAAPAXXZ
?GetRecursionCount@CWbemCriticalSection@@QAAJXZ
?GetReferencedAliases@CWQLScanner@@QAAHAAVCWStringArray@@@Z
?GetReferencedTables@CWQLScanner@@QAAHAAVCWStringArray@@@Z
?GetRegistryPathCIMOM@CWbemInstallObject@@SAPBGXZ
?GetRegistryPathWbem@CWbemInstallObject@@SAPBGXZ
?GetRepositoryFolder@CWbemInstallObject@@SAPBGXZ
?GetSYSTEMTIME@CWbemTime@@QBAHPAU_SYSTEMTIME@@@Z
?GetSacl@CNtSecurityDescriptor@@QAAJPAPAVCNtAcl@@@Z
?GetSacl@CNtSecurityDescriptor@@QAAPAVCNtAcl@@XZ
?GetSafeArray@CVarVector@@QAAPAUtagSAFEARRAY@@H@Z
?GetScalarAt@CSafeArray@@AAA?ATSA_ArrayScalar@@H@Z
?GetSeconds@CDateTimeParser@@QAAEXZ
?GetSeconds@CWbemInterval@@QBAKXZ
?GetSecurityDescriptorFromParameters@@YAJPAVCNtSecurityDescriptor@@PAUIWbemClassObject@@PA_NPAPAV1@PAK@Z
?GetSelectedColumns@CWQLScanner@@QAAPBVCFlexArray@@XZ
?GetSerializedSize@C9XAce@@UAAKXZ
?GetSerializedSize@CNtAce@@UAAKXZ
?GetSessionName@CWMITraceSettings@@QAAPAGXZ
?GetShort@CVar@@QAAFXZ
?GetShortAt@CSafeArray@@QAAFH@Z
?GetSid@CNtAce@@QAAHAAVCNtSid@@@Z
?GetSid@CNtAce@@QAAPAVCNtSid@@XZ
?GetSidFromThreadOrProcess@CIdentitySecurity@@AAAJAAVCNtSid@@@Z
?GetSinglePropertyName@CAbstractQl1Parser@@IAAPBGXZ
?GetSitoutPenalty@CExecQueue@@QAAKXZ
?GetSize@CBuffer@@QAAKXZ
?GetSize@CNtAce@@QAAKXZ
?GetSize@CNtAcl@@QAAKXZ
?GetSize@CNtSecurityDescriptor@@QAAKXZ
?GetSize@CNtSid@@QAAKXZ
?GetStatus@C9XAce@@UAAKXZ
?GetStatus@CNtAce@@UAAKXZ
?GetStatus@CNtAcl@@QAAKXZ
?GetStatus@CNtSecurityDescriptor@@QAAKXZ
?GetStatus@CNtSid@@QAAKXZ
?GetStr@Registry@@QAAHPBGPAPAG@Z
?GetString@CInsertionString@@QAAPBGXZ
?GetStringAt@CEventLogRecord@@QAAPBGH@Z
?GetStringAt@CPropertyName@@QBAPBGJ@Z
?GetStringPointerByRef@WString2@@QBAABQBGXZ
?GetStringPointerByRef@WString@@QBAABQBGXZ
?GetText@CPropertyName@@QAAPAGXZ
?GetText@CVar@@QAAPAGJJPBG@Z
?GetText@CVarVector@@QAAPAGJJ@Z
?GetText@QL_LEVEL_1_RPN_EXPRESSION@@QAAPAGXZ
?GetText@QL_LEVEL_1_TOKEN@@QAAPAGXZ
?GetTextSid@CNtSid@@QAAHPAGPAK@Z
?GetTextSid@CNtSid@@QAAJPAPAG@Z
?GetTickCount@CWbemTime@@SA?AV1@XZ
?GetTlsIndex@CExecQueue@@SAKXZ
?GetToken@CWbemCallSecurity@@UAAPAXXZ
?GetTraceLevel@CWMITraceSettings@@QAAEXZ
?GetType@C9XAce@@UAAHXZ
?GetType@CExecQueue@@UAAPBGXZ
?GetType@CNtAce@@UAAHXZ
?GetType@CSafeArray@@QAAHXZ
?GetType@CVar@@QAAHXZ
?GetType@CVarVector@@QAAHXZ
?GetType@Registry@@QAAHPBGPAK@Z
?GetTypeText@CVar@@QAAPAGXZ
?GetUTC@CDateTimeParser@@QAAHXZ
?GetUnknown@CUnk@@QAAPAUIUnknown@@XZ
?GetUnknown@CUnkInternal@@QAAPAUIUnknown@@XZ
?GetUnknown@CVar@@QAAPAUIUnknown@@XZ
?GetUnknownAt@CSafeArray@@QAAPAUIUnknown@@H@Z
?GetValue@CDMTFParser@@QAAHH@Z
?GetVarVector@CVar@@QAAPAVCVarVector@@XZ
?GetVariantAt@CSafeArray@@QAA?AUtagVARIANT@@H@Z
?GetWMIADAPCmdLine@@YAPAGH@Z
?GetWMITraceSession@@YAPAXXZ
?GetWhenDoneHandle@CExecRequest@@QAAPAXXZ
?GetWord@CVar@@QAAGXZ
?GetYear@CDateTimeParser@@QAAIXZ
?GetZero@CWbemTime@@SA?AV1@XZ
?Get_WPP_INIT_TRACING_Call_State@@YA_NXZ
?Grow@CFlexQueue@@IAA_NXZ
?Grow@CSmallArrayBlob@@IAAPAV1@XZ
?Halt@CHaltable@@QAAJXZ
?HandleEmbeddedObjectProperties@CTextTemplate@@AAAPAGPAGPAUIWbemClassObject@@@Z
?HasChildren@CClientOpsNode@@QAA_NXZ
?HasOwner@CNtSecurityDescriptor@@QAAHXZ
?HasToBeEnabled@CTraceSessionControl@@QAA_NXZ
?ImpersonateClient@CWbemCallSecurity@@UAAJXZ
?InOrder@CQl1ParseSink@@UAAXJ@Z
?IncrementIndex@CFlexQueue@@IAAXAAH@Z
?Init@CPropertyName@@QAAXXZ
?Init@CPublishWMIOperationEvent@@SAJXZ
?Init@CVar@@AAAXXZ
?InitMap@CWbemInstallObject@@SAXXZ
?InitTls@CExecQueue@@KAXXZ
?InitToken@CAbstractQl1Parser@@KAXPAU_tag_WbemQl1Token@@@Z
?Initialize@CMUILocaleList@@QAAJPAG_N@Z
?Initialize@CSmallArrayBlob@@IAAXH@Z
?Initialize@CTraceSessionControl@@QAAKPBG@Z
?Initialize@CUnk@@UAAHXZ
?InitializeThread@CExecQueue@@MAAJXZ
?Insert@CClientOpsNode@@AAAXPAV1@@Z
?InsertAt@CFlexArray@@QAAHHPAX@Z
?InsertAt@CSmallArrayBlob@@QAAPAV1@HPAX@Z
?InsertAt@CVarVector@@QAAHHAAVCVar@@@Z
?InsertAt@CWStringArray@@QAAHHPBG@Z
?InternalAddRef@CUnkInternal@@QAAKXZ
?InternalQueryInterface@CUnkInternal@@QAAJABU_GUID@@PAPAX@Z
?InternalRawArrayAccess@CVarVector@@QAAJXZ
?InternalRelease@CUnkInternal@@QAAKXZ
?Intersection@CWStringArray@@SAXAAV1@00@Z
?IsAdmin@@YAHPAX@Z
?IsAppropriateThread@CExecQueue@@MAAHXZ
?IsDataNull@CVar@@QAAHXZ
?IsEmbeddedObjectProperty@CTextTemplate@@AAAHPAG@Z
?IsEmpty@CInsertionString@@QAAHXZ
?IsEmpty@CInstructionQueue@@QAAHXZ
?IsEnabled@CTraceSessionControl@@QAA_NXZ
?IsEntered@CCheckedInCritSec@@QAAHXZ
?IsEntered@CEnterWbemCriticalSection@@QAAHXZ
?IsEventEnabled@CPublishWMIOperationEvent@@SAJABU_EVENT_DESCRIPTOR@@@Z
?IsFinite@CWbemInterval@@QBAHXZ
?IsFinite@CWbemTime@@QBAHXZ
?IsHalted@CHaltable@@QAAHXZ
?IsIdleTooLong@CExecQueue@@MAAHPAVCThreadRecord@1@K@Z
?IsImpersonating@CWbemCallSecurity@@UAAHXZ
?IsInAdminGroup@@YAHXZ
?IsInitialized@CWbemInstallObject@@CA_NXZ
?IsInterval@CDMTFParser@@QAA_NXZ
?IsLocalConnection@@YAHPAUIUnknown@@@Z
?IsLocalService@@YAHPAX@Z
?IsNT@@YAHXZ
?IsNetworkService@@YAHPAX@Z
?IsNtSetupRunning@@YAHXZ
?IsNull@CVar@@QAAHXZ
?IsOffline@CWbemInstallObject@@SA_NXZ
?IsOk@CExecRequest@@QAA_NXZ
?IsOptimized@CVarVector@@QAAHXZ
?IsPrivilegePresent@@YA_NPAXJ@Z
?IsSTA@CExecQueue@@MAAHXZ
?IsSTAThread@CExecQueue@@SAHXZ
?IsSuitableThread@CExecQueue@@MAAHPAVCThreadRecord@1@PAVCExecRequest@@@Z
?IsUsed@CDMTFParser@@QAA_NH@Z
?IsUser@CNtSid@@QAA_NXZ
?IsUserInGroup@CNtSecurity@@SAHPAXAAVCNtSid@@PAH@Z
?IsValid@CDMTFParser@@QAA_NXZ
?IsValid@CNtAcl@@QAAHXZ
?IsValid@CNtSecurityDescriptor@@QAAHXZ
?IsValid@CNtSid@@QAAHXZ
?IsValidAmPmString@CDateTimeParser@@IAAHPAGPBGQAPAG@Z
?IsValidColonMillisecond@CDateTimeParser@@IAAHPAGPBG@Z
?IsValidDateTime@CDateTimeParser@@QAAHXZ
?IsValidDayNumber@CDateTimeParser@@IAAHPAGPBG@Z
?IsValidDotMillisecond@CDateTimeParser@@IAAHPAGPBG@Z
?IsValidElementName2@@YAHPBGKH@Z
?IsValidElementName@@YAHPBGK@Z
?IsValidHourNumber@CDateTimeParser@@IAAHPAGPBG@Z
?IsValidMinuteNumber@CDateTimeParser@@IAAHPAGPBG@Z
?IsValidMonthNumber@CDateTimeParser@@IAAHPAGPBG@Z
?IsValidMonthString@CDateTimeParser@@IAAHPAGPBGQAPAG2@Z
?IsValidSecondNumber@CDateTimeParser@@IAAHPAGPBG@Z
?IsValidVectorArray@CVarVector@@SAHHPAUtagSAFEARRAY@@@Z
?IsValidVectorType@CVarVector@@SAHH@Z
?IsValidYearMonthDayNumber@CDateTimeParser@@IAAHPAG@Z
?IsValidYearNumber@CDateTimeParser@@IAAHPAGPBGH@Z
?IsW2KOrMore@@YAHXZ
?IsWildcard@CDMTFParser@@QAA_NH@Z
?IsZero@CWbemInterval@@QBAHXZ
?IsZero@CWbemTime@@QBAHXZ
?LCID_To_Culture_Format@CMUILocale@@SAJKPAGI@Z
?LCID_To_ms_XXX_Format@CMUILocale@@SAJKPAGI@Z
?Leave@CCheckedInCritSec@@QAAXXZ
?Leave@CCritSec@@QAAXXZ
?Leave@CExecQueue@@QAAXXZ
?Leave@CStaticCritSec@@QAAXXZ
?Leave@CWbemCriticalSection@@QAAXXZ
?Length@WString2@@QBAHXZ
?Length@WString@@QBAHXZ
?LocaleName_To_LCID@CMUILocale@@SAJPBGPA_NPAK@Z
?Lock@?$CLockableFlexArray@VCStaticCritSec@@@@QAAXXZ
?Lock@CClientOpsNode@@QAAXXZ
?LockRegion@CBuffer@@UAAJT_ULARGE_INTEGER@@0K@Z
?LogError@CExecQueue@@MAAXPAVCExecRequest@@H@Z
?LoggingLevelEnabled@@YAHK@Z
?MakeInternalCopyOfThread@CWbemCallSecurity@@SAPAV1@XZ
?MakeOptimized@CVarVector@@QAAHHHH@Z
?MarkForRemoval@CTimerInstruction@@UAAJXZ
?Match@CLike@@QAA_NPBG@Z
?MatchSet@CLike@@IAA_NPBG0AAH@Z
?MoveToSubkey@Registry@@QAAHPBG@Z
?Mrci1Decompress@CBaseMrciCompression@@QAAIPAEI0I@Z
?Mrci1MaxCompress@CBaseMrciCompression@@QAAIPAEI0I@Z
?Mrci2Decompress@CBaseMrciCompression@@QAAIPAEI0I@Z
?Mrci2MaxCompress@CBaseMrciCompression@@QAAIPAEI0I@Z
?Next@CAbstractQl1Parser@@MAAHH@Z
?Next@CWQLScanner@@AAAHXZ
?NormalizeCimDateTime@@YAHPBGPAPAG@Z
?NotifyStartingThread@CTimerGenerator@@MAAXXZ
?NotifyStoppingThread@CTimerGenerator@@MAAXXZ
?ObjectCreated@CContainerControl@@UAAHPAUIUnknown@@@Z
?ObjectDestroyed@CContainerControl@@UAAXPAUIUnknown@@@Z
?OnInitialize@CUnk@@UAAHXZ
?Open@CEventLog@@QAAHXZ
?Open@Registry@@QAAHPAUHKEY__@@PBGK@Z
?OrderAces@CNtAcl@@QAAPAV1@XZ
?Parse@CAbstractQl1Parser@@QAAHPAVCQl1ParseSink@@H@Z
?Parse@CWQLScanner@@QAAHXZ
?Parse@QL1_Parser@@QAAHPAPAUQL_LEVEL_1_RPN_EXPRESSION@@@Z
?ParseAbsolute@CDMTFParser@@IAAXPBG@Z
?ParseDate@CDMTFParser@@IAAXPBG@Z
?ParseInterval@CDMTFParser@@IAAXPBG@Z
?ParsePart@CDMTFParser@@IAAHPBGHHPAHHH@Z
?Peek@CFlexQueue@@QAAPAXXZ
?ProcessArray@CTextTemplate@@AAAPAGABUtagVARIANT@@PAG@Z
?Publish@CPublishWMIOperationEvent@@SAJPAGKK000K0@Z
?PublishClientRequestFailure@CPublishWMIOperationEvent@@SAJPBGPAG1K10J0@Z
?PublishESSDrop@CPublishWMIOperationEvent@@SAJPAG0@Z
?PublishProviderInfo@CPublishWMIOperationEvent@@SAJKPAGK000PAUIWbemContext@@@Z
?PublishProviderStarted@CPublishWMIOperationEvent@@SAJPAGJ0K0@Z
?PublishRepDelete@CPublishWMIOperationEvent@@SAJKPAGPAUIWbemContext@@@Z
?PublishRepUpdate@CPublishWMIOperationEvent@@SAJKPAGKPAUIWbemContext@@@Z
?PublishStop@CPublishWMIOperationEvent@@SAJKJPAG@Z
?Pushback@CWQLScanner@@AAAHPAUWSLexToken@@@Z
?Query@CTraceSessionControl@@SAK_KPAGPAPAVCWMITraceSettings@@@Z
?QueryBlanket@CWbemCallSecurity@@UAAJPAK0PAPAG00PAPAX0@Z
?QueryInterface@CBuffer@@UAAJABU_GUID@@PAPAX@Z
?QueryInterface@CUnk@@UAAJABU_GUID@@PAPAX@Z
?QueryInterface@CUnkInternal@@UAAJABU_GUID@@PAPAX@Z
?QueryInterface@CWbemCallSecurity@@UAAJABU_GUID@@PAPAX@Z
?QueueUnblockedWaitForSingleObject@CExecQueue@@SAKPAXK@Z
?QueueWaitForSingleObject@CExecQueue@@SAKPAXK@Z
?Read@CBuffer@@UAAJPAXKPAK@Z
?ReadFromRegistry@CWMITraceSettings@@QAAKPBG@Z
?ReadI64@@YAHPBGAFA_J@Z
?ReadLPWSTR@CBuffer@@QAAJAAPBG@Z
?ReadUI64@@YAHPBGAFA_K@Z
?Realloc@CWin32DefaultArena@@UAAPAXPAXK@Z
?ReduceSql89Joins@CWQLScanner@@AAAHXZ
?ReduceSql92Joins@CWQLScanner@@AAAHXZ
?Register@CExecQueue@@KAXPAVCThreadRecord@1@@Z
?RegisterCMIFlushRepositoryCacheHook@CWbemInstallObject@@SAXP6AJH@Z@Z
?RegisterDLL@@YAXPAUHINSTANCE__@@U_GUID@@PAG22@Z
?RegisterDllAppid@@YAJPAUHINSTANCE__@@U_GUID@@PAG222@Z
?Release@CBasicUnloadInstruction@@UAAXXZ
?Release@CBuffer@@UAAKXZ
?Release@CContainerControl@@UAAXPAUIUnknown@@@Z
?Release@CExecQueue@@QAAXXZ
?Release@CUnk@@UAAKXZ
?Release@CUnkInternal@@UAAKXZ
?Release@CWbemCallSecurity@@UAAKXZ
?Release@QL_LEVEL_1_RPN_EXPRESSION@@QAAXXZ
?RemainsUntil@CWbemTime@@QBA?AVCWbemInterval@@ABV1@@Z
?Remove@CInstructionQueue@@QAAJPAVCInstructionTest@@PAPAVCTimerInstruction@@@Z
?Remove@CMinMaxLimitControl@@UAAJK@Z
?Remove@CTimerGenerator@@QAAJPAVCInstructionTest@@@Z
?RemoveAt@CFlexArray@@QAAHH@Z
?RemoveAt@CSafeArray@@QAAHH@Z
?RemoveAt@CSmallArrayBlob@@QAAPAV1@HPAPAX@Z
?RemoveAt@CVarVector@@QAAHH@Z
?RemoveAt@CWStringArray@@QAAHH@Z
?RemoveFileFromAutoRecoverFolder@@YAJPBG@Z
?RemoveMember@CLimitControl@@UAAJXZ
?RemoveSelf@CClientOpsNode@@QAAXXZ
?ReplaceAt@CWStringArray@@QAAHHPAG@Z
?ReplaceClassName@QL1_Parser@@SAPAGPAUQL_LEVEL_1_RPN_EXPRESSION@@PBG@Z
?Report@CEventLog@@QAAHGABU_EVENT_DESCRIPTOR@@VCInsertionString@@111111111@Z
?Requeue@CFlexQueue@@QAA_NPAX@Z
?Reread@CRegistryMinMaxLimitControl@@QAAJXZ
?Reset@CBuffer@@QAAXXZ
?Reset@CMRCIControl@@QAAXXZ
?ResetDate@CDateTimeParser@@IAAXH@Z
?ResetDateTime@CDateTimeParser@@IAAXH@Z
?ResetQueue@CFlexQueue@@QAAXXZ
?ResetTime@CDateTimeParser@@IAAXH@Z
?Resize@CNtAcl@@QAAHK@Z
?Resume@CHaltable@@QAAJXZ
?ResumeAll@CHaltable@@QAAJXZ
?RetrieveSidFromCall@@YAJAAVCNtSid@@@Z
?RetrieveSidFromCall@CIdentitySecurity@@AAAJAAVCNtSid@@@Z
?RetrieveSidFromToken@@YAJPAXAAVCNtSid@@@Z
?ReturnEscapedReturns@CTextTemplate@@AAAPAGPAG@Z
?Revert@CBuffer@@UAAJXZ
?RevertToSelf@CWbemCallSecurity@@UAAJXZ
?ScheduleFreeUnusedLibraries@CTimerGenerator@@QAAXXZ
?SchedulerThread@CTimerGenerator@@CAKPAX@Z
?SearchForRecord@CEventLog@@IAAHPAVCEventLogRecord@@@Z
?SearchForSuitableRequest@CExecQueue@@MAAPAVCExecRequest@@PAVCThreadRecord@1@@Z
?Seek@CBuffer@@UAAJT_LARGE_INTEGER@@KPAT_ULARGE_INTEGER@@@Z
?SelectList@CWQLScanner@@AAAHXZ
?Serialize@C9XAce@@UAA_NPAEI@Z
?Serialize@CNtAce@@UAA_NPAEI@Z
?Set100nss@CWbemTime@@QAAX_J@Z
?Set@CTimerGenerator@@QAAJPAVCTimerInstruction@@VCWbemTime@@@Z
?SetAggregated@QL_LEVEL_1_RPN_EXPRESSION@@UAAXXZ
?SetAggregationTolerance@QL_LEVEL_1_RPN_EXPRESSION@@UAAXABU_tag_WbemQl1Tolerance@@@Z
?SetAreaFlags@CWMITraceSettings@@QAAXK@Z
?SetAsNull@CVar@@QAAXXZ
?SetAt@CFlexArray@@QAAXHPAX@Z
?SetAt@CSmallArrayBlob@@QAAPAV1@HPAXPAPAX@Z
?SetAt@CWStringArray@@QAAHHPBG@Z
?SetAutoRecoverFolder@CWbemInstallObject@@SAXPBG@Z
?SetBSTR@CVar@@QAAHPAG@Z
?SetBSTR@CVar@@QAAHVauto_bstr@@@Z
?SetBSTRAt@CSafeArray@@QAAHHPAG@Z
?SetBinary@Registry@@QAAHPBGPAEK@Z
?SetBinaryPath@CWbemInstallObject@@SAXPBG@Z
?SetBlob@CVar@@QAAXPAUtagBLOB@@H@Z
?SetBool@CVar@@QAAXF@Z
?SetBoolAt@CSafeArray@@QAAHHF@Z
?SetByte@CVar@@QAAXE@Z
?SetByteAt@CSafeArray@@QAAHHE@Z
?SetCanDelete@CVar@@QAAXH@Z
?SetChar@CVar@@QAAXD@Z
?SetClassName@QL_LEVEL_1_RPN_EXPRESSION@@UAAXPBG@Z
?SetClsId@CVar@@QAAXPAU_GUID@@H@Z
?SetCountQuery@QL_LEVEL_1_RPN_EXPRESSION@@UAAXXZ
?SetDMTF@CWbemTime@@QAAHPBG@Z
?SetDWORD@CVar@@QAAXK@Z
?SetDWORD@Registry@@QAAHPBGK@Z
?SetDWORDStr@Registry@@QAAHPBGK@Z
?SetDacl@CNtSecurityDescriptor@@QAAHPAVCNtAcl@@@Z
?SetDate@CDatePart@@QAAJPBD@Z
?SetDate@CDatePart@@QAAJPBG@Z
?SetDateTime@CDateTimeParser@@QAAHPBG@Z
?SetDefaultValues@CWMITraceSettings@@QAAKXZ
?SetDestructorPolicy@CSafeArray@@QAAXH@Z
?SetDispatch@CVar@@QAAXPAUIDispatch@@@Z
?SetDispatchAt@CSafeArray@@QAAHHPAUIDispatch@@@Z
?SetDouble@CVar@@QAAXN@Z
?SetDoubleAt@CSafeArray@@QAAHHN@Z
?SetEmbeddedObject@CVar@@QAAXPAUIUnknown@@@Z
?SetExpandStr@Registry@@QAAHPBG0@Z
?SetExpression@CLike@@QAAXPBGG@Z
?SetFailure@CStaticCritSec@@SAXXZ
?SetFileTime@CVar@@QAAXPAU_FILETIME@@@Z
?SetFileTime@CWbemTime@@QAAHABU_FILETIME@@@Z
?SetFlags@C9XAce@@UAAXJ@Z
?SetFlags@CNtAce@@UAAXJ@Z
?SetFloat@CVar@@QAAXM@Z
?SetFloatAt@CSafeArray@@QAAHHM@Z
?SetFromAbsoluteCopy@CNtSecurityDescriptor@@QAAHPAUSNtAbsoluteSD@@@Z
?SetGroup@CNtSecurityDescriptor@@QAAHPAVCNtSid@@@Z
?SetGrowGranularity@CSafeArray@@QAAXH@Z
?SetHandle@CPropertyName@@QAAXPAX@Z
?SetIdleTimeout@CExecQueue@@QAAXK@Z
?SetInfo@CClientOpsNode@@QAAXPAX@Z
?SetInterval@CBasicUnloadInstruction@@QAAXAAVCWbemInterval@@@Z
?SetLPSTR@CVar@@QAAHPADH@Z
?SetLPWSTR@CVar@@QAAHPAGH@Z
?SetLogingEnabled@CMemoryLog@@QAAX_N@Z
?SetLong@CVar@@QAAXJ@Z
?SetLongAt@CSafeArray@@QAAHHJ@Z
?SetMax@CMinMaxLimitControl@@QAAXK@Z
?SetMilliseconds@CWbemInterval@@QAAXK@Z
?SetMin@CMinMaxLimitControl@@QAAXK@Z
?SetMultiStr@Registry@@QAAHPBGPAGK@Z
?SetNext@CExecRequest@@QAAXPAV1@@Z
?SetObjectAccess2@@YAHPAX@Z
?SetOffline@CWbemInstallObject@@SAX_N@Z
?SetOverflowIdleTimeout@CExecQueue@@QAAXK@Z
?SetOwner@CNtSecurityDescriptor@@QAAHPAVCNtSid@@@Z
?SetPersistentCfgValue@CPersistentConfig@@QAAHKK@Z
?SetPreferredLanguages@CMUILocale@@SAJKPBGPAK@Z
?SetPriority@CExecRequest@@QAAXJ@Z
?SetQWORD@Registry@@QAAHPBG_K@Z
?SetRaw@CVar@@QAAXHPAXH@Z
?SetRawArrayBinding@CVarVector@@QAAXH@Z
?SetRawArrayData@CVarVector@@QAAJPAXHH@Z
?SetRawArrayMaxElement@CSafeArray@@QAAXH@Z
?SetRawArraySize@CVarVector@@QAAHH@Z
?SetRawData@CSafeArray@@QAAHPAXHH@Z
?SetRegistryPathCIMOM@CWbemInstallObject@@SAXPBG@Z
?SetRegistryPathWbem@CWbemInstallObject@@SAXPBG@Z
?SetRepositoryFolder@CWbemInstallObject@@SAXPBG@Z
?SetRequestLimits@CExecQueue@@QAAXJJJ@Z
?SetSacl@CNtSecurityDescriptor@@QAAHPAVCNtAcl@@@Z
?SetSafeArray@CVar@@QAAXHPAUtagSAFEARRAY@@@Z
?SetScalarAt@CSafeArray@@AAAHHTSA_ArrayScalar@@@Z
?SetShort@CVar@@QAAXF@Z
?SetShortAt@CSafeArray@@QAAHHF@Z
?SetSize@CBuffer@@QAAJK@Z
?SetSize@CBuffer@@UAAJT_ULARGE_INTEGER@@@Z
?SetSize@CFlexArray@@QAAXH@Z
?SetSleepAtMax@CMinMaxLimitControl@@QAAXK@Z
?SetStr@Registry@@QAAHPBG0@Z
?SetSystemTime@CWbemTime@@QAAHABU_SYSTEMTIME@@@Z
?SetTemplate@CTextTemplate@@QAAXPBG@Z
?SetThreadLimits@CExecQueue@@QAAXJJJ@Z
?SetTolerance@QL_LEVEL_1_RPN_EXPRESSION@@UAAXABU_tag_WbemQl1Tolerance@@@Z
?SetTraceLevel@CWMITraceSettings@@QAAXE@Z
?SetUnknown@CVar@@QAAXPAUIUnknown@@@Z
?SetUnknownAt@CSafeArray@@QAAHHPAUIUnknown@@@Z
?SetVarVector@CVar@@QAAXPAVCVarVector@@H@Z
?SetVariant@CVar@@QAAHPAUtagVARIANT@@H@Z
?SetVariantAt@CSafeArray@@QAAHHPAUtagVARIANT@@@Z
?SetWMITraceSession@@YAXPAX@Z
?SetWhenDoneHandle@CExecRequest@@QAAXPAX@Z
?SetWord@CVar@@QAAXG@Z
?Set_WPP_INIT_TRACING_Call_State@@YAX_N@Z
?Shrink@CSmallArrayBlob@@IAAPAV1@XZ
?ShrinkIfNeeded@CSmallArrayBlob@@IAAPAV1@XZ
?Shutdown@CExecQueue@@QAAXXZ
?Shutdown@CTimerGenerator@@UAAJXZ
?Shutdown@CWbemInstallObject@@SAXXZ
?ShutdownThread@CExecQueue@@MAAXPAVCThreadRecord@1@@Z
?SitOutPenalty@CExecQueue@@MAAXJ@Z
?Size@CFlexArray@@QBAHXZ
?Size@CSafeArray@@QAAHXZ
?Size@CSmallArrayBlob@@QBAHXZ
?Size@CVarVector@@QAAHXZ
?Size@CWStringArray@@QBAHXZ
?Sort@CFlexArray@@QAAXXZ
?Sort@CSmallArrayBlob@@QAAXXZ
?Sort@CWStringArray@@QAAXXZ
?Start@CTraceSessionControl@@SAKPBU_GUID@@PAVCWMITraceSettings@@@Z
?Stat@CBuffer@@UAAJPAUtagSTATSTG@@K@Z
?Status@CSafeArray@@QAAHXZ
?Status@CVar@@QAAHXZ
?Status@CVarVector@@QAAHXZ
?StripToToken@WString2@@QAAAAV1@GH@Z
?StripToToken@WString@@QAAAAV1@GH@Z
?StripWhereClause@CWQLScanner@@AAAHXZ
?StripWs@WString2@@QAAAAV1@H@Z
?StripWs@WString@@QAAAAV1@H@Z
?SwitchRow@CLike@@AAAXIAAPAE0@Z
?Terminate@CBasicUnloadInstruction@@QAAXXZ
?TestDirExistAndCreateWithSDIfNotThere@@YAJPAG0@Z
?ThreadMain@CExecQueue@@MAAXPAVCThreadRecord@1@@Z
?Throttle@@YAJKKKKK@Z
?TimeFormat1@CDateTimeParser@@IAAHPBGH@Z
?TimeFormat2@CDateTimeParser@@IAAHPBGH@Z
?TimeFormat3@CDateTimeParser@@IAAHPBGH@Z
?TimeFormat4@CDateTimeParser@@IAAHPBGH@Z
?TimeFormat5@CDateTimeParser@@IAAHPBGH@Z
?TimeFormat6@CDateTimeParser@@IAAHPBGH@Z
?TimeFormat7@CDateTimeParser@@IAAHPBGH@Z
?TimeFormat8@CDateTimeParser@@IAAHPBGH@Z
?TimeFormat9@CDateTimeParser@@IAAHPBGH@Z
?TimeToWait@CInstructionQueue@@IAA?AVCWbemInterval@@XZ
?ToSingleChar@CVar@@QAAHXZ
?ToSingleChar@CVarVector@@QAAHXZ
?ToUI4@CVar@@QAAHXZ
?ToUI4@CVarVector@@QAAHXZ
?TouchHead@CInstructionQueue@@IAAXXZ
?Transform@MD5@@SAXPAXIQAE@Z
?Transform@SHA256@@SAXPAXIQAE@Z
?TranslateIntrinsic@CAbstractQl1Parser@@KAKPBG@Z
?Trim@CFlexArray@@QAAXXZ
?Trim@CSafeArray@@QAAHXZ
?Trim@CSmallArrayBlob@@QAAXXZ
?TruncAtLToken@WString2@@QAAAAV1@G@Z
?TruncAtLToken@WString@@QAAAAV1@G@Z
?TruncAtRToken@WString2@@QAAAAV1@G@Z
?TruncAtRToken@WString@@QAAAAV1@G@Z
?TypeToText@CVar@@SAPAGH@Z
?UnRegisterDLL@@YAXU_GUID@@PAG@Z
?Unaccess@CSafeArray@@QAAJXZ
?UnaccessRawArray@CVarVector@@QAAJXZ
?UnbindPtr@CFlexArray@@QAAPAPAXXZ
?UnbindPtr@WString2@@QAAPAGXZ
?UnbindPtr@WString@@QAAPAGXZ
?UnblockedWaitForSingleObject@CExecQueue@@MAAKPAXKPAVCThreadRecord@1@@Z
?UncompressBuffer@CMRCICompression@@QAAIPAEK0KW4CompressionLevel@1@@Z
?UncompressFile@CMRCICompression@@QAAHPBG0@Z
?UncompressFileV1@CMRCICompression@@IAAHHH@Z
?UninitializeThread@CExecQueue@@MAAXXZ
?Union@CWStringArray@@SAXAAV1@00@Z
?Unlock@?$CLockableFlexArray@VCStaticCritSec@@@@QAAXXZ
?Unlock@CClientOpsNode@@QAAXXZ
?UnlockRegion@CBuffer@@UAAJT_ULARGE_INTEGER@@0K@Z
?Unqueue@CFlexQueue@@QAAPAXXZ
?Unquote@WString2@@QAAXXZ
?Unquote@WString@@QAAXXZ
?UnregisterCMIFlushRepositoryCacheHook@CWbemInstallObject@@SAXXZ
?UnregisterDllAppid@@YAJU_GUID@@@Z
?UpdateChildren@CClientOpsNode@@AAAXPAV1@@Z
?ValidateMemSize@CWin32DefaultArena@@SAHH@Z
?WMIControlCallback@@YAK_KPAEPAK@Z
?WMIControlClientOpsCallback@@YAK_KPAEPAK@Z
?WaitAndPeek@CInstructionQueue@@QAAJAAPAVCTimerInstruction@@AAVCWbemTime@@@Z
?WaitForResumption@CHaltable@@QAAJXZ
?WaitForSingleObjectWhileBusy@CExecQueue@@MAAKPAXKPAVCThreadRecord@1@@Z
?WbemGetMachineShutdown@@YAHXZ
?WbemHeapFree@CWin32DefaultArena@@SAXXZ
?WbemHeapInitialize@CWin32DefaultArena@@SAHPAX@Z
?WbemMemAlloc@CWin32DefaultArena@@SAPAXK@Z
?WbemMemFree@CWin32DefaultArena@@SAHPAX@Z
?WbemMemReAlloc@CWin32DefaultArena@@SAPAXPAXK@Z
?WbemMemSize@CWin32DefaultArena@@SAKPAX@Z
?WbemOutOfMemory@CWin32DefaultArena@@SAHXZ
?WbemSetDynamicCloaking@@YAJPAUIUnknown@@KK@Z
?WbemSetMachineShutdown@@YAHH@Z
?WbemSysAllocString@CWin32DefaultArena@@SAPAGPBG@Z
?WbemSysAllocStringByteLen@CWin32DefaultArena@@SAPAGPBDI@Z
?WbemSysAllocStringLen@CWin32DefaultArena@@SAPAGPBGI@Z
?WbemSysFreeString@CWin32DefaultArena@@SAXPAG@Z
?WbemSysReAllocString@CWin32DefaultArena@@SAHPAPAGPBG@Z
?WbemSysReAllocStringLen@CWin32DefaultArena@@SAHPAPAGPBGI@Z
?WbemVariantChangeType@@YAJPAUtagVARIANT@@0G@Z
?WildcardTest@WString@@QBAHPBG@Z
?WinPEKey@@YAHXZ
?Write@CBuffer@@UAAJPBXKPAK@Z
?Write@CMemoryLog@@QAAXJ@Z
?Write@CMemoryLog@@QAAXPAXK@Z
?WriteLPWSTR@CBuffer@@QAAJPBG@Z
?WriteToRegistry@CWMITraceSettings@@QAAKPBG@Z
?_Alloc@CMUILocale@@SAPAXI@Z
?_DoTraceHRFailure_@@YAXJ@Z
?_Free@CMUILocale@@SAHPAX@Z
?_GetSystemDefaultLocale@CMUILocale@@SAJPAPAGK@Z
?_GetSystemDefaultLocaleName@CMUILocale@@SAJPAPAG@Z
?_GetThreadPreferredUILanguages@CMUILocale@@SAJKPAKPAG0@Z
?_IsValidElementName@@YAHPBGK0@Z
?_LCIDToLocaleName@CMUILocale@@SAJKPAGHK@Z
?_LocaleNameToLCID@CMUILocale@@SAJPAGKPAK@Z
?_SetThreadPreferredUILanguages@CMUILocale@@SAJKPBGPAK@Z
?_ThreadEntry@CExecQueue@@KAKPAX@Z
?_ThrowMemoryException_@@YAXXZ
?aggregate_by@CAbstractQl1Parser@@IAAHXZ
?aggregate_within@CAbstractQl1Parser@@IAAHXZ
?aggregation_params@CAbstractQl1Parser@@IAAHXZ
?anyFailed_@CStaticCritSec@@0HA DATA
?anyFailure@CStaticCritSec@@SAHXZ
?bAreWeLocal@@YAHPAG@Z
?charbuf@CBaseMrciCompression@@AAAXI@Z
?class_name@CAbstractQl1Parser@@IAAHXZ
?comp_operator@CAbstractQl1Parser@@IAAHXZ
?equiv_operator@CAbstractQl1Parser@@IAAHXZ
?expandstring@CBaseMrciCompression@@AAAXPAPAEII@Z
?expr2@CAbstractQl1Parser@@IAAHXZ
?expr@CAbstractQl1Parser@@IAAHXZ
?finalize@CAbstractQl1Parser@@IAAHXZ
?getbit@CBaseMrciCompression@@AAAIXZ
?getbits@CBaseMrciCompression@@AAAII@Z
?inithash@CBaseMrciCompression@@AAAXXZ
?isValid@CHaltable@@QAA_NXZ
?is_operator@CAbstractQl1Parser@@IAAHXZ
?isunialpha@@YAHG@Z
?isunialphanum@@YAHG@Z
?leading_ident_expr@CAbstractQl1Parser@@IAAHXZ
?m_bOffline@CWbemInstallObject@@0_NA DATA
?m_csFunctionPointers@CMUILocale@@0VCCritSec@@A DATA
?m_csFunctionPointers@CPublishWMIOperationEvent@@0VCCritSec@@A DATA
?m_csGlobal@CClientOpsNode@@0VCCritSec@@A DATA
?m_fEventActivityIdControl@CPublishWMIOperationEvent@@2P6AKKPAU_GUID@@@ZA DATA
?m_fEventEnabled@CPublishWMIOperationEvent@@0P6AE_KPBU_EVENT_DESCRIPTOR@@@ZA DATA
?m_fEventRegister@CPublishWMIOperationEvent@@0P6AKPBU_GUID@@P6AX0KE_K1PAU_EVENT_FILTER_DESCRIPTOR@@PAX@Z3PA_K@ZA DATA
?m_fEventUnregister@CPublishWMIOperationEvent@@0P6AK_K@ZA DATA
?m_fEventWrite@CPublishWMIOperationEvent@@0P6AK_KPAU_EVENT_DESCRIPTOR@@KPAU_EVENT_DATA_DESCRIPTOR@@@ZA DATA
?m_fEventWriteTransfer@CPublishWMIOperationEvent@@2P6AK_KPBU_EVENT_DESCRIPTOR@@PBU_GUID@@2KPAU_EVENT_DATA_DESCRIPTOR@@@ZA DATA
?m_fGetLocaleInfoEx@CMUILocale@@0PAXA DATA
?m_fGetSystemDefaultLocaleName@CMUILocale@@0PAXA DATA
?m_fGetThreadPreferredUILanguages@CMUILocale@@0PAXA DATA
?m_fLCIDToLocaleName@CMUILocale@@0PAXA DATA
?m_fLocaleNameToLCID@CMUILocale@@0PAXA DATA
?m_fSetThreadPreferredUILanguages@CMUILocale@@0PAXA DATA
?m_hAdvAPI32@CPublishWMIOperationEvent@@0PAUHINSTANCE__@@A DATA
?m_hKernel32@CMUILocale@@0PAUHINSTANCE__@@A DATA
?m_pEnvironmentMap@CWbemInstallObject@@0PAV?$map@PBGPBGU?$SZLess@PBG@@V?$wbem_allocator@PBG@@@std@@A DATA
?m_pfFlushCache@CWbemInstallObject@@0P6AJH@ZA DATA
?m_publisher@CPublishWMIOperationEvent@@2_KA DATA
?m_pwszAutoRecoverPath@CWbemInstallObject@@0PBGB DATA
?m_pwszBinaryPath@CWbemInstallObject@@0PBGB DATA
?m_pwszRegistryPathCIMOM@CWbemInstallObject@@0PBGB DATA
?m_pwszRegistryPathWbem@CWbemInstallObject@@0PBGB DATA
?m_pwszRepositoryPath@CWbemInstallObject@@0PBGB DATA
?m_rgClsidDllMap@CWbemInstallObject@@0PAUClsidDllMapping@@A DATA
?m_rgDllModules@CWbemInstallObject@@0PAUDllModuleHandle@@A DATA
?mrci1outsingle@CBaseMrciCompression@@AAAXI@Z
?mrci1outstring@CBaseMrciCompression@@AAAXII@Z
?mrci2outsingle@CBaseMrciCompression@@AAAXI@Z
?mrci2outstring@CBaseMrciCompression@@AAAXII@Z
?ms_XXX_Locale_From_LCID@CMUILocale@@SAJKPAPAG@Z
?ms_XXX_Locale_To_LCID@CMUILocale@@SAJPBGPAK@Z
?mstatic_dwTlsIndex@@3KA DATA
?mstatic_lNumInits@CExecQueue@@1JA DATA
?opt_aggregation@CAbstractQl1Parser@@IAAHXZ
?opt_having@CAbstractQl1Parser@@IAAHXZ
?opt_where@CAbstractQl1Parser@@IAAHXZ
?outlength@CBaseMrciCompression@@AAAXI@Z
?parse@CAbstractQl1Parser@@IAAHH@Z
?parse_property_name@CAbstractQl1Parser@@IAAHAAVCPropertyName@@@Z
?prop_list@CAbstractQl1Parser@@IAAHXZ
?prop_list_2@CAbstractQl1Parser@@IAAHXZ
?property_name@CAbstractQl1Parser@@IAAHXZ
?putbits@CBaseMrciCompression@@AAAXII@Z
?rel_operator@CAbstractQl1Parser@@IAAHXZ
?sMatachedWithOneChar@CLike@@0EB
?sMatachedWithWildcardChar@CLike@@0EB
?sNoMatch@CLike@@0EB
?simple_expr@CAbstractQl1Parser@@IAAHXZ
?staticRead@CBasicUnloadInstruction@@SA?AVCWbemInterval@@PAUIWbemServices@@PAUIWbemContext@@PBG@Z
?term2@CAbstractQl1Parser@@IAAHXZ
?term@CAbstractQl1Parser@@IAAHXZ
?tolerance@CAbstractQl1Parser@@IAAHXZ
?trailing_const_expr@CAbstractQl1Parser@@IAAHXZ
?trailing_ident_expr@CAbstractQl1Parser@@IAAHXZ
?trailing_or_null@CAbstractQl1Parser@@IAAHXZ
?trailing_prop_expr@CAbstractQl1Parser@@IAAHXZ
?typed_constant@CAbstractQl1Parser@@IAAHXZ
