;
; Definition file of wsmandisp.dll
; Automatic generated by gendef
; written by Kai Tietz 2008-2014
;
LIBRARY "wsmandisp.dll"
EXPORTS
??0?$AutoCleanup@V?$AutoDelete@VResources@Locale@@@@PAVResources@Locale@@@@QAA@PAVResources@Locale@@@Z
??0?$AutoCleanup@V?$AutoDeleteVector@E@@PAE@@QAA@PAE@Z
??0?$AutoCleanup@V?$AutoDeleteVector@G@@PAG@@QAA@PAG@Z
??0?$AutoCleanup@V?$AutoFree@E@@PAE@@QAA@PAE@Z
??0?$AutoCleanup@V?$AutoRelease@VCRequestContext@@@@PAVCRequestContext@@@@QAA@PAVCRequestContext@@@Z
??0?$AutoCleanup@V?$AutoRelease@VCWSManSecurityUI@@@@PAVCWSManSecurityUI@@@@QAA@PAVCWSManSecurityUI@@@Z
??0?$AutoCleanup@VAutoBstr@@PAG@@QAA@PAG@Z
??0?$AutoCleanup@VAutoBstr@@PAG@@QAA@XZ
??0?$AutoCleanup@VAutoBstrNoAlloc@@PAG@@QAA@PAG@Z
??0?$AutoCleanup@VAutoBstrNoAlloc@@PAG@@QAA@XZ
??0?$AutoCleanup@VAutoCertContext@@PBU_CERT_CONTEXT@@@@QAA@PBU_CERT_CONTEXT@@@Z
??0?$AutoCleanup@VAutoCertContext@@PBU_CERT_CONTEXT@@@@QAA@XZ
??0?$AutoCleanup@VAutoChainContext@@PBU_CERT_CHAIN_CONTEXT@@@@QAA@PBU_CERT_CHAIN_CONTEXT@@@Z
??0?$AutoCleanup@VAutoChainContext@@PBU_CERT_CHAIN_CONTEXT@@@@QAA@XZ
??0?$AutoCleanup@VAutoCoTaskMemFree@@PAX@@QAA@PAX@Z
??0?$AutoCleanup@VAutoCoTaskMemFree@@PAX@@QAA@XZ
??0?$AutoCleanup@VAutoEnvironmentBlock@@PAX@@QAA@PAX@Z
??0?$AutoCleanup@VAutoEnvironmentBlock@@PAX@@QAA@XZ
??0?$AutoCleanup@VAutoFwXmlCloseParser@@PAX@@QAA@PAX@Z
??0?$AutoCleanup@VAutoFwXmlCloseParser@@PAX@@QAA@XZ
??0?$AutoCleanup@VAutoHandle@@PAX@@QAA@PAX@Z
??0?$AutoCleanup@VAutoHandle@@PAX@@QAA@XZ
??0?$AutoCleanup@VAutoImpersonateUser@@PAX@@QAA@PAX@Z
??0?$AutoCleanup@VAutoImpersonateUser@@PAX@@QAA@XZ
??0?$AutoCleanup@VAutoLibrary@@PAUHINSTANCE__@@@@QAA@PAUHINSTANCE__@@@Z
??0?$AutoCleanup@VAutoLibrary@@PAUHINSTANCE__@@@@QAA@XZ
??0?$AutoCleanup@VAutoLocalFree@@PAX@@QAA@PAX@Z
??0?$AutoCleanup@VAutoLocalFree@@PAX@@QAA@XZ
??0?$AutoCleanup@VAutoMIClass@@PAU_MI_Class@@@@QAA@PAU_MI_Class@@@Z
??0?$AutoCleanup@VAutoMIClass@@PAU_MI_Class@@@@QAA@XZ
??0?$AutoCleanup@VAutoMIInstance@@PAU_MI_Instance@@@@QAA@PAU_MI_Instance@@@Z
??0?$AutoCleanup@VAutoMIInstance@@PAU_MI_Instance@@@@QAA@XZ
??0?$AutoCleanup@VAutoObject@@PAUWSMAN_OBJECT@@@@QAA@PAUWSMAN_OBJECT@@@Z
??0?$AutoCleanup@VAutoObject@@PAUWSMAN_OBJECT@@@@QAA@XZ
??0?$AutoCleanup@VAutoRegKey@@PAUHKEY__@@@@QAA@PAUHKEY__@@@Z
??0?$AutoCleanup@VAutoRegKey@@PAUHKEY__@@@@QAA@XZ
??0?$AutoCleanup@VAutoSecurityDescriptor@@PAX@@QAA@PAX@Z
??0?$AutoCleanup@VAutoSecurityDescriptor@@PAX@@QAA@XZ
??0?$AutoCleanup@VAutoWaitHandle@@PAX@@QAA@PAX@Z
??0?$AutoCleanup@VAutoWaitHandle@@PAX@@QAA@XZ
??0?$AutoDelete@VResources@Locale@@@@QAA@PAVResources@Locale@@@Z
??0?$AutoDeleteVector@E@@QAA@XZ
??0?$AutoDeleteVector@G@@QAA@PAG@Z
??0?$AutoDeleteVector@G@@QAA@XZ
??0?$AutoFree@E@@QAA@PAE@Z
??0?$AutoRelease@VCRequestContext@@@@QAA@PAVCRequestContext@@@Z
??0?$AutoRelease@VCWSManSecurityUI@@@@QAA@XZ
??0?$ILoader@VResources@Locale@@@@QAA@P8Resources@Locale@@AA_NAAVIRequestContext@@@Z1@Z
??0?$LoaderSerializer@VResources@Locale@@$0A@@@QAA@P8Resources@Locale@@AA_NAAVIRequestContext@@@Z1@Z
??0?$SafeMap@VKey@Locale@@KV?$SafeMap_Iterator@VKey@Locale@@K@@@@QAA@XZ
??0?$SafeMap_Iterator@VKey@Locale@@K@@QAA@AAV?$SafeMap@VKey@Locale@@KV?$SafeMap_Iterator@VKey@Locale@@K@@@@_N@Z
??0?$SafeMap_Lock@VKey@Locale@@KV?$SafeMap_Iterator@VKey@Locale@@K@@@@QAA@ABV?$SafeMap@VKey@Locale@@KV?$SafeMap_Iterator@VKey@Locale@@K@@@@_N@Z
??0?$SimpleQueue@T_LARGE_INTEGER@@@@QAA@XZ
??0AutoBstr@@QAA@PAG@Z
??0AutoBstr@@QAA@XZ
??0AutoBstrNoAlloc@@QAA@PAG@Z
??0AutoBstrNoAlloc@@QAA@XZ
??0AutoCertContext@@QAA@PBU_CERT_CONTEXT@@@Z
??0AutoCertContext@@QAA@XZ
??0AutoChainContext@@QAA@PBU_CERT_CHAIN_CONTEXT@@@Z
??0AutoChainContext@@QAA@XZ
??0AutoCoTaskMemFree@@QAA@PAX@Z
??0AutoCoTaskMemFree@@QAA@XZ
??0AutoEnvironmentBlock@@QAA@PAX@Z
??0AutoEnvironmentBlock@@QAA@XZ
??0AutoFwXmlCloseParser@@QAA@PAX@Z
??0AutoFwXmlCloseParser@@QAA@XZ
??0AutoHandle@@QAA@PAX@Z
??0AutoHandle@@QAA@XZ
??0AutoImpersonateUser@@QAA@PAX@Z
??0AutoImpersonateUser@@QAA@XZ
??0AutoLibrary@@QAA@PAUHINSTANCE__@@@Z
??0AutoLibrary@@QAA@XZ
??0AutoLocalFree@@QAA@PAX@Z
??0AutoLocalFree@@QAA@XZ
??0AutoMIClass@@QAA@PAU_MI_Class@@@Z
??0AutoMIClass@@QAA@XZ
??0AutoMIInstance@@QAA@PAU_MI_Instance@@@Z
??0AutoMIInstance@@QAA@XZ
??0AutoObject@@QAA@PAUWSMAN_OBJECT@@@Z
??0AutoObject@@QAA@XZ
??0AutoRegKey@@QAA@PAUHKEY__@@@Z
??0AutoRegKey@@QAA@XZ
??0AutoSecurityDescriptor@@QAA@PAX@Z
??0AutoSecurityDescriptor@@QAA@XZ
??0AutoWaitHandle@@QAA@PAX@Z
??0AutoWaitHandle@@QAA@XZ
??0BufferFormatter@@QAA@PAEK@Z
??0BufferFormatter@@QAA@XZ
??0CWSManResource@@QAA@H@Z
??0ChildLifeTimeManager@@QAA@XZ
??0CircularBufferFormatter@@QAA@XZ
??0EtwCorrelationHelper@@QAA@ABV0@@Z
??0FastLock@@QAA@XZ
??0ILifeTimeMgmt@@QAA@ABV0@@Z
??0ILifeTimeMgmt@@QAA@XZ
??0IRequestContext@@IAA@XZ
??0OwnLock@@QAA@AAVFastLock@@@Z
??0ShareLock@@QAA@AAVFastLock@@@Z
??1?$AutoCleanup@V?$AutoDelete@G@@PAG@@QAA@XZ
??1?$AutoCleanup@V?$AutoDelete@VResources@Locale@@@@PAVResources@Locale@@@@QAA@XZ
??1?$AutoCleanup@V?$AutoDeleteVector@E@@PAE@@QAA@XZ
??1?$AutoCleanup@V?$AutoDeleteVector@G@@PAG@@QAA@XZ
??1?$AutoCleanup@V?$AutoDeleteVector@PBG@@PAPBG@@QAA@XZ
??1?$AutoCleanup@V?$AutoDeleteVector@U_WSMAN_OPTION@@@@PAU_WSMAN_OPTION@@@@QAA@XZ
??1?$AutoCleanup@V?$AutoFree@E@@PAE@@QAA@XZ
??1?$AutoCleanup@V?$AutoRelease@VCRequestContext@@@@PAVCRequestContext@@@@QAA@XZ
??1?$AutoCleanup@V?$AutoRelease@VCWSManSecurityUI@@@@PAVCWSManSecurityUI@@@@QAA@XZ
??1?$AutoCleanup@VAutoBstr@@PAG@@QAA@XZ
??1?$AutoCleanup@VAutoBstrNoAlloc@@PAG@@QAA@XZ
??1?$AutoCleanup@VAutoCertContext@@PBU_CERT_CONTEXT@@@@QAA@XZ
??1?$AutoCleanup@VAutoChainContext@@PBU_CERT_CHAIN_CONTEXT@@@@QAA@XZ
??1?$AutoCleanup@VAutoCoTaskMemFree@@PAX@@QAA@XZ
??1?$AutoCleanup@VAutoEnvironmentBlock@@PAX@@QAA@XZ
??1?$AutoCleanup@VAutoFwXmlCloseParser@@PAX@@QAA@XZ
??1?$AutoCleanup@VAutoHandle@@PAX@@QAA@XZ
??1?$AutoCleanup@VAutoImpersonateUser@@PAX@@QAA@XZ
??1?$AutoCleanup@VAutoLibrary@@PAUHINSTANCE__@@@@QAA@XZ
??1?$AutoCleanup@VAutoLocalFree@@PAX@@QAA@XZ
??1?$AutoCleanup@VAutoMIClass@@PAU_MI_Class@@@@QAA@XZ
??1?$AutoCleanup@VAutoMIInstance@@PAU_MI_Instance@@@@QAA@XZ
??1?$AutoCleanup@VAutoObject@@PAUWSMAN_OBJECT@@@@QAA@XZ
??1?$AutoCleanup@VAutoRegKey@@PAUHKEY__@@@@QAA@XZ
??1?$AutoCleanup@VAutoSecurityDescriptor@@PAX@@QAA@XZ
??1?$AutoCleanup@VAutoWaitHandle@@PAX@@QAA@XZ
??1?$AutoDelete@G@@QAA@XZ
??1?$AutoDelete@VResources@Locale@@@@QAA@XZ
??1?$AutoDeleteVector@E@@QAA@XZ
??1?$AutoDeleteVector@G@@QAA@XZ
??1?$AutoDeleteVector@PBG@@QAA@XZ
??1?$AutoDeleteVector@U_WSMAN_OPTION@@@@QAA@XZ
??1?$AutoFree@E@@QAA@XZ
??1?$AutoRelease@VCRequestContext@@@@QAA@XZ
??1?$AutoRelease@VCWSManSecurityUI@@@@QAA@XZ
??1?$ILoader@VResources@Locale@@@@QAA@XZ
??1?$Loader@VResources@Locale@@$0A@@@QAA@XZ
??1?$LoaderSerializer@VResources@Locale@@$0A@@@QAA@XZ
??1?$SafeMap@VKey@Locale@@KV?$SafeMap_Iterator@VKey@Locale@@K@@@@QAA@XZ
??1?$SafeMap_Iterator@VKey@Locale@@K@@QAA@XZ
??1?$SafeMap_Lock@VKey@Locale@@KV?$SafeMap_Iterator@VKey@Locale@@K@@@@QAA@XZ
??1?$SimpleQueue@T_LARGE_INTEGER@@@@QAA@XZ
??1AutoBstr@@QAA@XZ
??1AutoBstrNoAlloc@@QAA@XZ
??1AutoCertContext@@QAA@XZ
??1AutoChainContext@@QAA@XZ
??1AutoCoTaskMemFree@@QAA@XZ
??1AutoEnvironmentBlock@@QAA@XZ
??1AutoFwXmlCloseParser@@QAA@XZ
??1AutoHandle@@QAA@XZ
??1AutoImpersonateUser@@QAA@XZ
??1AutoLibrary@@QAA@XZ
??1AutoLocalFree@@QAA@XZ
??1AutoMIClass@@QAA@XZ
??1AutoMIInstance@@QAA@XZ
??1AutoObject@@QAA@XZ
??1AutoRegKey@@QAA@XZ
??1AutoSecurityDescriptor@@QAA@XZ
??1AutoWaitHandle@@QAA@XZ
??1BufferFormatter@@UAA@XZ
??1CWSManCriticalSectionWithConditionVar@@QAA@XZ
??1CWSManResource@@UAA@XZ
??1ChildLifeTimeManager@@QAA@XZ
??1CircularBufferFormatter@@UAA@XZ
??1EtwCorrelationHelper@@UAA@XZ
??1ILifeTimeMgmt@@UAA@XZ
??1IRequestContext@@UAA@XZ
??1OwnLock@@QAA@XZ
??1ShareLock@@QAA@XZ
??4?$AutoCleanup@V?$AutoDeleteVector@G@@PAG@@QAAAAV?$AutoDeleteVector@G@@PAG@Z
??4?$AutoCleanup@V?$AutoRelease@VCWSManSecurityUI@@@@PAVCWSManSecurityUI@@@@QAAAAV?$AutoRelease@VCWSManSecurityUI@@@@PAVCWSManSecurityUI@@@Z
??4?$AutoCleanup@VAutoBstr@@PAG@@QAAAAVAutoBstr@@PAG@Z
??4?$AutoCleanup@VAutoBstrNoAlloc@@PAG@@QAAAAVAutoBstrNoAlloc@@PAG@Z
??4?$AutoCleanup@VAutoCertContext@@PBU_CERT_CONTEXT@@@@QAAAAVAutoCertContext@@PBU_CERT_CONTEXT@@@Z
??4?$AutoCleanup@VAutoChainContext@@PBU_CERT_CHAIN_CONTEXT@@@@QAAAAVAutoChainContext@@PBU_CERT_CHAIN_CONTEXT@@@Z
??4?$AutoCleanup@VAutoCoTaskMemFree@@PAX@@QAAAAVAutoCoTaskMemFree@@PAX@Z
??4?$AutoCleanup@VAutoEnvironmentBlock@@PAX@@QAAAAVAutoEnvironmentBlock@@PAX@Z
??4?$AutoCleanup@VAutoFwXmlCloseParser@@PAX@@QAAAAVAutoFwXmlCloseParser@@PAX@Z
??4?$AutoCleanup@VAutoHandle@@PAX@@QAAAAVAutoHandle@@PAX@Z
??4?$AutoCleanup@VAutoImpersonateUser@@PAX@@QAAAAVAutoImpersonateUser@@PAX@Z
??4?$AutoCleanup@VAutoLibrary@@PAUHINSTANCE__@@@@QAAAAVAutoLibrary@@PAUHINSTANCE__@@@Z
??4?$AutoCleanup@VAutoLocalFree@@PAX@@QAAAAVAutoLocalFree@@PAX@Z
??4?$AutoCleanup@VAutoMIClass@@PAU_MI_Class@@@@QAAAAVAutoMIClass@@PAU_MI_Class@@@Z
??4?$AutoCleanup@VAutoMIInstance@@PAU_MI_Instance@@@@QAAAAVAutoMIInstance@@PAU_MI_Instance@@@Z
??4?$AutoCleanup@VAutoObject@@PAUWSMAN_OBJECT@@@@QAAAAVAutoObject@@PAUWSMAN_OBJECT@@@Z
??4?$AutoCleanup@VAutoRegKey@@PAUHKEY__@@@@QAAAAVAutoRegKey@@PAUHKEY__@@@Z
??4?$AutoCleanup@VAutoSecurityDescriptor@@PAX@@QAAAAVAutoSecurityDescriptor@@PAX@Z
??4?$AutoCleanup@VAutoWaitHandle@@PAX@@QAAAAVAutoWaitHandle@@PAX@Z
??4?$AutoDeleteVector@G@@QAAAAV0@PAG@Z
??4?$AutoRelease@VCWSManSecurityUI@@@@QAAAAV0@PAVCWSManSecurityUI@@@Z
??4?$SimpleQueue@T_LARGE_INTEGER@@@@QAAAAV0@ABV0@@Z
??4AutoBstr@@QAAAAV0@PAG@Z
??4AutoBstrNoAlloc@@QAAAAV0@PAG@Z
??4AutoCertContext@@QAAAAV0@PBU_CERT_CONTEXT@@@Z
??4AutoChainContext@@QAAAAV0@PBU_CERT_CHAIN_CONTEXT@@@Z
??4AutoCoTaskMemFree@@QAAAAV0@PAX@Z
??4AutoEnvironmentBlock@@QAAAAV0@PAX@Z
??4AutoFwXmlCloseParser@@QAAAAV0@PAX@Z
??4AutoHandle@@QAAAAV0@PAX@Z
??4AutoImpersonateUser@@QAAAAV0@PAX@Z
??4AutoLibrary@@QAAAAV0@PAUHINSTANCE__@@@Z
??4AutoLocalFree@@QAAAAV0@PAX@Z
??4AutoMIClass@@QAAAAV0@PAU_MI_Class@@@Z
??4AutoMIInstance@@QAAAAV0@PAU_MI_Instance@@@Z
??4AutoObject@@QAAAAV0@PAUWSMAN_OBJECT@@@Z
??4AutoRegKey@@QAAAAV0@PAUHKEY__@@@Z
??4AutoSecurityDescriptor@@QAAAAV0@PAX@Z
??4AutoWaitHandle@@QAAAAV0@PAX@Z
??4ChildLifeTimeManager@@QAAAAV0@ABV0@@Z
??4EtwCorrelationHelper@@QAAAAV0@ABV0@@Z
??4EventLog@@QAAAAV0@ABV0@@Z
??4FastLock@@QAAAAV0@ABV0@@Z
??4ILifeTimeMgmt@@QAAAAV0@ABV0@@Z
??4PacketFormatter@@QAAAAV0@ABV0@@Z
??7?$AutoCleanup@V?$AutoDeleteVector@G@@PAG@@QBA_NXZ
??7?$AutoCleanup@V?$AutoRelease@VCRequestContext@@@@PAVCRequestContext@@@@QBA_NXZ
??7?$AutoCleanup@V?$AutoRelease@VCWSManSecurityUI@@@@PAVCWSManSecurityUI@@@@QBA_NXZ
??B?$AutoCleanup@V?$AutoDelete@VResources@Locale@@@@PAVResources@Locale@@@@QAAPAVResources@Locale@@XZ
??B?$AutoCleanup@V?$AutoDeleteVector@E@@PAE@@QAAPAEXZ
??B?$AutoCleanup@V?$AutoDeleteVector@G@@PAG@@QAAPAGXZ
??B?$AutoCleanup@V?$AutoDeleteVector@PBG@@PAPBG@@QAAPAPBGXZ
??B?$AutoCleanup@V?$AutoDeleteVector@U_WSMAN_OPTION@@@@PAU_WSMAN_OPTION@@@@QAAPAU_WSMAN_OPTION@@XZ
??B?$AutoCleanup@V?$AutoFree@E@@PAE@@QAAPAEXZ
??B?$AutoCleanup@V?$AutoFree@E@@PAE@@QBAQAEXZ
??B?$AutoCleanup@V?$AutoRelease@VCWSManSecurityUI@@@@PAVCWSManSecurityUI@@@@QAAPAVCWSManSecurityUI@@XZ
??B?$AutoCleanup@VAutoLocalFree@@PAX@@QAAPAXXZ
??C?$AutoCleanup@V?$AutoRelease@VCRequestContext@@@@PAVCRequestContext@@@@QAAPAVCRequestContext@@XZ
??C?$AutoCleanup@V?$AutoRelease@VCWSManSecurityUI@@@@PAVCWSManSecurityUI@@@@QAAPAVCWSManSecurityUI@@XZ
??_7?$SafeMap@VKey@Locale@@KV?$SafeMap_Iterator@VKey@Locale@@K@@@@6B@ DATA
??_7BufferFormatter@@6B@ DATA
??_7CWSManResource@@6B@ DATA
??_7CircularBufferFormatter@@6B@ DATA
??_7EtwCorrelationHelper@@6B@ DATA
??_7ILifeTimeMgmt@@6B@ DATA
??_7IRequestContext@@6B@ DATA
??_FCErrorContext@@QAAXXZ
?Acquire@?$SafeMap@VKey@Locale@@KV?$SafeMap_Iterator@VKey@Locale@@K@@@@UBAXXZ
?Acquire@?$SafeMap_Lock@VKey@Locale@@KV?$SafeMap_Iterator@VKey@Locale@@K@@@@QAAXXZ
?AcquireExclusive@FastLock@@QAAXXZ
?AcquireShared@FastLock@@QAAXXZ
?Acquired@?$SafeMap_Lock@VKey@Locale@@KV?$SafeMap_Iterator@VKey@Locale@@K@@@@QAA_NXZ
?AddRef@ILifeTimeMgmt@@UAAJXZ
?AsReference@?$SafeMap@VKey@Locale@@KV?$SafeMap_Iterator@VKey@Locale@@K@@@@QAAAAV1@XZ
?CreateInstance@?$ILoader@VResources@Locale@@@@IAA_NAAVIRequestContext@@@Z
?Data@?$SafeMap_Iterator@VKey@Locale@@K@@IBAAAV?$STLMap@VKey@Locale@@K@@XZ
?DeInitialize@?$SafeMap@VKey@Locale@@KV?$SafeMap_Iterator@VKey@Locale@@K@@@@UAA_NAAVIRequestContext@@@Z
?Detach@?$AutoCleanup@V?$AutoDelete@VResources@Locale@@@@PAVResources@Locale@@@@QAAPAVResources@Locale@@XZ
?Detach@?$AutoCleanup@V?$AutoDeleteVector@G@@PAG@@QAAPAGXZ
?Detach@?$AutoCleanup@V?$AutoFree@E@@PAE@@QAAPAEXZ
?Detach@BufferFormatter@@QAAPAEXZ
?FreeInstance@?$ILoader@VResources@Locale@@@@QAA_NAAVIRequestContext@@_N@Z
?GetBomIndex@PacketFormatter@@QBA?AW4Charset@1@XZ
?GetBuffer@BufferFormatter@@UAAPAEXZ
?GetBuffer@BufferFormatter@@UBAPBEXZ
?GetBuffer@CircularBufferFormatter@@UBAPBEXZ
?GetBuffer@XmlReader@@QAAPBGXZ
?GetBufferSize@BufferFormatter@@QBAKXZ
?GetCalculationSize@BufferFormatter@@UBAK_N@Z
?GetCharset@PacketFormatter@@QBA?AW4Charset@1@XZ
?GetChildCount@ChildLifeTimeManager@@QBAJXZ
?GetError@BufferFormatter@@QBAKXZ
?GetErrorCode@CErrorContext@@UBAKXZ
?GetFaultXML@CErrorContext@@UBAPBGXZ
?GetFaultXML@CRequestContext@@UBAPBGXZ
?GetFormatterMode@BufferFormatter@@QAA?AW4Charset@PacketFormatter@@XZ
?GetInitError@CWSManCriticalSection@@QBAKXZ
?GetInstance@?$LoaderSerializer@VResources@Locale@@$0A@@@QAAPAVResources@Locale@@AAVIRequestContext@@@Z
?GetLCID@Locale@@QAAKXZ
?GetLength@XmlReader@@QAAIXZ
?GetLocale@CRequestContext@@QAAAAVLocale@@XZ
?GetLocaleString@CRequestContext@@QAAPBGXZ
?GetMap@?$SafeMap_Iterator@VKey@Locale@@K@@QBAAAV?$SafeMap@VKey@Locale@@KV?$SafeMap_Iterator@VKey@Locale@@K@@@@XZ
?GetMap@?$SafeMap_Lock@VKey@Locale@@KV?$SafeMap_Iterator@VKey@Locale@@K@@@@QBAABV?$SafeMap@VKey@Locale@@KV?$SafeMap_Iterator@VKey@Locale@@K@@@@XZ
?GetMessageId@CErrorContext@@UBAKXZ
?GetMessageId@CRequestContext@@UBAKXZ
?GetObjectW@?$ILoader@VResources@Locale@@@@IBAPAVResources@Locale@@XZ
?GetOptionCount@CWSManResourceNoResourceUri@@QAAKXZ
?GetOptionTypes@CWSManResourceNoResourceUri@@QAAPAPBGXZ
?GetOptions@CWSManResourceNoResourceUri@@QAAPAU_WSMAN_OPTION@@XZ
?GetOptionsMustUnderstandValue@CWSManResourceNoResourceUri@@QAAHXZ
?GetParser@XmlReader@@QAAPAXXZ
?GetRefCount@ILifeTimeMgmt@@QAAJXZ
?GetSpaceUsed@BufferFormatter@@UBAK_N@Z
?HasFaultXML@CRequestContext@@QBAHXZ
?HasHtmlError@CRequestContext@@ABAHXZ
?Initialize@?$SafeMap@VKey@Locale@@KV?$SafeMap_Iterator@VKey@Locale@@K@@@@UAA_NAAVIRequestContext@@@Z
?IsActive@ChildLifeTimeManager@@QAA_NXZ
?IsCIM_Error@CRequestContext@@QAAHXZ
?IsEmpty@?$ILoader@VResources@Locale@@@@QBA_NXZ
?IsGeneratingError@CErrorContext@@UBA_NXZ
?IsInCommitMode@BufferFormatter@@QAA_NXZ
?IsValid@?$SafeMap_Iterator@VKey@Locale@@K@@QBA_NXZ
?LogErrorCode@CRequestContext@@QAAXXZ
?Me@?$AutoCleanup@V?$AutoDelete@G@@PAG@@AAAAAV?$AutoDelete@G@@XZ
?Me@?$AutoCleanup@V?$AutoDelete@VResources@Locale@@@@PAVResources@Locale@@@@AAAAAV?$AutoDelete@VResources@Locale@@@@XZ
?Me@?$AutoCleanup@V?$AutoDeleteVector@E@@PAE@@AAAAAV?$AutoDeleteVector@E@@XZ
?Me@?$AutoCleanup@V?$AutoDeleteVector@G@@PAG@@AAAAAV?$AutoDeleteVector@G@@XZ
?Me@?$AutoCleanup@V?$AutoDeleteVector@PBG@@PAPBG@@AAAAAV?$AutoDeleteVector@PBG@@XZ
?Me@?$AutoCleanup@V?$AutoDeleteVector@U_WSMAN_OPTION@@@@PAU_WSMAN_OPTION@@@@AAAAAV?$AutoDeleteVector@U_WSMAN_OPTION@@@@XZ
?Me@?$AutoCleanup@V?$AutoFree@E@@PAE@@AAAAAV?$AutoFree@E@@XZ
?Me@?$AutoCleanup@V?$AutoRelease@VCRequestContext@@@@PAVCRequestContext@@@@AAAAAV?$AutoRelease@VCRequestContext@@@@XZ
?Me@?$AutoCleanup@V?$AutoRelease@VCWSManSecurityUI@@@@PAVCWSManSecurityUI@@@@AAAAAV?$AutoRelease@VCWSManSecurityUI@@@@XZ
?Me@?$AutoCleanup@VAutoBstr@@PAG@@AAAAAVAutoBstr@@XZ
?Me@?$AutoCleanup@VAutoBstrNoAlloc@@PAG@@AAAAAVAutoBstrNoAlloc@@XZ
?Me@?$AutoCleanup@VAutoCertContext@@PBU_CERT_CONTEXT@@@@AAAAAVAutoCertContext@@XZ
?Me@?$AutoCleanup@VAutoChainContext@@PBU_CERT_CHAIN_CONTEXT@@@@AAAAAVAutoChainContext@@XZ
?Me@?$AutoCleanup@VAutoCoTaskMemFree@@PAX@@AAAAAVAutoCoTaskMemFree@@XZ
?Me@?$AutoCleanup@VAutoEnvironmentBlock@@PAX@@AAAAAVAutoEnvironmentBlock@@XZ
?Me@?$AutoCleanup@VAutoFwXmlCloseParser@@PAX@@AAAAAVAutoFwXmlCloseParser@@XZ
?Me@?$AutoCleanup@VAutoHandle@@PAX@@AAAAAVAutoHandle@@XZ
?Me@?$AutoCleanup@VAutoImpersonateUser@@PAX@@AAAAAVAutoImpersonateUser@@XZ
?Me@?$AutoCleanup@VAutoLibrary@@PAUHINSTANCE__@@@@AAAAAVAutoLibrary@@XZ
?Me@?$AutoCleanup@VAutoLocalFree@@PAX@@AAAAAVAutoLocalFree@@XZ
?Me@?$AutoCleanup@VAutoMIClass@@PAU_MI_Class@@@@AAAAAVAutoMIClass@@XZ
?Me@?$AutoCleanup@VAutoMIInstance@@PAU_MI_Instance@@@@AAAAAVAutoMIInstance@@XZ
?Me@?$AutoCleanup@VAutoObject@@PAUWSMAN_OBJECT@@@@AAAAAVAutoObject@@XZ
?Me@?$AutoCleanup@VAutoRegKey@@PAUHKEY__@@@@AAAAAVAutoRegKey@@XZ
?Me@?$AutoCleanup@VAutoSecurityDescriptor@@PAX@@AAAAAVAutoSecurityDescriptor@@XZ
?Me@?$AutoCleanup@VAutoWaitHandle@@PAX@@AAAAAVAutoWaitHandle@@XZ
?Passed@CErrorContext@@UBAHXZ
?PrepareToCommitWithSize@CircularBufferFormatter@@UAAKK@Z
?ProcessContext@CRequestContext@@QAAHHPAU_WSMAN_ENUMERATOR_RESULT@@@Z
?ProcessContext@CRequestContext@@QAAHHPAU_WSMAN_EVENTS_RESULT@@@Z
?ProcessContext@CRequestContext@@QAAHHPAU_WSMAN_RESULT@@@Z
?ProcessContext@CRequestContext@@QAAHHPAU_WSMAN_STATUS@@@Z
?ProviderFailure@CErrorContext@@UBAHXZ
?RecordAccessDenied@CRequestContext@@UAAXXZ
?RecordFailure@CRequestContext@@UAAXK@Z
?RecordHtmlError@CRequestContext@@QAAHKPAU_FWXML_ELEMENT@@@Z
?RecordHtmlError@CRequestContext@@QAAHKPBGK@Z
?RecordMIFailure@IRequestContext@@QAAXW4_MI_Result@@K@Z
?RecordOutOfMemory@CRequestContext@@UAAXXZ
?RecordProviderFailure@CRequestContext@@QAAXKHPBG00@Z
?RecordSoapError@CRequestContext@@QAAHKPAU_FWXML_ELEMENT@@@Z
?RecordSoapError@CRequestContext@@UAAHKPBG@Z
?RegisterChild@ChildLifeTimeManager@@QAA_NXZ
?Release@?$SafeMap@VKey@Locale@@KV?$SafeMap_Iterator@VKey@Locale@@K@@@@UBAXXZ
?Release@ILifeTimeMgmt@@UAAJP6AXPAX@Z0@Z
?ReleaseExclusive@FastLock@@QAAXXZ
?ReleasePtr@?$AutoCleanup@V?$AutoDelete@G@@PAG@@AAAXXZ
?ReleasePtr@?$AutoCleanup@V?$AutoDelete@VResources@Locale@@@@PAVResources@Locale@@@@AAAXXZ
?ReleasePtr@?$AutoCleanup@V?$AutoDeleteVector@E@@PAE@@AAAXXZ
?ReleasePtr@?$AutoCleanup@V?$AutoDeleteVector@G@@PAG@@AAAXXZ
?ReleasePtr@?$AutoCleanup@V?$AutoDeleteVector@PBG@@PAPBG@@AAAXXZ
?ReleasePtr@?$AutoCleanup@V?$AutoDeleteVector@U_WSMAN_OPTION@@@@PAU_WSMAN_OPTION@@@@AAAXXZ
?ReleasePtr@?$AutoCleanup@V?$AutoFree@E@@PAE@@AAAXXZ
?ReleasePtr@?$AutoCleanup@V?$AutoRelease@VCRequestContext@@@@PAVCRequestContext@@@@AAAXXZ
?ReleasePtr@?$AutoCleanup@V?$AutoRelease@VCWSManSecurityUI@@@@PAVCWSManSecurityUI@@@@AAAXXZ
?ReleasePtr@?$AutoCleanup@VAutoBstr@@PAG@@AAAXXZ
?ReleasePtr@?$AutoCleanup@VAutoBstrNoAlloc@@PAG@@AAAXXZ
?ReleasePtr@?$AutoCleanup@VAutoCertContext@@PBU_CERT_CONTEXT@@@@AAAXXZ
?ReleasePtr@?$AutoCleanup@VAutoChainContext@@PBU_CERT_CHAIN_CONTEXT@@@@AAAXXZ
?ReleasePtr@?$AutoCleanup@VAutoCoTaskMemFree@@PAX@@AAAXXZ
?ReleasePtr@?$AutoCleanup@VAutoEnvironmentBlock@@PAX@@AAAXXZ
?ReleasePtr@?$AutoCleanup@VAutoFwXmlCloseParser@@PAX@@AAAXXZ
?ReleasePtr@?$AutoCleanup@VAutoHandle@@PAX@@AAAXXZ
?ReleasePtr@?$AutoCleanup@VAutoImpersonateUser@@PAX@@AAAXXZ
?ReleasePtr@?$AutoCleanup@VAutoLibrary@@PAUHINSTANCE__@@@@AAAXXZ
?ReleasePtr@?$AutoCleanup@VAutoLocalFree@@PAX@@AAAXXZ
?ReleasePtr@?$AutoCleanup@VAutoMIClass@@PAU_MI_Class@@@@AAAXXZ
?ReleasePtr@?$AutoCleanup@VAutoMIInstance@@PAU_MI_Instance@@@@AAAXXZ
?ReleasePtr@?$AutoCleanup@VAutoObject@@PAUWSMAN_OBJECT@@@@AAAXXZ
?ReleasePtr@?$AutoCleanup@VAutoRegKey@@PAUHKEY__@@@@AAAXXZ
?ReleasePtr@?$AutoCleanup@VAutoSecurityDescriptor@@PAX@@AAAXXZ
?ReleasePtr@?$AutoCleanup@VAutoWaitHandle@@PAX@@AAAXXZ
?ReleaseShared@FastLock@@QAAXXZ
?Reset@?$SafeMap_Iterator@VKey@Locale@@K@@QAAXXZ
?Reset@BufferFormatter@@UAAXXZ
?Reset@CircularBufferFormatter@@UAAXXZ
?SetCIM_Error@CErrorContext@@UAAXXZ
?SetCIM_Error@CRequestContext@@UAAXXZ
?SetExtraLogInfo@CErrorContext@@QAAXPBG000@Z
?SetFormatterMode@BufferFormatter@@QAAXW4Charset@PacketFormatter@@0@Z
?SetGeneratingError@CErrorContext@@UAAXXZ
?SetLocale@CRequestContext@@QAA_NPBGK@Z
?SetMachineName@CRequestContext@@QAAKPBG@Z
?SetMaxEnvelopeSize@CircularBufferFormatter@@QAAXK@Z
?SetOptionsMustUnderstandValue@CWSManResourceNoResourceUri@@QAAXH@Z
?SetUpdateMode@BufferFormatter@@UAAXW4Mode@1@@Z
?SetUpdateMode@CircularBufferFormatter@@UAAXW4Mode@BufferFormatter@@@Z
?Shutdown@ChildLifeTimeManager@@QAAXXZ
?SkipOrphans@?$SafeMap_Iterator@VKey@Locale@@K@@IAAXXZ
?UnregisterChild@ChildLifeTimeManager@@QAAXXZ
?UseDefaultConfig@CErrorContext@@UBAHXZ
?UsingDefaultLCID@Locale@@QAA_NXZ
?WaitForAllChildrenToUnregister@ChildLifeTimeManager@@QAAXK@Z
?WakeAllWaitingOnNoOfChildren@ChildLifeTimeManager@@AAAXXZ
?empty@?$SimpleQueue@T_LARGE_INTEGER@@@@QBA_NXZ
?pop@?$SimpleQueue@T_LARGE_INTEGER@@@@QAAXXZ
