;
; Definition file of WSShared.dll
; Automatic generated by gendef
; written by Kai Tietz 2008-2014
;
LIBRARY "WSShared.dll"
EXPORTS
??0StoreInAppInformation@@QAA@XZ
??0StoreServiceInformation@@QAA@XZ
??0UnfulfilledConsumableData@@QAA@XZ
??0tagStoreAppInformation@@QAA@XZ
??1StoreInAppInformation@@QAA@XZ
??1StoreServiceInformation@@QAA@XZ
??1UnfulfilledConsumableData@@QAA@XZ
??1tagStoreAppInformation@@QAA@XZ
??4CWSSharedUtils@@QAAAAV0@ABV0@@Z
?EncodeXml@CWSSharedUtils@@SAJPBGPAPAG@Z
?FreeAuthBrokerContext@CWSSharedUtils@@SAJPAX@Z
?GetAuthBrokerContext@CWSSharedUtils@@SAJW4AuthBrokerScenarioName@@KPAUHWND__@@PAPAX@Z
?GetAuthResponse@CWSSharedUtils@@SAJPBG0PAPAG1@Z
?GetBannedAppsListFromWeb@CWSSharedUtils@@SAJPAPAEPAI@Z
?GetCallingAppPackageFamilyName@CWSSharedUtils@@SAJPAPAG@Z
?GetCallingAppWindowHandle@CWSSharedUtils@@SAJPAPAUHWND__@@@Z
?GetCoreWindow@CWSSharedUtils@@SAJPAPAUICoreWindow@Core@UI@Windows@@@Z
?GetDataFromProductReceipt@CWSSharedUtils@@SAJPBDIPAU_GUID@@PAEPAPAG@Z
?GetDevLicenseInfoFromSqr@CWSSharedUtils@@SAJPAUHWND__@@PAXPAPAG2222@Z
?GetFormattedPrice@CWSSharedUtils@@SAJPBG0000PAPAG@Z
?GetProductFulfillmentUrlInfo@CWSSharedUtils@@SAJPAU_GUID@@PAPAUHSTRING__@@0PAPBG22@Z
?GetProductInformationFromWeb@CWSSharedUtils@@SAJPAUHWND__@@U_GUID@@PBGPAXPAPAUtagStoreAppInformation@@@Z
?GetProxyCredentialsUsingSSPIPFC@CWSSharedUtils@@SAJPAUHWND__@@PBGKPAPAG2@Z
?GetReceiptIdAndProductTypeFromProductReceipt@CWSSharedUtils@@SAJPBDIPAU_GUID@@PAE@Z
?GetServiceUrlInfoFromSqr@CWSSharedUtils@@SAJPAUHWND__@@W4StoreServiceName@@HPAXPAPAG33@Z
?GetUnfulfilledConsumablesFromAppReceipt@CWSSharedUtils@@SAJPBDIPAV?$CArray@PAUUnfulfilledConsumableData@@PAU1@VCAdaptorDefault@@VCPoliciesDefault@@@@@Z
?GetWindowHandle@CWSSharedUtils@@SAJPAUICoreWindow@Core@UI@Windows@@PAPAUHWND__@@@Z
?SyncMachineLicenses@CWSSharedUtils@@SAJXZ
?WSFetchReceipt@CWSSharedUtils@@SAJPAU_GUID@@PAPAG0PAUHWND__@@@Z
